 XMPCore

 Timestamp is 69a8c544 (Thu Mar  5 00:50:28 2026)

 Preferred load address is 0000000180000000

 Start         Length     Name                   Class
 0001:00000000 00000460H .text$di                CODE
 0001:00000460 000a1ad0H .text$mn                CODE
 0001:000a1f30 00000036H .text$mn$00             CODE
 0001:000a1f66 0000a53aH .text$x                 CODE
 0001:000ac4a0 0000024bH .text$yd                CODE
 0002:00000000 000003d8H .idata$5                DATA
 0002:000003d8 00000038H .00cfg                  DATA
 0002:00000410 00000008H .CRT$XCA                DATA
 0002:00000418 00000058H .CRT$XCU                DATA
 0002:00000470 00000008H .CRT$XCZ                DATA
 0002:00000478 00000008H .CRT$XIA                DATA
 0002:00000480 00000008H .CRT$XIC                DATA
 0002:00000488 00000008H .CRT$XIZ                DATA
 0002:00000490 00000008H .CRT$XLA                DATA
 0002:00000498 00000008H .CRT$XLZ                DATA
 0002:000004a0 00000008H .CRT$XPA                DATA
 0002:000004a8 00000008H .CRT$XPZ                DATA
 0002:000004b0 00000008H .CRT$XTA                DATA
 0002:000004b8 00000008H .CRT$XTZ                DATA
 0002:000004c0 00000000H .gehcont$y              DATA
 0002:000004c0 00000000H .gfids$y                DATA
 0002:000004c0 00013340H .rdata                  DATA
 0002:00013800 00000000H .rdata$CastGuardVftablesA DATA
 0002:00013800 00000000H .rdata$CastGuardVftablesC DATA
 0002:00013800 00000030H .rdata$T                DATA
 0002:00013830 0000a0bcH .rdata$r                DATA
 0002:0001d8ec 000046fcH .rdata$voltmd           DATA
 0002:00021fe8 000003a0H .rdata$zzzdbg           DATA
 0002:00022388 00000008H .rtc$IAA                DATA
 0002:00022390 00000008H .rtc$IZZ                DATA
 0002:00022398 00000008H .rtc$TAA                DATA
 0002:000223a0 00000008H .rtc$TZZ                DATA
 0002:000223a8 00000004H .tls                    DATA
 0002:000223ac 00000004H .tls$                   DATA
 0002:000223b0 00000008H .tls$ZZZ                DATA
 0002:000223b8 0000c6f8H .xdata                  DATA
 0002:0002eab0 000002c0H .xdata$x                DATA
 0002:0002ed70 00000e68H .edata                  DATA
 0002:0002fbd8 00000104H .idata$2                DATA
 0002:0002fcdc 00000014H .idata$3                DATA
 0002:0002fcf0 000003d8H .idata$4                DATA
 0002:000300c8 00000ff4H .idata$6                DATA
 0003:00000000 00000380H .data                   DATA
 0003:00000380 000003c0H .data$r                 DATA
 0003:00000740 00003340H .data$rs                DATA
 0003:00003a80 000007d0H .bss                    DATA
 0004:00000000 00005da8H .pdata                  DATA
 0005:00000000 000000a0H .rsrc$01                DATA
 0005:000000a0 00000470H .rsrc$02                DATA

  Address         Publics by Value              Rva+Base               Lib:Object

 0000:00000000       __AbsoluteZero             0000000000000000     <absolute>
 0000:00000000       ___safe_se_handler_count   0000000000000000     <absolute>
 0000:00000000       ___safe_se_handler_table   0000000000000000     <absolute>
 0000:00000000       __arm64x_extra_rfe_table   0000000000000000     <absolute>
 0000:00000000       __arm64x_extra_rfe_table_size 0000000000000000     <absolute>
 0000:00000000       __arm64x_native_entrypoint 0000000000000000     <absolute>
 0000:00000000       __arm64x_redirection_metadata 0000000000000000     <absolute>
 0000:00000000       __arm64x_redirection_metadata_count 0000000000000000     <absolute>
 0000:00000000       __dynamic_value_reloc_table 0000000000000000     <absolute>
 0000:00000000       __enclave_config           0000000000000000     <absolute>
 0000:00000000       __guard_check_icall_a64n_fptr 0000000000000000     <absolute>
 0000:00000000       __guard_eh_cont_count      0000000000000000     <absolute>
 0000:00000000       __guard_eh_cont_table      0000000000000000     <absolute>
 0000:00000000       __guard_fids_count         0000000000000000     <absolute>
 0000:00000000       __guard_fids_table         0000000000000000     <absolute>
 0000:00000000       __guard_iat_count          0000000000000000     <absolute>
 0000:00000000       __guard_iat_table          0000000000000000     <absolute>
 0000:00000000       __guard_longjmp_count      0000000000000000     <absolute>
 0000:00000000       __guard_longjmp_table      0000000000000000     <absolute>
 0000:00000000       __hybrid_auxiliary_delayload_iat 0000000000000000     <absolute>
 0000:00000000       __hybrid_auxiliary_delayload_iat_copy 0000000000000000     <absolute>
 0000:00000000       __hybrid_auxiliary_iat     0000000000000000     <absolute>
 0000:00000000       __hybrid_auxiliary_iat_copy 0000000000000000     <absolute>
 0000:00000000       __hybrid_code_map          0000000000000000     <absolute>
 0000:00000000       __hybrid_code_map_count    0000000000000000     <absolute>
 0000:00000000       __hybrid_image_info_bitfield 0000000000000000     <absolute>
 0000:00000000       __x64_code_ranges_to_entry_points 0000000000000000     <absolute>
 0000:00000000       __x64_code_ranges_to_entry_points_count 0000000000000000     <absolute>
 0000:00000100       __guard_flags              0000000000000100     <absolute>
 0000:00000000       __ImageBase                0000000180000000     <linker-defined>
 0001:00000460       ??0XMP_AutoLock@@QEAA@PEBVXMP_ReadWriteLock@@_N1@Z 0000000180001460 f i WXMPIterator.obj
 0001:00000490       ??1XMP_AutoLock@@QEAA@XZ   0000000180001490 f i WXMPIterator.obj
 0001:000004c8       WXMPIterator_PropCTor_1    00000001800014c8 f   WXMPIterator.obj
 0001:000005d4       WXMPIterator_TableCTor_1   00000001800015d4 f   WXMPIterator.obj
 0001:00000640       WXMPIterator_IncrementRefCount_1 0000000180001640 f   WXMPIterator.obj
 0001:00000640       WXMPMeta_IncrementRefCount_1 0000000180001640 f   WXMPMeta.obj
 0001:000006d4       WXMPIterator_DecrementRefCount_1 00000001800016d4 f   WXMPIterator.obj
 0001:000006d4       WXMPMeta_DecrementRefCount_1 00000001800016d4 f   WXMPMeta.obj
 0001:000007a8       WXMPIterator_Next_1        00000001800017a8 f   WXMPIterator.obj
 0001:00000a10       WXMPIterator_Skip_1        0000000180001a10 f   WXMPIterator.obj
 0001:00000b5c       ??0XMP_Error@@QEAA@JPEBD@Z 0000000180001b5c f i WXMPMeta.obj
 0001:00000b6c       WXMPMeta_GetVersionInfo_1  0000000180001b6c f   WXMPMeta.obj
 0001:00000ba0       WXMPMeta_Initialize_1      0000000180001ba0 f   WXMPMeta.obj
 0001:00000bcc       WXMPMeta_Terminate_1       0000000180001bcc f   WXMPMeta.obj
 0001:00000bdc       WXMPMeta_CTor_1            0000000180001bdc f   WXMPMeta.obj
 0001:00000c3c       WXMPMeta_GetGlobalOptions_1 0000000180001c3c f   WXMPMeta.obj
 0001:00000c4c       WXMPMeta_SetGlobalOptions_1 0000000180001c4c f   WXMPMeta.obj
 0001:00000c68       WXMPMeta_DumpNamespaces_1  0000000180001c68 f   WXMPMeta.obj
 0001:00000cc4       WXMPMeta_RegisterNamespace_1 0000000180001cc4 f   WXMPMeta.obj
 0001:00000da8       WXMPMeta_GetNamespacePrefix_1 0000000180001da8 f   WXMPMeta.obj
 0001:00000e58       WXMPMeta_GetNamespaceURI_1 0000000180001e58 f   WXMPMeta.obj
 0001:00000f04       WXMPMeta_DeleteNamespace_1 0000000180001f04 f   WXMPMeta.obj
 0001:00000f54       WXMPMeta_GetProperty_1     0000000180001f54 f   WXMPMeta.obj
 0001:0000111c       WXMPMeta_GetArrayItem_1    000000018000211c f   WXMPMeta.obj
 0001:000012f0       WXMPMeta_GetStructField_1  00000001800022f0 f   WXMPMeta.obj
 0001:00001558       WXMPMeta_GetQualifier_1    0000000180002558 f   WXMPMeta.obj
 0001:000017c0       WXMPMeta_SetProperty_1     00000001800027c0 f   WXMPMeta.obj
 0001:0000190c       WXMPMeta_SetArrayItem_1    000000018000290c f   WXMPMeta.obj
 0001:00001a68       WXMPMeta_AppendArrayItem_1 0000000180002a68 f   WXMPMeta.obj
 0001:00001bc4       WXMPMeta_SetStructField_1  0000000180002bc4 f   WXMPMeta.obj
 0001:00001dac       WXMPMeta_SetQualifier_1    0000000180002dac f   WXMPMeta.obj
 0001:00001f98       WXMPMeta_DeleteProperty_1  0000000180002f98 f   WXMPMeta.obj
 0001:000020cc       WXMPMeta_DeleteArrayItem_1 00000001800030cc f   WXMPMeta.obj
 0001:0000220c       WXMPMeta_DeleteStructField_1 000000018000320c f   WXMPMeta.obj
 0001:000023d8       WXMPMeta_DeleteQualifier_1 00000001800033d8 f   WXMPMeta.obj
 0001:000025a4       WXMPMeta_DoesPropertyExist_1 00000001800035a4 f   WXMPMeta.obj
 0001:000026e0       WXMPMeta_DoesArrayItemExist_1 00000001800036e0 f   WXMPMeta.obj
 0001:00002830       WXMPMeta_DoesStructFieldExist_1 0000000180003830 f   WXMPMeta.obj
 0001:00002a0c       WXMPMeta_DoesQualifierExist_1 0000000180003a0c f   WXMPMeta.obj
 0001:00002be8       WXMPMeta_GetLocalizedText_1 0000000180003be8 f   WXMPMeta.obj
 0001:00002e68       WXMPMeta_SetLocalizedText_1 0000000180003e68 f   WXMPMeta.obj
 0001:00003030       WXMPMeta_DeleteLocalizedText_1 0000000180004030 f   WXMPMeta.obj
 0001:000031c8       WXMPMeta_GetProperty_Bool_1 00000001800041c8 f   WXMPMeta.obj
 0001:000033c8       WXMPMeta_GetProperty_Int_1 00000001800043c8 f   WXMPMeta.obj
 0001:000035c0       WXMPMeta_GetProperty_Int64_1 00000001800045c0 f   WXMPMeta.obj
 0001:00003758       WXMPMeta_GetProperty_Float_1 0000000180004758 f   WXMPMeta.obj
 0001:000038f0       WXMPMeta_GetProperty_Date_1 00000001800048f0 f   WXMPMeta.obj
 0001:00003b10       WXMPMeta_SetProperty_Bool_1 0000000180004b10 f   WXMPMeta.obj
 0001:00003c5c       WXMPMeta_SetProperty_Int_1 0000000180004c5c f   WXMPMeta.obj
 0001:00003da4       WXMPMeta_SetProperty_Int64_1 0000000180004da4 f   WXMPMeta.obj
 0001:00003eec       WXMPMeta_SetProperty_Float_1 0000000180004eec f   WXMPMeta.obj
 0001:00004044       WXMPMeta_SetProperty_Date_1 0000000180005044 f   WXMPMeta.obj
 0001:0000418c       WXMPMeta_DumpObject_1      000000018000518c f   WXMPMeta.obj
 0001:00004280       WXMPMeta_Sort_1            0000000180005280 f   WXMPMeta.obj
 0001:00004334       WXMPMeta_Erase_1           0000000180005334 f   WXMPMeta.obj
 0001:000043e8       WXMPMeta_Clone_1           00000001800053e8 f   WXMPMeta.obj
 0001:00004544       WXMPMeta_CountArrayItems_1 0000000180005544 f   WXMPMeta.obj
 0001:00004680       WXMPMeta_GetObjectName_1   0000000180005680 f   WXMPMeta.obj
 0001:00004780       WXMPMeta_SetObjectName_1   0000000180005780 f   WXMPMeta.obj
 0001:00004844       WXMPMeta_GetObjectOptions_1 0000000180005844 f   WXMPMeta.obj
 0001:000048d8       WXMPMeta_SetObjectOptions_1 00000001800058d8 f   WXMPMeta.obj
 0001:00004a78       WXMPMeta_ParseFromBuffer_1 0000000180005a78 f   WXMPMeta.obj
 0001:00004b54       WXMPMeta_SerializeToBuffer_1 0000000180005b54 f   WXMPMeta.obj
 0001:00004d5c       WXMPMeta_SetDefaultErrorCallback_1 0000000180005d5c f   WXMPMeta.obj
 0001:00004d88       WXMPMeta_SetErrorCallback_1 0000000180005d88 f   WXMPMeta.obj
 0001:00004e74       WXMPMeta_ResetErrorCallbackLimit_1 0000000180005e74 f   WXMPMeta.obj
 0001:00004f2c       ??1?$basic_string@DU?$char_traits@D@std@@V?$allocator@D@2@@std@@QEAA@XZ 0000000180005f2c f i WXMPMeta.obj
 0001:00004fa0       ?_Deallocate_for_capacity@?$basic_string@DU?$char_traits@D@std@@V?$allocator@D@2@@std@@CAXAEAV?$allocator@D@2@QEAD_K@Z 0000000180005fa0 f i WXMPMeta.obj
 0001:00004ff4       WXMPUtils_ComposeArrayItemPath_1 0000000180005ff4 f   WXMPUtils.obj
 0001:00005168       WXMPUtils_ComposeStructFieldPath_1 0000000180006168 f   WXMPUtils.obj
 0001:00005368       WXMPUtils_ComposeQualifierPath_1 0000000180006368 f   WXMPUtils.obj
 0001:00005568       WXMPUtils_ComposeLangSelector_1 0000000180006568 f   WXMPUtils.obj
 0001:0000571c       WXMPUtils_ComposeFieldSelector_1 000000018000671c f   WXMPUtils.obj
 0001:00005938       WXMPUtils_ConvertFromBool_1 0000000180006938 f   WXMPUtils.obj
 0001:00005a24       WXMPUtils_ConvertFromInt_1 0000000180006a24 f   WXMPUtils.obj
 0001:00005b24       WXMPUtils_ConvertFromInt64_1 0000000180006b24 f   WXMPUtils.obj
 0001:00005c24       WXMPUtils_ConvertFromFloat_1 0000000180006c24 f   WXMPUtils.obj
 0001:00005d24       WXMPUtils_ConvertFromDate_1 0000000180006d24 f   WXMPUtils.obj
 0001:00005e00       WXMPUtils_ConvertToBool_1  0000000180006e00 f   WXMPUtils.obj
 0001:00005e5c       WXMPUtils_ConvertToInt_1   0000000180006e5c f   WXMPUtils.obj
 0001:00005eb4       WXMPUtils_ConvertToInt64_1 0000000180006eb4 f   WXMPUtils.obj
 0001:00005f0c       WXMPUtils_ConvertToFloat_1 0000000180006f0c f   WXMPUtils.obj
 0001:00005f68       WXMPUtils_ConvertToDate_1  0000000180006f68 f   WXMPUtils.obj
 0001:00005fb4       WXMPUtils_CurrentDateTime_1 0000000180006fb4 f   WXMPUtils.obj
 0001:00005ffc       WXMPUtils_SetTimeZone_1    0000000180006ffc f   WXMPUtils.obj
 0001:00006044       WXMPUtils_ConvertToUTCTime_1 0000000180007044 f   WXMPUtils.obj
 0001:0000608c       WXMPUtils_ConvertToLocalTime_1 000000018000708c f   WXMPUtils.obj
 0001:0000611c       WXMPUtils_CompareDateTime_1 000000018000711c f   WXMPUtils.obj
 0001:00006228       WXMPUtils_EncodeToBase64_1 0000000180007228 f   WXMPUtils.obj
 0001:0000630c       WXMPUtils_DecodeFromBase64_1 000000018000730c f   WXMPUtils.obj
 0001:000063f0       WXMPUtils_PackageForJPEG_1 00000001800073f0 f   WXMPUtils.obj
 0001:000066d8       WXMPUtils_MergeFromJPEG_1  00000001800076d8 f   WXMPUtils.obj
 0001:000068a0       WXMPUtils_CatenateArrayItems_1 00000001800078a0 f   WXMPUtils.obj
 0001:00006b14       WXMPUtils_SeparateArrayItems_1 0000000180007b14 f   WXMPUtils.obj
 0001:00006cbc       WXMPUtils_ApplyTemplate_1  0000000180007cbc f   WXMPUtils.obj
 0001:00006e0c       WXMPUtils_RemoveProperties_1 0000000180007e0c f   WXMPUtils.obj
 0001:00006f24       WXMPUtils_DuplicateSubtree_1 0000000180007f24 f   WXMPUtils.obj
 0001:00007184       __local_stdio_printf_options 0000000180008184 f i XMPIterator.obj
 0001:0000718c       _snprintf                  000000018000818c f i XMPIterator.obj
 0001:000071e8       ??0exception@std@@QEAA@AEBV01@@Z 00000001800081e8 f i XMPIterator.obj
 0001:0000721c       ?what@exception@std@@UEBAPEBDXZ 000000018000821c f i XMPIterator.obj
 0001:00007230       ??_Ebad_alloc@std@@UEAAPEAXI@Z 0000000180008230 f i * CIL library *:* CIL module *
 0001:00007230       ??_Ebad_array_new_length@std@@UEAAPEAXI@Z 0000000180008230 f i * CIL library *:* CIL module *
 0001:00007230       ??_Ebad_weak_ptr@std@@UEAAPEAXI@Z 0000000180008230 f i * CIL library *:* CIL module *
 0001:00007230       ??_Eexception@std@@UEAAPEAXI@Z 0000000180008230 f i * CIL library *:* CIL module *
 0001:00007230       ??_Gbad_alloc@std@@UEAAPEAXI@Z 0000000180008230 f i XMPIterator.obj
 0001:00007230       ??_Gbad_array_new_length@std@@UEAAPEAXI@Z 0000000180008230 f i XMPIterator.obj
 0001:00007230       ??_Gbad_weak_ptr@std@@UEAAPEAXI@Z 0000000180008230 f i UTF8StringImpl.obj
 0001:00007230       ??_Gexception@std@@UEAAPEAXI@Z 0000000180008230 f i XMPIterator.obj
 0001:00007274       ??1bad_alloc@std@@UEAA@XZ  0000000180008274 f i XMPIterator.obj
 0001:00007274       ??1bad_array_new_length@std@@UEAA@XZ 0000000180008274 f i XMPIterator.obj
 0001:00007274       ??1bad_weak_ptr@std@@UEAA@XZ 0000000180008274 f i UTF8StringImpl.obj
 0001:0000728c       ??0bad_array_new_length@std@@QEAA@XZ 000000018000828c f i XMPIterator.obj
 0001:000072b0       ?_Throw_bad_array_new_length@std@@YAXXZ 00000001800082b0 f i XMPIterator.obj
 0001:000072b0       ?__scrt_throw_std_bad_array_new_length@@YAXXZ 00000001800082b0 f i MSVCRT:throw_bad_alloc.obj
 0001:000072d0       ??0bad_array_new_length@std@@QEAA@AEBV01@@Z 00000001800082d0 f i XMPIterator.obj
 0001:00007310       ??0bad_alloc@std@@QEAA@AEBV01@@Z 0000000180008310 f i XMPIterator.obj
 0001:00007350       ?_Xlen_string@std@@YAXXZ   0000000180008350 f i XMPIterator.obj
 0001:00007364       ??0XMP_Node@@QEAA@PEAV0@PEBDK@Z 0000000180008364 f i XMPIterator.obj
 0001:00007418       ??1XMP_Node@@UEAA@XZ       0000000180008418 f i XMPIterator.obj
 0001:000074fc       ??_EXMP_Node@@UEAAPEAXI@Z  00000001800084fc f i * CIL library *:* CIL module *
 0001:000074fc       ??_GXMP_Node@@UEAAPEAXI@Z  00000001800084fc f i XMPIterator.obj
 0001:00007530       ??0IterInfo@@QEAA@KPEBVXMPMeta@@@Z 0000000180008530 f i XMPIterator.obj
 0001:000075b0       ??1IterNode@@QEAA@XZ       00000001800085b0 f i XMPIterator.obj
 0001:000075dc       ??_EXMPIterator@@UEAAPEAXI@Z 00000001800085dc f i * CIL library *:* CIL module *
 0001:000075dc       ??_GXMPIterator@@UEAAPEAXI@Z 00000001800085dc f i XMPIterator.obj
 0001:00007610       ??1IterInfo@@QEAA@XZ       0000000180008610 f i XMPIterator.obj
 0001:000081a8       ??0XMPIterator@@QEAA@AEBVXMPMeta@@PEBD1K@Z 00000001800091a8 f   XMPIterator.obj
 0001:00008b68       ??0XMPIterator@@QEAA@PEBD0K@Z 0000000180009b68 f   XMPIterator.obj
 0001:00008bd0       ??1XMPIterator@@UEAA@XZ    0000000180009bd0 f   XMPIterator.obj
 0001:00008c30       ?Next@XMPIterator@@UEAA_NPEAPEBDPEAK01011@Z 0000000180009c30 f   XMPIterator.obj
 0001:00008dd0       ?Skip@XMPIterator@@UEAAXK@Z 0000000180009dd0 f   XMPIterator.obj
 0001:00008e68       ??1?$vector@U?$pair@V?$_Vector_iterator@V?$_Vector_val@U?$_Simple_types@UIterNode@@@std@@@std@@@std@@V12@@std@@V?$allocator@U?$pair@V?$_Vector_iterator@V?$_Vector_val@U?$_Simple_types@UIterNode@@@std@@@std@@@std@@V12@@std@@@2@@std@@QEAA@XZ 0000000180009e68 f i XMPIterator.obj
 0001:00008ee4       ??1?$vector@UIterNode@@V?$allocator@UIterNode@@@std@@@std@@QEAA@XZ 0000000180009ee4 f i XMPIterator.obj
 0001:00008f9c       ??1?$vector@VXPathStepInfo@@V?$allocator@VXPathStepInfo@@@std@@@std@@QEAA@XZ 0000000180009f9c f i XMPIterator.obj
 0001:00008fa4       ??1?$vector@PEAVXML_Node@@V?$allocator@PEAVXML_Node@@@std@@@std@@QEAA@XZ 0000000180009fa4 f i ExpatAdapter.obj
 0001:00008fa4       ??1?$vector@PEAVXMP_Node@@V?$allocator@PEAVXMP_Node@@@std@@@std@@QEAA@XZ 0000000180009fa4 f i XMPIterator.obj
 0001:00008fa4       ??1?$vector@_KV?$allocator@_K@std@@@std@@QEAA@XZ 0000000180009fa4 f i ConfigurableImpl.obj
 0001:00009020       ??4?$basic_string@DU?$char_traits@D@std@@V?$allocator@D@2@@std@@QEAAAEAV01@QEBD@Z 000000018000a020 f i XMPIterator.obj
 0001:0000908c       ??4?$basic_string@DU?$char_traits@D@std@@V?$allocator@D@2@@std@@QEAAAEAV01@AEBV01@@Z 000000018000a08c f i XMPIterator.obj
 0001:000090f8       ??0?$basic_string@DU?$char_traits@D@std@@V?$allocator@D@2@@std@@QEAA@AEBV01@@Z 000000018000a0f8 f i XMPIterator.obj
 0001:000091bc       ??$_Construct@$00PEBD@?$basic_string@DU?$char_traits@D@std@@V?$allocator@D@2@@std@@AEAAXQEBD_K@Z 000000018000a1bc f i XMPIterator.obj
 0001:00009274       ?_Tidy@?$vector@VXPathStepInfo@@V?$allocator@VXPathStepInfo@@@std@@@std@@AEAAXXZ 000000018000a274 f i XMPIterator.obj
 0001:00009330       ??$_Emplace_reallocate@U?$pair@V?$_Vector_iterator@V?$_Vector_val@U?$_Simple_types@UIterNode@@@std@@@std@@@std@@V12@@std@@@?$vector@U?$pair@V?$_Vector_iterator@V?$_Vector_val@U?$_Simple_types@UIterNode@@@std@@@std@@@std@@V12@@std@@V?$allocator@U?$pair@V?$_Vector_iterator@V?$_Vector_val@U?$_Simple_types@UIterNode@@@std@@@std@@@std@@V12@@std@@@2@@std@@AEAAPEAU?$pair@V?$_Vector_iterator@V?$_Vector_val@U?$_Simple_types@UIterNode@@@std@@@std@@@std@@V12@@1@QEAU21@$$QEAU21@@Z 000000018000a330 f i XMPIterator.obj
 0001:000094a0       ??$_Emplace_reallocate@UIterNode@@@?$vector@UIterNode@@V?$allocator@UIterNode@@@std@@@std@@AEAAPEAUIterNode@@QEAU2@$$QEAU2@@Z 000000018000a4a0 f i XMPIterator.obj
 0001:000096cc       ??$_Reallocate_grow_by@V<lambda_319d5e083f45f90dcdce5dce53cbb275>@@D@?$basic_string@DU?$char_traits@D@std@@V?$allocator@D@2@@std@@AEAAAEAV01@_KV<lambda_319d5e083f45f90dcdce5dce53cbb275>@@D@Z 000000018000a6cc f i XMPIterator.obj
 0001:000097fc       ??$_Reallocate_for@V<lambda_66f57f934f28d61049862f64df852ff0>@@PEBD@?$basic_string@DU?$char_traits@D@std@@V?$allocator@D@2@@std@@AEAAAEAV01@_KV<lambda_66f57f934f28d61049862f64df852ff0>@@PEBD@Z 000000018000a7fc f i XMPIterator.obj
 0001:000098fc       ?deallocate@?$allocator@VXPathStepInfo@@@std@@QEAAXQEAVXPathStepInfo@@_K@Z 000000018000a8fc f i XMPIterator.obj
 0001:00009954       ?_Xran@?$_String_val@U?$_Simple_types@D@std@@@std@@SAXXZ 000000018000a954 f i XMPIterator.obj
 0001:00009968       ?append@?$basic_string@DU?$char_traits@D@std@@V?$allocator@D@2@@std@@QEAAAEAV12@QEBD_K@Z 000000018000a968 f i XMPIterator.obj
 0001:000099dc       ??$_Reallocate_grow_by@V<lambda_65e615be2a453ca0576c979606f46740>@@PEBD_K@?$basic_string@DU?$char_traits@D@std@@V?$allocator@D@2@@std@@AEAAAEAV01@_KV<lambda_65e615be2a453ca0576c979606f46740>@@PEBD_K@Z 000000018000a9dc f i XMPIterator.obj
 0001:00009b2c       ?_Xlength@?$vector@PEAVXML_Node@@V?$allocator@PEAVXML_Node@@@std@@@std@@CAXXZ 000000018000ab2c f i ExpatAdapter.obj
 0001:00009b2c       ?_Xlength@?$vector@PEAVXMP_Node@@V?$allocator@PEAVXMP_Node@@@std@@@std@@CAXXZ 000000018000ab2c f i XMPMeta-GetSet.obj
 0001:00009b2c       ?_Xlength@?$vector@PEBVINode_v1@AdobeXMPCore@@V?$TAllocator@PEBVINode_v1@AdobeXMPCore@@@AdobeXMPCore_Int@@@std@@CAXXZ 000000018000ab2c f i NodeImpl.obj
 0001:00009b2c       ?_Xlength@?$vector@U?$pair@V?$_Vector_iterator@V?$_Vector_val@U?$_Simple_types@UIterNode@@@std@@@std@@@std@@V12@@std@@V?$allocator@U?$pair@V?$_Vector_iterator@V?$_Vector_val@U?$_Simple_types@UIterNode@@@std@@@std@@@std@@V12@@std@@@2@@std@@CAXXZ 000000018000ab2c f i XMPIterator.obj
 0001:00009b2c       ?_Xlength@?$vector@UIterNode@@V?$allocator@UIterNode@@@std@@@std@@CAXXZ 000000018000ab2c f i XMPIterator.obj
 0001:00009b2c       ?_Xlength@?$vector@V?$basic_string@DU?$char_traits@D@std@@V?$allocator@D@2@@std@@V?$allocator@V?$basic_string@DU?$char_traits@D@std@@V?$allocator@D@2@@std@@@2@@std@@CAXXZ 000000018000ab2c f i XMPUtils-FileInfo.obj
 0001:00009b2c       ?_Xlength@?$vector@V?$shared_ptr@$$CBVINode_v1@AdobeXMPCore@@@std@@V?$allocator@V?$shared_ptr@$$CBVINode_v1@AdobeXMPCore@@@std@@@2@@std@@CAXXZ 000000018000ab2c f i XMPUtils.obj
 0001:00009b2c       ?_Xlength@?$vector@V?$shared_ptr@$$CBVIPathSegment_v1@AdobeXMPCore@@@std@@V?$TAllocator@V?$shared_ptr@$$CBVIPathSegment_v1@AdobeXMPCore@@@std@@@AdobeXMPCore_Int@@@std@@CAXXZ 000000018000ab2c f i PathImpl.obj
 0001:00009b2c       ?_Xlength@?$vector@V?$shared_ptr@$$CBVIUTF8String_v1@AdobeXMPCommon@@@std@@V?$TAllocator@V?$shared_ptr@$$CBVIUTF8String_v1@AdobeXMPCommon@@@std@@@AdobeXMPCore_Int@@@std@@CAXXZ 000000018000ab2c f i ErrorImpl.obj
 0001:00009b2c       ?_Xlength@?$vector@V?$shared_ptr@VINode_v1@AdobeXMPCore@@@std@@V?$TAllocator@V?$shared_ptr@VINode_v1@AdobeXMPCore@@@std@@@AdobeXMPCore_Int@@@std@@CAXXZ 000000018000ab2c f i ArrayNodeImpl.obj
 0001:00009b2c       ?_Xlength@?$vector@V?$shared_ptr@VINode_v1@AdobeXMPCore@@@std@@V?$allocator@V?$shared_ptr@VINode_v1@AdobeXMPCore@@@std@@@2@@std@@CAXXZ 000000018000ab2c f i XMPUtils-FileInfo.obj
 0001:00009b2c       ?_Xlength@?$vector@VXPathStepInfo@@V?$allocator@VXPathStepInfo@@@std@@@std@@CAXXZ 000000018000ab2c f i XMPMeta.obj
 0001:00009b2c       ?_Xlength@?$vector@_KV?$allocator@_K@std@@@std@@CAXXZ 000000018000ab2c f i ConfigurableImpl.obj
 0001:00009b40       ??1_Reallocation_guard@?$vector@UIterNode@@V?$allocator@UIterNode@@@std@@@std@@QEAA@XZ 000000018000ab40 f i XMPIterator.obj
 0001:00009bd0       ??0IterNode@@QEAA@$$QEAU0@@Z 000000018000abd0 f i XMPIterator.obj
 0001:00009ca8       ??1XPathStepInfo@@QEAA@XZ  000000018000aca8 f i XMPIterator.obj
 0001:00009cb0       ??$_Allocate@$0BA@U_Default_allocate_traits@std@@@std@@YAPEAX_K@Z 000000018000acb0 f i XMPIterator.obj
 0001:00009d18       ?_Throw_tree_length_error@std@@YAXXZ 000000018000ad18 f i XMPIterator2.obj
 0001:00009d2c       ?_Decref@_Ref_count_base@std@@QEAAXXZ 000000018000ad2c f i XMPIterator2.obj
 0001:00009d64       ?ConvertToSimpleNode@INode_v1@AdobeXMPCore@@QEBA?AV?$shared_ptr@$$CBVISimpleNode_v1@AdobeXMPCore@@@std@@XZ 000000018000ad64 f i XMPIterator2.obj
 0001:00009de0       ?GetNode@INodeIterator_v1@AdobeXMPCore@@QEBA?AV?$shared_ptr@$$CBVINode_v1@AdobeXMPCore@@@std@@XZ 000000018000ade0 f i XMPIterator2.obj
 0001:00009e58       ?GetNodeAtIndex@IArrayNode_v1@AdobeXMPCore@@QEBA?AV?$shared_ptr@$$CBVINode_v1@AdobeXMPCore@@@std@@_K@Z 000000018000ae58 f i XMPUtils.obj
 0001:00009e58       ?GetParent@INode_v1@AdobeXMPCore@@QEBA?AV?$shared_ptr@$$CBVINode_v1@AdobeXMPCore@@@std@@XZ 000000018000ae58 f i XMPMeta2-GetSet.obj
 0001:00009e58       ?Next@INodeIterator_v1@AdobeXMPCore@@QEBA?AV?$shared_ptr@$$CBVINodeIterator_v1@AdobeXMPCore@@@std@@XZ 000000018000ae58 f i XMPIterator2.obj
 0001:00009ed0       ??1?$map@V?$basic_string@DU?$char_traits@D@std@@V?$allocator@D@2@@std@@_NU?$less@V?$basic_string@DU?$char_traits@D@std@@V?$allocator@D@2@@std@@@2@V?$allocator@U?$pair@$$CBV?$basic_string@DU?$char_traits@D@std@@V?$allocator@D@2@@std@@_N@std@@@2@@std@@QEAA@XZ 000000018000aed0 f i XMPIterator2.obj
 0001:00009ed8       ??$?C$$CBVIUTF8String_v1@AdobeXMPCommon@@$0A@@?$shared_ptr@$$CBVIUTF8String_v1@AdobeXMPCommon@@@std@@QEBAPEBVIUTF8String_v1@AdobeXMPCommon@@XZ 000000018000aed8 f i XMPIterator2.obj
 0001:00009ed8       ??$?CVIArrayNode_v1@AdobeXMPCore@@$0A@@?$shared_ptr@VIArrayNode_v1@AdobeXMPCore@@@std@@QEBAPEAVIArrayNode_v1@AdobeXMPCore@@XZ 000000018000aed8 f i XMPMeta2-GetSet.obj
 0001:00009ed8       ??$?CVIError_I@AdobeXMPCore_Int@@$0A@@?$shared_ptr@VIError_I@AdobeXMPCore_Int@@@std@@QEBAPEAVIError_I@AdobeXMPCore_Int@@XZ 000000018000aed8 f i INodeIterator_I.obj
 0001:00009ed8       ??$?CVINode_v1@AdobeXMPCore@@$0A@@?$shared_ptr@VINode_v1@AdobeXMPCore@@@std@@QEBAPEAVINode_v1@AdobeXMPCore@@XZ 000000018000aed8 f i XMPIterator2.obj
 0001:00009ed8       ??$?CVISimpleNode_v1@AdobeXMPCore@@$0A@@?$shared_ptr@VISimpleNode_v1@AdobeXMPCore@@@std@@QEBAPEAVISimpleNode_v1@AdobeXMPCore@@XZ 000000018000aed8 f i XMPMeta2-GetSet.obj
 0001:00009ed8       ??$?CVIStructureNode_v1@AdobeXMPCore@@$0A@@?$shared_ptr@VIStructureNode_v1@AdobeXMPCore@@@std@@QEBAPEAVIStructureNode_v1@AdobeXMPCore@@XZ 000000018000aed8 f i XMPMeta2-GetSet.obj
 0001:00009edc       ??$?HDU?$char_traits@D@std@@V?$allocator@D@1@@std@@YA?AV?$basic_string@DU?$char_traits@D@std@@V?$allocator@D@2@@0@$$QEAV10@QEBD@Z 000000018000aedc f i XMPIterator2.obj
 0001:00009f54       ??1?$_Tree@V?$_Tmap_traits@V?$basic_string@DU?$char_traits@D@std@@V?$allocator@D@2@@std@@_NU?$less@V?$basic_string@DU?$char_traits@D@std@@V?$allocator@D@2@@std@@@2@V?$allocator@U?$pair@$$CBV?$basic_string@DU?$char_traits@D@std@@V?$allocator@D@2@@std@@_N@std@@@2@$0A@@std@@@std@@QEAA@XZ 000000018000af54 f i XMPIterator2.obj
 0001:00009fbc       ??A?$map@V?$basic_string@DU?$char_traits@D@std@@V?$allocator@D@2@@std@@_NU?$less@V?$basic_string@DU?$char_traits@D@std@@V?$allocator@D@2@@std@@@2@V?$allocator@U?$pair@$$CBV?$basic_string@DU?$char_traits@D@std@@V?$allocator@D@2@@std@@_N@std@@@2@@std@@QEAAAEA_N$$QEAV?$basic_string@DU?$char_traits@D@std@@V?$allocator@D@2@@1@@Z 000000018000afbc f i XMPIterator2.obj
 0001:0000a0fc       ??1?$shared_ptr@$$CBVIArrayNode_v1@AdobeXMPCore@@@std@@QEAA@XZ 000000018000b0fc f i XMPMeta2-GetSet.obj
 0001:0000a0fc       ??1?$shared_ptr@$$CBVIDOMParser_v1@AdobeXMPCore@@@std@@QEAA@XZ 000000018000b0fc f i IDOMImplementationRegistry_I.obj
 0001:0000a0fc       ??1?$shared_ptr@$$CBVIDOMSerializer_v1@AdobeXMPCore@@@std@@QEAA@XZ 000000018000b0fc f i IDOMImplementationRegistry_I.obj
 0001:0000a0fc       ??1?$shared_ptr@$$CBVIError_v1@AdobeXMPCommon@@@std@@QEAA@XZ 000000018000b0fc f i IArrayNode_I.obj
 0001:0000a0fc       ??1?$shared_ptr@$$CBVINameSpacePrefixMap_I@AdobeXMPCore_Int@@@std@@QEAA@XZ 000000018000b0fc f i MetadataConverterUtilsImpl.obj
 0001:0000a0fc       ??1?$shared_ptr@$$CBVINameSpacePrefixMap_v1@AdobeXMPCore@@@std@@QEAA@XZ 000000018000b0fc f i XMPIterator2.obj
 0001:0000a0fc       ??1?$shared_ptr@$$CBVINodeIterator_v1@AdobeXMPCore@@@std@@QEAA@XZ 000000018000b0fc f i XMPIterator2.obj
 0001:0000a0fc       ??1?$shared_ptr@$$CBVINode_v1@AdobeXMPCore@@@std@@QEAA@XZ 000000018000b0fc f i XMPIterator2.obj
 0001:0000a0fc       ??1?$shared_ptr@$$CBVIPathSegment_v1@AdobeXMPCore@@@std@@QEAA@XZ 000000018000b0fc f i IPath_I.obj
 0001:0000a0fc       ??1?$shared_ptr@$$CBVISimpleNode_v1@AdobeXMPCore@@@std@@QEAA@XZ 000000018000b0fc f i XMPIterator2.obj
 0001:0000a0fc       ??1?$shared_ptr@$$CBVIStructureNode_v1@AdobeXMPCore@@@std@@QEAA@XZ 000000018000b0fc f i XMPMeta2-GetSet.obj
 0001:0000a0fc       ??1?$shared_ptr@$$CBVIUTF8String_v1@AdobeXMPCommon@@@std@@QEAA@XZ 000000018000b0fc f i XMPIterator2.obj
 0001:0000a0fc       ??1?$shared_ptr@VIArrayNode_v1@AdobeXMPCore@@@std@@QEAA@XZ 000000018000b0fc f i XMPMeta2-GetSet.obj
 0001:0000a0fc       ??1?$shared_ptr@VIDOMImplementationRegistry_v1@AdobeXMPCore@@@std@@QEAA@XZ 000000018000b0fc f i XMPMeta2-GetSet.obj
 0001:0000a0fc       ??1?$shared_ptr@VIDOMParser_v1@AdobeXMPCore@@@std@@QEAA@XZ 000000018000b0fc f i XMPMeta2-GetSet.obj
 0001:0000a0fc       ??1?$shared_ptr@VIDOMSerializer_v1@AdobeXMPCore@@@std@@QEAA@XZ 000000018000b0fc f i XMPMeta2-GetSet.obj
 0001:0000a0fc       ??1?$shared_ptr@VIError_I@AdobeXMPCore_Int@@@std@@QEAA@XZ 000000018000b0fc f i IArrayNode_I.obj
 0001:0000a0fc       ??1?$shared_ptr@VIError_v1@AdobeXMPCommon@@@std@@QEAA@XZ 000000018000b0fc f i ClientDOMParserWrapperImpl.obj
 0001:0000a0fc       ??1?$shared_ptr@VIMetadata_v1@AdobeXMPCore@@@std@@QEAA@XZ 000000018000b0fc f i XMPIterator2.obj
 0001:0000a0fc       ??1?$shared_ptr@VINameSpacePrefixMap_I@AdobeXMPCore_Int@@@std@@QEAA@XZ 000000018000b0fc f i MetadataConverterUtilsImpl.obj
 0001:0000a0fc       ??1?$shared_ptr@VINameSpacePrefixMap_v1@AdobeXMPCore@@@std@@QEAA@XZ 000000018000b0fc f i IDOMSerializer_I.obj
 0001:0000a0fc       ??1?$shared_ptr@VINodeIterator_v1@AdobeXMPCore@@@std@@QEAA@XZ 000000018000b0fc f i XMPIterator2.obj
 0001:0000a0fc       ??1?$shared_ptr@VINode_v1@AdobeXMPCore@@@std@@QEAA@XZ 000000018000b0fc f i XMPIterator2.obj
 0001:0000a0fc       ??1?$shared_ptr@VIPath_v1@AdobeXMPCore@@@std@@QEAA@XZ 000000018000b0fc f i ICompositeNode_I.obj
 0001:0000a0fc       ??1?$shared_ptr@VISharedMutex@AdobeXMPCore_Int@@@std@@QEAA@XZ 000000018000b0fc f i ArrayNodeImpl.obj
 0001:0000a0fc       ??1?$shared_ptr@VISimpleNode_v1@AdobeXMPCore@@@std@@QEAA@XZ 000000018000b0fc f i XMPIterator2.obj
 0001:0000a0fc       ??1?$shared_ptr@VIStructureNode_v1@AdobeXMPCore@@@std@@QEAA@XZ 000000018000b0fc f i XMPMeta2-GetSet.obj
 0001:0000a0fc       ??1?$shared_ptr@VIUTF8String_v1@AdobeXMPCommon@@@std@@QEAA@XZ 000000018000b0fc f i XMPMeta2-GetSet.obj
 0001:0000a0fc       ??1?$shared_ptr@VMetadataImpl@AdobeXMPCore_Int@@@std@@QEAA@XZ 000000018000b0fc f i MetadataImpl.obj
 0001:0000a0fc       ??1?$shared_ptr@VRDFDOMParserImpl@AdobeXMPCore_Int@@@std@@QEAA@XZ 000000018000b0fc f i DOMImplementationRegistryImpl.obj
 0001:0000a0fc       ??1?$shared_ptr@VRDFDOMSerializerImpl@AdobeXMPCore_Int@@@std@@QEAA@XZ 000000018000b0fc f i DOMImplementationRegistryImpl.obj
 0001:0000a0fc       ??1?$shared_ptr@VUTF8StringImpl@AdobeXMPCore_Int@@@std@@QEAA@XZ 000000018000b0fc f i UTF8StringImpl.obj
 0001:0000a0fc       ??1?$shared_ptr@VXMPMeta@@@std@@QEAA@XZ 000000018000b0fc f i RDFDOMParserImpl.obj
 0001:0000a13c       ??4?$shared_ptr@$$CBVINodeIterator_v1@AdobeXMPCore@@@std@@QEAAAEAV01@$$QEAV01@@Z 000000018000b13c f i XMPIterator2.obj
 0001:0000a13c       ??4?$shared_ptr@$$CBVIUTF8String_v1@AdobeXMPCommon@@@std@@QEAAAEAV01@$$QEAV01@@Z 000000018000b13c f i XMPMeta2-GetSet.obj
 0001:0000a13c       ??4?$shared_ptr@VINodeIterator_v1@AdobeXMPCore@@@std@@QEAAAEAV01@$$QEAV01@@Z 000000018000b13c f i XMPIterator2.obj
 0001:0000a13c       ??4?$shared_ptr@VINode_v1@AdobeXMPCore@@@std@@QEAAAEAV01@$$QEAV01@@Z 000000018000b13c f i XMPMeta2-GetSet.obj
 0001:0000a1a8       ??$_Erase_tree@V?$allocator@U?$_Tree_node@U?$pair@$$CBV?$basic_string@DU?$char_traits@D@std@@V?$allocator@D@2@@std@@_N@std@@PEAX@std@@@std@@@?$_Tree_val@U?$_Tree_simple_types@U?$pair@$$CBV?$basic_string@DU?$char_traits@D@std@@V?$allocator@D@2@@std@@_N@std@@@std@@@std@@QEAAXAEAV?$allocator@U?$_Tree_node@U?$pair@$$CBV?$basic_string@DU?$char_traits@D@std@@V?$allocator@D@2@@std@@_N@std@@PEAX@std@@@1@PEAU?$_Tree_node@U?$pair@$$CBV?$basic_string@DU?$char_traits@D@std@@V?$allocator@D@2@@std@@_N@std@@PEAX@1@@Z 000000018000b1a8 f i XMPIterator2.obj
 0001:0000a214       ?_Insert_node@?$_Tree_val@U?$_Tree_simple_types@U?$pair@$$CBUQualifiedName@StructureNodeImpl@AdobeXMPCore_Int@@V?$shared_ptr@VINode_v1@AdobeXMPCore@@@std@@@std@@@std@@@std@@QEAAPEAU?$_Tree_node@U?$pair@$$CBUQualifiedName@StructureNodeImpl@AdobeXMPCore_Int@@V?$shared_ptr@VINode_v1@AdobeXMPCore@@@std@@@std@@PEAX@2@U?$_Tree_id@PEAU?$_Tree_node@U?$pair@$$CBUQualifiedName@StructureNodeImpl@AdobeXMPCore_Int@@V?$shared_ptr@VINode_v1@AdobeXMPCore@@@std@@@std@@PEAX@std@@@2@QEAU32@@Z 000000018000b214 f i StructureNodeImpl.obj
 0001:0000a214       ?_Insert_node@?$_Tree_val@U?$_Tree_simple_types@U?$pair@$$CBV?$basic_string@DU?$char_traits@D@std@@V?$allocator@D@2@@std@@V12@@std@@@std@@@std@@QEAAPEAU?$_Tree_node@U?$pair@$$CBV?$basic_string@DU?$char_traits@D@std@@V?$allocator@D@2@@std@@V12@@std@@PEAX@2@U?$_Tree_id@PEAU?$_Tree_node@U?$pair@$$CBV?$basic_string@DU?$char_traits@D@std@@V?$allocator@D@2@@std@@V12@@std@@PEAX@std@@@2@QEAU32@@Z 000000018000b214 f i XML_Node.obj
 0001:0000a214       ?_Insert_node@?$_Tree_val@U?$_Tree_simple_types@U?$pair@$$CBV?$basic_string@DU?$char_traits@D@std@@V?$allocator@D@2@@std@@V?$vector@VXPathStepInfo@@V?$allocator@VXPathStepInfo@@@std@@@2@@std@@@std@@@std@@QEAAPEAU?$_Tree_node@U?$pair@$$CBV?$basic_string@DU?$char_traits@D@std@@V?$allocator@D@2@@std@@V?$vector@VXPathStepInfo@@V?$allocator@VXPathStepInfo@@@std@@@2@@std@@PEAX@2@U?$_Tree_id@PEAU?$_Tree_node@U?$pair@$$CBV?$basic_string@DU?$char_traits@D@std@@V?$allocator@D@2@@std@@V?$vector@VXPathStepInfo@@V?$allocator@VXPathStepInfo@@@std@@@2@@std@@PEAX@std@@@2@QEAU32@@Z 000000018000b214 f i XMPMeta.obj
 0001:0000a214       ?_Insert_node@?$_Tree_val@U?$_Tree_simple_types@U?$pair@$$CBV?$basic_string@DU?$char_traits@D@std@@V?$allocator@D@2@@std@@_N@std@@@std@@@std@@QEAAPEAU?$_Tree_node@U?$pair@$$CBV?$basic_string@DU?$char_traits@D@std@@V?$allocator@D@2@@std@@_N@std@@PEAX@2@U?$_Tree_id@PEAU?$_Tree_node@U?$pair@$$CBV?$basic_string@DU?$char_traits@D@std@@V?$allocator@D@2@@std@@_N@std@@PEAX@std@@@2@QEAU32@@Z 000000018000b214 f i XMPIterator2.obj
 0001:0000a214       ?_Insert_node@?$_Tree_val@U?$_Tree_simple_types@U?$pair@$$CBV?$shared_ptr@$$CBVIUTF8String_v1@AdobeXMPCommon@@@std@@V12@@std@@@std@@@std@@QEAAPEAU?$_Tree_node@U?$pair@$$CBV?$shared_ptr@$$CBVIUTF8String_v1@AdobeXMPCommon@@@std@@V12@@std@@PEAX@2@U?$_Tree_id@PEAU?$_Tree_node@U?$pair@$$CBV?$shared_ptr@$$CBVIUTF8String_v1@AdobeXMPCommon@@@std@@V12@@std@@PEAX@std@@@2@QEAU32@@Z 000000018000b214 f i NameSpacePrefixMapImpl.obj
 0001:0000a214       ?_Insert_node@?$_Tree_val@U?$_Tree_simple_types@U?$pair@$$CBV?$shared_ptr@$$CBVIUTF8String_v1@AdobeXMPCommon@@@std@@V?$shared_ptr@$$CBVIDOMParser_v1@AdobeXMPCore@@@2@@std@@@std@@@std@@QEAAPEAU?$_Tree_node@U?$pair@$$CBV?$shared_ptr@$$CBVIUTF8String_v1@AdobeXMPCommon@@@std@@V?$shared_ptr@$$CBVIDOMParser_v1@AdobeXMPCore@@@2@@std@@PEAX@2@U?$_Tree_id@PEAU?$_Tree_node@U?$pair@$$CBV?$shared_ptr@$$CBVIUTF8String_v1@AdobeXMPCommon@@@std@@V?$shared_ptr@$$CBVIDOMParser_v1@AdobeXMPCore@@@2@@std@@PEAX@std@@@2@QEAU32@@Z 000000018000b214 f i DOMImplementationRegistryImpl.obj
 0001:0000a214       ?_Insert_node@?$_Tree_val@U?$_Tree_simple_types@U?$pair@$$CBV?$shared_ptr@$$CBVIUTF8String_v1@AdobeXMPCommon@@@std@@V?$shared_ptr@$$CBVIDOMSerializer_v1@AdobeXMPCore@@@2@@std@@@std@@@std@@QEAAPEAU?$_Tree_node@U?$pair@$$CBV?$shared_ptr@$$CBVIUTF8String_v1@AdobeXMPCommon@@@std@@V?$shared_ptr@$$CBVIDOMSerializer_v1@AdobeXMPCore@@@2@@std@@PEAX@2@U?$_Tree_id@PEAU?$_Tree_node@U?$pair@$$CBV?$shared_ptr@$$CBVIUTF8String_v1@AdobeXMPCommon@@@std@@V?$shared_ptr@$$CBVIDOMSerializer_v1@AdobeXMPCore@@@2@@std@@PEAX@std@@@2@QEAU32@@Z 000000018000b214 f i DOMImplementationRegistryImpl.obj
 0001:0000a214       ?_Insert_node@?$_Tree_val@U?$_Tree_simple_types@U?$pair@$$CB_KU?$pair@PEAV?$basic_string@DU?$char_traits@D@std@@V?$allocator@D@2@@std@@PEAV12@@std@@@std@@@std@@@std@@QEAAPEAU?$_Tree_node@U?$pair@$$CB_KU?$pair@PEAV?$basic_string@DU?$char_traits@D@std@@V?$allocator@D@2@@std@@PEAV12@@std@@@std@@PEAX@2@U?$_Tree_id@PEAU?$_Tree_node@U?$pair@$$CB_KU?$pair@PEAV?$basic_string@DU?$char_traits@D@std@@V?$allocator@D@2@@std@@PEAV12@@std@@@std@@PEAX@std@@@2@QEAU32@@Z 000000018000b214 f i XMPUtils.obj
 0001:0000a214       ?_Insert_node@?$_Tree_val@U?$_Tree_simple_types@U?$pair@$$CB_KU?$pair@PEBDPEBD@std@@@std@@@std@@@std@@QEAAPEAU?$_Tree_node@U?$pair@$$CB_KU?$pair@PEBDPEBD@std@@@std@@PEAX@2@U?$_Tree_id@PEAU?$_Tree_node@U?$pair@$$CB_KU?$pair@PEBDPEBD@std@@@std@@PEAX@std@@@2@QEAU32@@Z 000000018000b214 f i XMPUtils.obj
 0001:0000a214       ?_Insert_node@?$_Tree_val@U?$_Tree_simple_types@U?$pair@$$CB_KU?$pair@W4eDataType@IConfigurable@AdobeXMPCommon@@TCombinedDataValue@23@@std@@@std@@@std@@@std@@QEAAPEAU?$_Tree_node@U?$pair@$$CB_KU?$pair@W4eDataType@IConfigurable@AdobeXMPCommon@@TCombinedDataValue@23@@std@@@std@@PEAX@2@U?$_Tree_id@PEAU?$_Tree_node@U?$pair@$$CB_KU?$pair@W4eDataType@IConfigurable@AdobeXMPCommon@@TCombinedDataValue@23@@std@@@std@@PEAX@std@@@2@QEAU32@@Z 000000018000b214 f i DOMParserImpl.obj
 0001:0000a214       ?_Insert_node@?$_Tree_val@U?$_Tree_simple_types@U?$pair@$$CB_KW4eDataType@IConfigurable@AdobeXMPCommon@@@std@@@std@@@std@@QEAAPEAU?$_Tree_node@U?$pair@$$CB_KW4eDataType@IConfigurable@AdobeXMPCommon@@@std@@PEAX@2@U?$_Tree_id@PEAU?$_Tree_node@U?$pair@$$CB_KW4eDataType@IConfigurable@AdobeXMPCommon@@@std@@PEAX@std@@@2@QEAU32@@Z 000000018000b214 f i DOMParserImpl.obj
 0001:0000a214       ?_Insert_node@?$_Tree_val@U?$_Tree_simple_types@_K@std@@@std@@QEAAPEAU?$_Tree_node@_KPEAX@2@U?$_Tree_id@PEAU?$_Tree_node@_KPEAX@std@@@2@QEAU32@@Z 000000018000b214 f i DOMParserImpl.obj
 0001:0000a440       ??1?$_Alloc_construct_ptr@V?$allocator@U?$_Tree_node@U?$pair@$$CBV?$basic_string@DU?$char_traits@D@std@@V?$allocator@D@2@@std@@_N@std@@PEAX@std@@@std@@@std@@QEAA@XZ 000000018000b440 f i XMPIterator2.obj
 0001:0000a45c       ??$?MDU?$char_traits@D@std@@V?$allocator@D@1@@std@@YA_NAEBV?$basic_string@DU?$char_traits@D@std@@V?$allocator@D@2@@0@0@Z 000000018000b45c f i XMPIterator2.obj
 0001:0000a4b8       ?SetValue@XMP_Node@@QEAAXPEBD@Z 000000018000b4b8 f   XMPMeta-GetSet.obj
 0001:0000af70       ?GetProperty@XMPMeta@@UEBA_NPEBD0PEAPEBDPEAK2@Z 000000018000bf70 f   XMPMeta-GetSet.obj
 0001:0000b0ac       ?GetArrayItem@XMPMeta@@UEBA_NPEBD0JPEAPEBDPEAK2@Z 000000018000c0ac f   XMPMeta-GetSet.obj
 0001:0000b1d8       ?GetStructField@XMPMeta@@UEBA_NPEBD000PEAPEBDPEAK2@Z 000000018000c1d8 f   XMPMeta-GetSet.obj
 0001:0000b2f0       ?GetQualifier@XMPMeta@@UEBA_NPEBD000PEAPEBDPEAK2@Z 000000018000c2f0 f   XMPMeta-GetSet.obj
 0001:0000b408       ?SetProperty@XMPMeta@@UEAAXPEBD00K@Z 000000018000c408 f   XMPMeta-GetSet.obj
 0001:0000b56c       ?SetArrayItem@XMPMeta@@UEAAXPEBD0J0K@Z 000000018000c56c f   XMPMeta-GetSet.obj
 0001:0000b6ac       ?AppendArrayItem@XMPMeta@@UEAAXPEBD0K0K@Z 000000018000c6ac f   XMPMeta-GetSet.obj
 0001:0000b8c0       ?SetStructField@XMPMeta@@QEAAXPEBD0000K@Z 000000018000c8c0 f   XMPMeta-GetSet.obj
 0001:0000b9c0       ?SetQualifier@XMPMeta@@UEAAXPEBD0000K@Z 000000018000c9c0 f   XMPMeta-GetSet.obj
 0001:0000bbd4       ?DeleteProperty@XMPMeta@@UEAAXPEBD0@Z 000000018000cbd4 f   XMPMeta-GetSet.obj
 0001:0000bd98       ?DeleteArrayItem@XMPMeta@@UEAAXPEBD0J@Z 000000018000cd98 f   XMPMeta-GetSet.obj
 0001:0000be70       ?DeleteStructField@XMPMeta@@UEAAXPEBD000@Z 000000018000ce70 f   XMPMeta-GetSet.obj
 0001:0000bf54       ?DeleteQualifier@XMPMeta@@UEAAXPEBD000@Z 000000018000cf54 f   XMPMeta-GetSet.obj
 0001:0000c038       ?DoesPropertyExist@XMPMeta@@UEBA_NPEBD0@Z 000000018000d038 f   XMPMeta-GetSet.obj
 0001:0000c13c       ?DoesArrayItemExist@XMPMeta@@QEBA_NPEBD0J@Z 000000018000d13c f   XMPMeta-GetSet.obj
 0001:0000c218       ?DoesStructFieldExist@XMPMeta@@QEBA_NPEBD000@Z 000000018000d218 f   XMPMeta-GetSet.obj
 0001:0000c300       ?DoesQualifierExist@XMPMeta@@QEBA_NPEBD000@Z 000000018000d300 f   XMPMeta-GetSet.obj
 0001:0000c3e8       ?GetLocalizedText@XMPMeta@@UEBA_NPEBD000PEAPEBDPEAK122@Z 000000018000d3e8 f   XMPMeta-GetSet.obj
 0001:0000c6d4       ?SetLocalizedText@XMPMeta@@UEAAXPEBD0000K@Z 000000018000d6d4 f   XMPMeta-GetSet.obj
 0001:0000cb4c       ?DeleteLocalizedText@XMPMeta@@UEAAXPEBD000@Z 000000018000db4c f   XMPMeta-GetSet.obj
 0001:0000d110       ?GetProperty_Int64@XMPMeta@@QEBA_NPEBD0PEA_JPEAK@Z 000000018000e110 f   XMPMeta-GetSet.obj
 0001:0000d240       ?GetProperty_Float@XMPMeta@@QEBA_NPEBD0PEANPEAK@Z 000000018000e240 f   XMPMeta-GetSet.obj
 0001:0000d370       ?SetProperty_Bool@XMPMeta@@QEAAXPEBD0_NK@Z 000000018000e370 f   XMPMeta-GetSet.obj
 0001:0000d450       ?SetProperty_Int@XMPMeta@@QEAAXPEBD0JK@Z 000000018000e450 f   XMPMeta-GetSet.obj
 0001:0000d538       ?SetProperty_Int64@XMPMeta@@QEAAXPEBD0_JK@Z 000000018000e538 f   XMPMeta-GetSet.obj
 0001:0000d620       ?SetProperty_Float@XMPMeta@@QEAAXPEBD0NK@Z 000000018000e620 f   XMPMeta-GetSet.obj
 0001:0000d708       ?SetProperty_Date@XMPMeta@@QEAAXPEBD0AEBUXMP_DateTime@@K@Z 000000018000e708 f   XMPMeta-GetSet.obj
 0001:0000d7e8       ??$?9DU?$char_traits@D@std@@V?$allocator@D@1@@std@@YA_NAEBV?$basic_string@DU?$char_traits@D@std@@V?$allocator@D@2@@0@QEBD@Z 000000018000e7e8 f i XMPMeta-GetSet.obj
 0001:0000d830       ??$?8DU?$char_traits@D@std@@V?$allocator@D@1@@std@@YA_NAEBV?$basic_string@DU?$char_traits@D@std@@V?$allocator@D@2@@0@0@Z 000000018000e830 f i XMPMeta-GetSet.obj
 0001:0000d878       ??$?9DU?$char_traits@D@std@@V?$allocator@D@1@@std@@YA_NAEBV?$basic_string@DU?$char_traits@D@std@@V?$allocator@D@2@@0@0@Z 000000018000e878 f i XMPMeta-GetSet.obj
 0001:0000d8c4       ?insert@?$vector@PEAVXMP_Node@@V?$allocator@PEAVXMP_Node@@@std@@@std@@QEAA?AV?$_Vector_iterator@V?$_Vector_val@U?$_Simple_types@PEAVXMP_Node@@@std@@@std@@@2@V?$_Vector_const_iterator@V?$_Vector_val@U?$_Simple_types@PEAVXMP_Node@@@std@@@std@@@2@AEBQEAVXMP_Node@@@Z 000000018000e8c4 f i XMPMeta-GetSet.obj
 0001:0000d944       ?swap@?$basic_string@DU?$char_traits@D@std@@V?$allocator@D@2@@std@@QEAAXAEAV12@@Z 000000018000e944 f i XMPMeta-GetSet.obj
 0001:0000d9c0       ??$_Emplace_reallocate@AEBQEAVXML_Node@@@?$vector@PEAVXML_Node@@V?$allocator@PEAVXML_Node@@@std@@@std@@AEAAPEAPEAVXML_Node@@QEAPEAV2@AEBQEAV2@@Z 000000018000e9c0 f i ExpatAdapter.obj
 0001:0000d9c0       ??$_Emplace_reallocate@AEBQEAVXMP_Node@@@?$vector@PEAVXMP_Node@@V?$allocator@PEAVXMP_Node@@@std@@@std@@AEAAPEAPEAVXMP_Node@@QEAPEAV2@AEBQEAV2@@Z 000000018000e9c0 f i XMPMeta-GetSet.obj
 0001:0000d9c0       ??$_Emplace_reallocate@AEB_K@?$vector@_KV?$allocator@_K@std@@@std@@AEAAPEA_KQEA_KAEB_K@Z 000000018000e9c0 f i ConfigurableImpl.obj
 0001:0000d9c0       ??$_Emplace_reallocate@PEAVXML_Node@@@?$vector@PEAVXML_Node@@V?$allocator@PEAVXML_Node@@@std@@@std@@AEAAPEAPEAVXML_Node@@QEAPEAV2@$$QEAPEAV2@@Z 000000018000e9c0 f i ExpatAdapter.obj
 0001:0000dad4       ?_Change_array@?$vector@PEAVXML_Node@@V?$allocator@PEAVXML_Node@@@std@@@std@@AEAAXQEAPEAVXML_Node@@_K1@Z 000000018000ead4 f i ExpatAdapter.obj
 0001:0000dad4       ?_Change_array@?$vector@PEAVXMP_Node@@V?$allocator@PEAVXMP_Node@@@std@@@std@@AEAAXQEAPEAVXMP_Node@@_K1@Z 000000018000ead4 f i XMPMeta-GetSet.obj
 0001:0000dad4       ?_Change_array@?$vector@_KV?$allocator@_K@std@@@std@@AEAAXQEA_K_K1@Z 000000018000ead4 f i ConfigurableImpl.obj
 0001:0000db70       ?NotifyClient@GenericErrorCallback@@QEBAXEAEAVXMP_Error@@PEBD@Z 000000018000eb70 f i XMPMeta-Parse.obj
 0001:0000dc44       ??0XMP_Node@@QEAA@PEAV0@PEBD1K@Z 000000018000ec44 f i XMPMeta-Parse.obj
 0001:0000dd04       ?ClearNode@XMP_Node@@QEAAXXZ 000000018000ed04 f i XMPMeta-Parse.obj
 0001:0000df74       ?NormalizeDCArrays@@YAXPEAVXMP_Node@@@Z 000000018000ef74 f   XMPMeta-Parse.obj
 0001:0000e6cc       ?MoveExplicitAliases@@YAXPEAVXMP_Node@@KAEAVErrorCallbackInfo@XMPMeta@@@Z 000000018000f6cc f   XMPMeta-Parse.obj
 0001:0000efb8       ?TouchUpDataModel@@YAXPEAVXMPMeta@@AEAVErrorCallbackInfo@1@@Z 000000018000ffb8 f   XMPMeta-Parse.obj
 0001:0000f830       ?ProcessXMLBuffer@XMPMeta@@AEAA_NPEBDK_N@Z 0000000180010830 f   XMPMeta-Parse.obj
 0001:0000fa80       ?ProcessXMLTree@XMPMeta@@AEAAXK@Z 0000000180010a80 f   XMPMeta-Parse.obj
 0001:0000fc54       ?ParseFromBuffer@XMPMeta@@UEAAXPEBDKK@Z 0000000180010c54 f   XMPMeta-Parse.obj
 0001:0000fd70       ?find@?$_Tree@V?$_Tmap_traits@V?$basic_string@DU?$char_traits@D@std@@V?$allocator@D@2@@std@@V?$vector@VXPathStepInfo@@V?$allocator@VXPathStepInfo@@@std@@@2@U?$less@V?$basic_string@DU?$char_traits@D@std@@V?$allocator@D@2@@std@@@2@V?$allocator@U?$pair@$$CBV?$basic_string@DU?$char_traits@D@std@@V?$allocator@D@2@@std@@V?$vector@VXPathStepInfo@@V?$allocator@VXPathStepInfo@@@std@@@2@@std@@@2@$0A@@std@@@std@@QEAA?AV?$_Tree_iterator@V?$_Tree_val@U?$_Tree_simple_types@U?$pair@$$CBV?$basic_string@DU?$char_traits@D@std@@V?$allocator@D@2@@std@@V?$vector@VXPathStepInfo@@V?$allocator@VXPathStepInfo@@@std@@@2@@std@@@std@@@std@@@2@AEBV?$basic_string@DU?$char_traits@D@std@@V?$allocator@D@2@@2@@Z 0000000180010d70 f i XMPMeta-Parse.obj
 0001:0000fe08       ?replace@?$basic_string@DU?$char_traits@D@std@@V?$allocator@D@2@@std@@QEAAAEAV12@_K0AEBV12@@Z 0000000180010e08 f i XMPMeta-Parse.obj
 0001:0000ffa4       ?insert@?$basic_string@DU?$char_traits@D@std@@V?$allocator@D@2@@std@@QEAAAEAV12@_KQEBD@Z 0000000180010fa4 f i XMPMeta-Parse.obj
 0001:00010088       ??$_Reallocate_grow_by@V<lambda_55b0f89b53a0342680e40398a0d39887>@@_K_KPEBD_K@?$basic_string@DU?$char_traits@D@std@@V?$allocator@D@2@@std@@AEAAAEAV01@_KV<lambda_55b0f89b53a0342680e40398a0d39887>@@_K2PEBD2@Z 0000000180011088 f i XMPMeta-Parse.obj
 0001:00010220       ??$_Reallocate_grow_by@V<lambda_f3a66ab6a0570788f31503db83886f49>@@_KPEBD_K@?$basic_string@DU?$char_traits@D@std@@V?$allocator@D@2@@std@@AEAAAEAV01@_KV<lambda_f3a66ab6a0570788f31503db83886f49>@@_KPEBD2@Z 0000000180011220 f i XMPMeta-Parse.obj
 0001:00012ed8       ?SerializeToBuffer@XMPMeta@@UEBAXPEAV?$basic_string@DU?$char_traits@D@std@@V?$allocator@D@2@@std@@KKPEBD1J@Z 0000000180013ed8 f   XMPMeta-Serialize.obj
 0001:00013858       ??$?HDU?$char_traits@D@std@@V?$allocator@D@1@@std@@YA?AV?$basic_string@DU?$char_traits@D@std@@V?$allocator@D@2@@0@AEBV10@QEBD@Z 0000000180014858 f i XMPMeta-Serialize.obj
 0001:00013954       ?substr@?$basic_string@DU?$char_traits@D@std@@V?$allocator@D@2@@std@@QEBA?AV12@_K0@Z 0000000180014954 f i XMPMeta-Serialize.obj
 0001:000139a8       ?find@?$basic_string@DU?$char_traits@D@std@@V?$allocator@D@2@@std@@QEBA_KD_K@Z 00000001800149a8 f i XMPMeta-Serialize.obj
 0001:000139f4       ?reserve@?$basic_string@DU?$char_traits@D@std@@V?$allocator@D@2@@std@@QEAAX_K@Z 00000001800149f4 f i XMPMeta-Serialize.obj
 0001:00013aa4       ?append@?$basic_string@DU?$char_traits@D@std@@V?$allocator@D@2@@std@@QEAAAEAV12@_KD@Z 0000000180014aa4 f i XMPMeta-Serialize.obj
 0001:00013b1c       ??$_Reallocate_grow_by@V<lambda_9013ee9e23efe4882b67eff5b0ecf103>@@$$V@?$basic_string@DU?$char_traits@D@std@@V?$allocator@D@2@@std@@AEAAAEAV01@_KV<lambda_9013ee9e23efe4882b67eff5b0ecf103>@@@Z 0000000180014b1c f i XMPMeta-Serialize.obj
 0001:00013c2c       ??$_Reallocate_grow_by@V<lambda_e1befb086ad3257e3f042a63030725f7>@@_KD@?$basic_string@DU?$char_traits@D@std@@V?$allocator@D@2@@std@@AEAAAEAV01@_KV<lambda_e1befb086ad3257e3f042a63030725f7>@@_KD@Z 0000000180014c2c f i XMPMeta-Serialize.obj
 0001:00013d7c       ??_EGenericErrorCallback@@UEAAPEAXI@Z 0000000180014d7c f i * CIL library *:* CIL module *
 0001:00013d7c       ??_GGenericErrorCallback@@UEAAPEAXI@Z 0000000180014d7c f i XMPMeta.obj
 0001:00013da8       ??1XMP_NamespaceTable@@UEAA@XZ 0000000180014da8 f i XMPMeta.obj
 0001:00013e18       ??_EXMP_NamespaceTable@@UEAAPEAXI@Z 0000000180014e18 f i * CIL library *:* CIL module *
 0001:00013e18       ??_GXMP_NamespaceTable@@UEAAPEAXI@Z 0000000180014e18 f i XMPMeta.obj
 0001:00013e4c       ??1?$map@V?$basic_string@DU?$char_traits@D@std@@V?$allocator@D@2@@std@@V12@U?$less@V?$basic_string@DU?$char_traits@D@std@@V?$allocator@D@2@@std@@@2@V?$allocator@U?$pair@$$CBV?$basic_string@DU?$char_traits@D@std@@V?$allocator@D@2@@std@@V12@@std@@@2@@std@@QEAA@XZ 0000000180014e4c f i XMPMeta.obj
 0001:00013e78       ??_EErrorCallbackInfo@XMPMeta@@UEAAPEAXI@Z 0000000180014e78 f i * CIL library *:* CIL module *
 0001:00013e78       ??_GErrorCallbackInfo@XMPMeta@@UEAAPEAXI@Z 0000000180014e78 f i XMPMeta.obj
 0001:00013ea4       ??_EXMPMeta@@UEAAPEAXI@Z   0000000180014ea4 f i * CIL library *:* CIL module *
 0001:00013ea4       ??_GXMPMeta@@UEAAPEAXI@Z   0000000180014ea4 f i XMPMeta.obj
 0001:00013ed8       ?DumpNodeOptions@@YAXKP6AJPEAXPEBDK@Z0@Z 0000000180014ed8 f   XMPMeta.obj
 0001:000150bc       ??1?$pair@$$CBV?$basic_string@DU?$char_traits@D@std@@V?$allocator@D@2@@std@@V?$vector@VXPathStepInfo@@V?$allocator@VXPathStepInfo@@@std@@@2@@std@@QEAA@XZ 00000001800160bc f i XMPMeta.obj
 0001:000155c4       ??0XMPMeta@@QEAA@XZ        00000001800165c4 f   XMPMeta.obj
 0001:00015698       ??1XMPMeta@@UEAA@XZ        0000000180016698 f   XMPMeta.obj
 0001:000156f4       ?Initialize@XMPMeta@@SA_NXZ 00000001800166f4 f   XMPMeta.obj
 0001:00015f2c       ?Terminate@XMPMeta@@SAXXZ  0000000180016f2c f   XMPMeta.obj
 0001:00016130       ?SetGlobalOptions@XMPMeta@@SAXK@Z 0000000180017130 f   XMPMeta.obj
 0001:0001615c       ?RegisterNamespace@XMPMeta@@SA_NPEBD0PEAPEBDPEAK@Z 000000018001715c f   XMPMeta.obj
 0001:0001638c       ?DeleteNamespace@XMPMeta@@SAXPEBD@Z 000000018001738c f   XMPMeta.obj
 0001:000163b8       ?DumpObject@XMPMeta@@UEBAXP6AJPEAXPEBDK@Z0@Z 00000001800173b8 f   XMPMeta.obj
 0001:0001675c       ?CountArrayItems@XMPMeta@@UEBAJPEBD0@Z 000000018001775c f   XMPMeta.obj
 0001:00016920       ?GetObjectName@XMPMeta@@UEBAXPEAPEBDPEAK@Z 0000000180017920 f   XMPMeta.obj
 0001:00016940       ?SetObjectName@XMPMeta@@UEAAXPEBD@Z 0000000180017940 f   XMPMeta.obj
 0001:000169b4       ?SetObjectOptions@XMPMeta@@QEAAXK@Z 00000001800179b4 f   XMPMeta.obj
 0001:000169e0       ?Sort@XMPMeta@@UEAAXXZ     00000001800179e0 f   XMPMeta.obj
 0001:00016a5c       ?Erase@XMPMeta@@UEAAXXZ    0000000180017a5c f   XMPMeta.obj
 0001:00016a94       ?Clone@XMPMeta@@UEBAXPEAV1@K@Z 0000000180017a94 f   XMPMeta.obj
 0001:00016bb8       ?GetLocalURI@XMP_Node@@QEBAXPEAPEBDPEAK@Z 0000000180017bb8 f   XMPMeta.obj
 0001:00016d30       ?GetFullQualifiedName@XMP_Node@@QEBAXPEAPEBDPEAK01@Z 0000000180017d30 f   XMPMeta.obj
 0001:00016f18       ?SetErrorCallback@XMPMeta@@UEAAXP6AEP6A_NPEAXEJPEBD@Z0EJ1@Z20K@Z 0000000180017f18 f   XMPMeta.obj
 0001:00016f4c       ?ResetErrorCallbackLimit@XMPMeta@@UEAAXK@Z 0000000180017f4c f   XMPMeta.obj
 0001:00016f64       ?CanNotify@ErrorCallbackInfo@XMPMeta@@UEBA_NXZ 0000000180017f64 f   XMPMeta.obj
 0001:00016f70       ?ClientCallbackWrapper@ErrorCallbackInfo@XMPMeta@@UEBA_NPEBDEJ0@Z 0000000180017f70 f   XMPMeta.obj
 0001:00016f98       ??$stable_sort@V?$_Vector_iterator@V?$_Vector_val@U?$_Simple_types@PEAVXMP_Node@@@std@@@std@@@std@@P6A_NPEAVXMP_Node@@0@Z@std@@YAXV?$_Vector_iterator@V?$_Vector_val@U?$_Simple_types@PEAVXMP_Node@@@std@@@std@@@0@0P6A_NPEAVXMP_Node@@1@Z@Z 0000000180017f98 f i XMPMeta.obj
 0001:000170f0       ??1?$_Tree@V?$_Tmap_traits@V?$basic_string@DU?$char_traits@D@std@@V?$allocator@D@2@@std@@V?$vector@VXPathStepInfo@@V?$allocator@VXPathStepInfo@@@std@@@2@U?$less@V?$basic_string@DU?$char_traits@D@std@@V?$allocator@D@2@@std@@@2@V?$allocator@U?$pair@$$CBV?$basic_string@DU?$char_traits@D@std@@V?$allocator@D@2@@std@@V?$vector@VXPathStepInfo@@V?$allocator@VXPathStepInfo@@@std@@@2@@std@@@2@$0A@@std@@@std@@QEAA@XZ 00000001800180f0 f i XMPMeta.obj
 0001:00017170       ?push_back@?$vector@VXPathStepInfo@@V?$allocator@VXPathStepInfo@@@std@@@std@@QEAAX$$QEAVXPathStepInfo@@@Z 0000000180018170 f i XMPMeta.obj
 0001:000171f0       ??$_Sort_unchecked@PEAPEAVXMP_Node@@P6A_NPEAV1@0@Z@std@@YAXPEAPEAVXMP_Node@@0_JP6A_NPEAV1@2@Z@Z 00000001800181f0 f i XMPMeta.obj
 0001:00017350       ??$_Insertion_sort_unchecked@PEAPEAVXMP_Node@@P6A_NPEAV1@0@Z@std@@YAPEAPEAVXMP_Node@@QEAPEAV1@0P6A_NPEAV1@1@Z@Z 0000000180018350 f i XMPMeta.obj
 0001:00017400       ??$_Stable_sort_unchecked@PEAPEAVXMP_Node@@P6A_NPEAV1@0@Z@std@@YAXQEAPEAVXMP_Node@@0_J01P6A_NPEAV1@2@Z@Z 0000000180018400 f i XMPMeta.obj
 0001:000174f8       ??$_Assign_counted_range@PEAVXPathStepInfo@@@?$vector@VXPathStepInfo@@V?$allocator@VXPathStepInfo@@@std@@@std@@AEAAXPEAVXPathStepInfo@@_K@Z 00000001800184f8 f i XMPMeta.obj
 0001:00017664       ??1?$_Optimistic_temporary_buffer@PEAVXMP_Node@@@std@@QEAA@XZ 0000000180018664 f i XMPMeta.obj
 0001:00017680       ??$_Partition_by_median_guess_unchecked@PEAPEAVXMP_Node@@P6A_NPEAV1@0@Z@std@@YA?AU?$pair@PEAPEAVXMP_Node@@PEAPEAV1@@0@PEAPEAVXMP_Node@@0P6A_NPEAV2@1@Z@Z 0000000180018680 f i XMPMeta.obj
 0001:000178a8       ??$_Buffered_merge_sort_unchecked@PEAPEAVXMP_Node@@P6A_NPEAV1@0@Z@std@@YAXQEAPEAVXMP_Node@@0_J0P6A_NPEAV1@2@Z@Z 00000001800188a8 f i XMPMeta.obj
 0001:000179cc       ??$_Buffered_inplace_merge_unchecked@PEAPEAVXMP_Node@@P6A_NPEAV1@0@Z@std@@YAXPEAPEAVXMP_Node@@00_J1QEAPEAV1@_JP6A_NPEAV1@4@Z@Z 00000001800189cc f i XMPMeta.obj
 0001:00017b2c       ??$_Erase_tree@V?$allocator@U?$_Tree_node@U?$pair@$$CBV?$basic_string@DU?$char_traits@D@std@@V?$allocator@D@2@@std@@V?$vector@VXPathStepInfo@@V?$allocator@VXPathStepInfo@@@std@@@2@@std@@PEAX@std@@@std@@@?$_Tree_val@U?$_Tree_simple_types@U?$pair@$$CBV?$basic_string@DU?$char_traits@D@std@@V?$allocator@D@2@@std@@V?$vector@VXPathStepInfo@@V?$allocator@VXPathStepInfo@@@std@@@2@@std@@@std@@@std@@QEAAXAEAV?$allocator@U?$_Tree_node@U?$pair@$$CBV?$basic_string@DU?$char_traits@D@std@@V?$allocator@D@2@@std@@V?$vector@VXPathStepInfo@@V?$allocator@VXPathStepInfo@@@std@@@2@@std@@PEAX@std@@@1@PEAU?$_Tree_node@U?$pair@$$CBV?$basic_string@DU?$char_traits@D@std@@V?$allocator@D@2@@std@@V?$vector@VXPathStepInfo@@V?$allocator@VXPathStepInfo@@@std@@@2@@std@@PEAX@1@@Z 0000000180018b2c f i XMPMeta.obj
 0001:00017bac       ??$_Emplace_reallocate@VXPathStepInfo@@@?$vector@VXPathStepInfo@@V?$allocator@VXPathStepInfo@@@std@@@std@@AEAAPEAVXPathStepInfo@@QEAV2@$$QEAV2@@Z 0000000180018bac f i XMPMeta.obj
 0001:00017d58       ??$_Erase_tree@V?$allocator@U?$_Tree_node@U?$pair@$$CBV?$basic_string@DU?$char_traits@D@std@@V?$allocator@D@2@@std@@V12@@std@@PEAX@std@@@std@@@?$_Tree_val@U?$_Tree_simple_types@U?$pair@$$CBV?$basic_string@DU?$char_traits@D@std@@V?$allocator@D@2@@std@@V12@@std@@@std@@@std@@QEAAXAEAV?$allocator@U?$_Tree_node@U?$pair@$$CBV?$basic_string@DU?$char_traits@D@std@@V?$allocator@D@2@@std@@V12@@std@@PEAX@std@@@1@PEAU?$_Tree_node@U?$pair@$$CBV?$basic_string@DU?$char_traits@D@std@@V?$allocator@D@2@@std@@V12@@std@@PEAX@1@@Z 0000000180018d58 f i XMPMeta.obj
 0001:00017d58       ??$_Erase_tree_and_orphan@V?$allocator@U?$_Tree_node@U?$pair@$$CBV?$basic_string@DU?$char_traits@D@std@@V?$allocator@D@2@@std@@V12@@std@@PEAX@std@@@std@@@?$_Tree_val@U?$_Tree_simple_types@U?$pair@$$CBV?$basic_string@DU?$char_traits@D@std@@V?$allocator@D@2@@std@@V12@@std@@@std@@@std@@QEAAXAEAV?$allocator@U?$_Tree_node@U?$pair@$$CBV?$basic_string@DU?$char_traits@D@std@@V?$allocator@D@2@@std@@V12@@std@@PEAX@std@@@1@PEAU?$_Tree_node@U?$pair@$$CBV?$basic_string@DU?$char_traits@D@std@@V?$allocator@D@2@@std@@V12@@std@@PEAX@1@@Z 0000000180018d58 f i XMP_LibUtils.obj
 0001:00017dd8       ?_Clear_and_reserve_geometric@?$vector@VXPathStepInfo@@V?$allocator@VXPathStepInfo@@@std@@@std@@AEAAX_K@Z 0000000180018dd8 f i XMPMeta.obj
 0001:00017f1c       ??1?$_Alloc_construct_ptr@V?$allocator@U?$_Tree_node@U?$pair@$$CBV?$basic_string@DU?$char_traits@D@std@@V?$allocator@D@2@@std@@V?$vector@VXPathStepInfo@@V?$allocator@VXPathStepInfo@@@std@@@2@@std@@PEAX@std@@@std@@@std@@QEAA@XZ 0000000180018f1c f i XMPMeta.obj
 0001:00017f1c       ??1?$_Tree_temp_node_alloc@V?$allocator@U?$_Tree_node@U?$pair@$$CBV?$basic_string@DU?$char_traits@D@std@@V?$allocator@D@2@@std@@V?$vector@VXPathStepInfo@@V?$allocator@VXPathStepInfo@@@std@@@2@@std@@PEAX@std@@@std@@@std@@QEAA@XZ 0000000180018f1c f i XMPMeta.obj
 0001:00017f38       ??$_Pop_heap_hole_by_index@PEAPEAVXMP_Node@@PEAV1@P6A_NPEAV1@0@Z@std@@YAXPEAPEAVXMP_Node@@_J1$$QEAPEAV1@P6A_NPEAV1@3@Z@Z 0000000180018f38 f i XMPMeta.obj
 0001:0001800c       ??$_Uninitialized_chunked_merge_unchecked2@PEAPEAVXMP_Node@@PEAV1@P6A_NPEAV1@0@Z@std@@YAXPEAPEAVXMP_Node@@QEAPEAV1@0_JP6A_NPEAV1@3@Z@Z 000000018001900c f i XMPMeta.obj
 0001:000180e0       ??$_Chunked_merge_unchecked@PEAPEAVXMP_Node@@PEAPEAV1@P6A_NPEAV1@0@Z@std@@YAXPEAPEAVXMP_Node@@QEAPEAV1@0_J_JP6A_NPEAV1@4@Z@Z 00000001800190e0 f i XMPMeta.obj
 0001:000181e8       ??$_Uninitialized_move@PEAVXPathStepInfo@@V?$allocator@VXPathStepInfo@@@std@@@std@@YAPEAVXPathStepInfo@@QEAV1@0PEAV1@AEAV?$allocator@VXPathStepInfo@@@0@@Z 00000001800191e8 f i XMPMeta.obj
 0001:0001828c       ??1?$_Uninitialized_backout_al@V?$allocator@VXPathStepInfo@@@std@@@std@@QEAA@XZ 000000018001928c f i XMPMeta.obj
 0001:000182bc       ??1_Reallocation_guard@?$vector@VXPathStepInfo@@V?$allocator@VXPathStepInfo@@@std@@@std@@QEAA@XZ 00000001800192bc f i XMPMeta.obj
 0001:00018350       ??1?$_Tidy_guard@V?$vector@VXPathStepInfo@@V?$allocator@VXPathStepInfo@@@std@@@std@@@std@@QEAA@XZ 0000000180019350 f i XMPMeta.obj
 0001:00018368       ?_Change_array@?$vector@VXPathStepInfo@@V?$allocator@VXPathStepInfo@@@std@@@std@@AEAAXQEAVXPathStepInfo@@_K1@Z 0000000180019368 f i XMPMeta.obj
 0001:00018448       ??$_Med3_unchecked@PEAPEAVXMP_Node@@P6A_NPEAV1@0@Z@std@@YAXPEAPEAVXMP_Node@@00P6A_NPEAV1@1@Z@Z 0000000180019448 f i XMPMeta.obj
 0001:000184c4       ??$_Uninitialized_move_unchecked@PEAPEAVXMP_Node@@PEAPEAV1@@std@@YAPEAPEAVXMP_Node@@PEAPEAV1@QEAPEAV1@0@Z 00000001800194c4 f i XMPMeta.obj
 0001:000184f8       ??$_Inplace_merge_buffer_left@PEAPEAVXMP_Node@@P6A_NPEAV1@0@Z@std@@YAXPEAPEAVXMP_Node@@00QEAPEAV1@P6A_NPEAV1@2@Z@Z 00000001800194f8 f i XMPMeta.obj
 0001:000185c0       ??$_Inplace_merge_buffer_right@PEAPEAVXMP_Node@@P6A_NPEAV1@0@Z@std@@YAXPEAPEAVXMP_Node@@00QEAPEAV1@P6A_NPEAV1@2@Z@Z 00000001800195c0 f i XMPMeta.obj
 0001:00018698       ??$_Buffered_inplace_merge_divide_and_conquer@PEAPEAVXMP_Node@@P6A_NPEAV1@0@Z@std@@YAXPEAPEAVXMP_Node@@00_J1QEAPEAV1@_JP6A_NPEAV1@4@Z@Z 0000000180019698 f i XMPMeta.obj
 0001:00018844       ??$_Buffered_inplace_merge_divide_and_conquer2@PEAPEAVXMP_Node@@P6A_NPEAV1@0@Z@std@@YAXPEAPEAVXMP_Node@@00_J1QEAPEAV1@_JP6A_NPEAV1@4@Z0011@Z 0000000180019844 f i XMPMeta.obj
 0001:00018a18       ??_EXMPMeta2@@UEAAPEAXI@Z  0000000180019a18 f i * CIL library *:* CIL module *
 0001:00018a18       ??_GXMPMeta2@@UEAAPEAXI@Z  0000000180019a18 f i XMPMeta2-GetSet.obj
 0001:00018a4c       ?QualifiersIterator@INode_v1@AdobeXMPCore@@QEBA?AV?$shared_ptr@$$CBVINodeIterator_v1@AdobeXMPCore@@@std@@XZ 0000000180019a4c f i XMPMeta2-GetSet.obj
 0001:00018ac4       ?ConvertToStructureNode@INode_v1@AdobeXMPCore@@QEBA?AV?$shared_ptr@$$CBVIStructureNode_v1@AdobeXMPCore@@@std@@XZ 0000000180019ac4 f i XMPMeta2-GetSet.obj
 0001:00018b40       ?ConvertToArrayNode@INode_v1@AdobeXMPCore@@QEBA?AV?$shared_ptr@$$CBVIArrayNode_v1@AdobeXMPCore@@@std@@XZ 0000000180019b40 f i XMPMeta2-GetSet.obj
 0001:00018bbc       ?Iterator@ICompositeNode_v1@AdobeXMPCore@@QEBA?AV?$shared_ptr@$$CBVINodeIterator_v1@AdobeXMPCore@@@std@@XZ 0000000180019bbc f i XMPMeta2-GetSet.obj
 0001:000191f8       ??0XMPMeta2@@QEAA@XZ       000000018001a1f8 f   XMPMeta2-GetSet.obj
 0001:00019400       ??1XMPMeta2@@UEAA@XZ       000000018001a400 f   XMPMeta2-GetSet.obj
 0001:00019504       ?GetProperty@XMPMeta2@@UEBA_NPEBD0PEAPEBDPEAK2@Z 000000018001a504 f   XMPMeta2-GetSet.obj
 0001:0001b434       ?CountArrayItems@XMPMeta2@@UEBAJPEBD0@Z 000000018001c434 f   XMPMeta2-GetSet.obj
 0001:0001b6c4       ?ParseFromBuffer@XMPMeta2@@UEAAXPEBDKK@Z 000000018001c6c4 f   XMPMeta2-GetSet.obj
 0001:0001b918       ?SerializeToBuffer@XMPMeta2@@UEBAXPEAV?$basic_string@DU?$char_traits@D@std@@V?$allocator@D@2@@std@@KKPEBD1J@Z 000000018001c918 f   XMPMeta2-GetSet.obj
 0001:0001bb54       ?Acquire@IErrorProxy@AdobeXMPCommon@@UEBAXXZ 000000018001cb54 f   IError.obj
 0001:0001bb54       ?Acquire@IUTF8StringProxy@AdobeXMPCommon@@UEBAXXZ 000000018001cb54 f   IUTF8String.obj
 0001:0001bb54       ?Release@IErrorProxy@AdobeXMPCommon@@UEBAXXZ 000000018001cb54 f   IError.obj
 0001:0001bb54       ?Release@IUTF8StringProxy@AdobeXMPCommon@@UEBAXXZ 000000018001cb54 f   IUTF8String.obj
 0001:0001bb54       ?SetName@MetadataImpl@AdobeXMPCore_Int@@MEAAXPEBD_K@Z 000000018001cb54 f   MetadataImpl.obj
 0001:0001bb54       ?SetNameSpace@MetadataImpl@AdobeXMPCore_Int@@MEAAXPEBD_K@Z 000000018001cb54 f   MetadataImpl.obj
 0001:0001bb54       ?Sort@XMPMeta2@@UEAAXXZ    000000018001cb54 f   XMPMeta2-GetSet.obj
 0001:0001bb54       ?__empty_global_delete@@YAXPEAX_K@Z 000000018001cb54 f   ArrayNodeImpl.obj
 0001:0001bb54       ?__global_delete@@YAXPEAX_K@Z 000000018001cb54 f   * CIL library *:* CIL module *
 0001:0001bb54       ?resetChangesForChildren@SimpleNodeImpl@AdobeXMPCore_Int@@MEBAXXZ 000000018001cb54 f   SimpleNodeImpl.obj
 0001:0001bb54       _guard_check_icall_nop     000000018001cb54 f   MSVCRT:guard_support.obj
 0001:0001bb58       ?Erase@XMPMeta2@@UEAAXXZ   000000018001cb58 f   XMPMeta2-GetSet.obj
 0001:0001bbb0       ?DoesPropertyExist@XMPMeta2@@UEBA_NPEBD0@Z 000000018001cbb0 f   XMPMeta2-GetSet.obj
 0001:0001bcf8       ?SetProperty@XMPMeta2@@UEAAXPEBD00K@Z 000000018001ccf8 f   XMPMeta2-GetSet.obj
 0001:0001bea4       ?SetArrayItem@XMPMeta2@@UEAAXPEBD0J0K@Z 000000018001cea4 f   XMPMeta2-GetSet.obj
 0001:0001c0bc       ?AppendArrayItem@XMPMeta2@@UEAAXPEBD0K0K@Z 000000018001d0bc f   XMPMeta2-GetSet.obj
 0001:0001c410       ?SetQualifier@XMPMeta2@@UEAAXPEBD0000K@Z 000000018001d410 f   XMPMeta2-GetSet.obj
 0001:0001c664       ?Clone@XMPMeta2@@UEBAXPEAVXMPMeta@@K@Z 000000018001d664 f   XMPMeta2-GetSet.obj
 0001:0001c830       ?DeleteProperty@XMPMeta2@@UEAAXPEBD0@Z 000000018001d830 f   XMPMeta2-GetSet.obj
 0001:0001cde0       ?GetObjectName@XMPMeta2@@UEBAXPEAPEBDPEAK@Z 000000018001dde0 f   XMPMeta2-GetSet.obj
 0001:0001ceb8       ?SetObjectName@XMPMeta2@@UEAAXPEBD@Z 000000018001deb8 f   XMPMeta2-GetSet.obj
 0001:0001df80       ?GetLocalizedText@XMPMeta2@@UEBA_NPEBD000PEAPEBDPEAK122@Z 000000018001ef80 f   XMPMeta2-GetSet.obj
 0001:0001e55c       ?DeleteLocalizedText@XMPMeta2@@UEAAXPEBD000@Z 000000018001f55c f   XMPMeta2-GetSet.obj
 0001:0001f4dc       ?SetLocalizedText@XMPMeta2@@UEAAXPEBD0000K@Z 00000001800204dc f   XMPMeta2-GetSet.obj
 0001:00021bf8       ?DumpObject@XMPMeta2@@UEBAXP6AJPEAXPEBDK@Z0@Z 0000000180022bf8 f   XMPMeta2-GetSet.obj
 0001:0002274c       ?SetErrorCallback@XMPMeta2@@UEAAXP6AEP6A_NPEAXEJPEBD@Z0EJ1@Z20K@Z 000000018002374c f   XMPMeta2-GetSet.obj
 0001:000227a8       ?ResetErrorCallbackLimit@XMPMeta2@@UEAAXK@Z 00000001800237a8 f   XMPMeta2-GetSet.obj
 0001:000227ec       ??$?0VIArrayNode_v1@AdobeXMPCore@@$0A@@?$shared_ptr@VINode_v1@AdobeXMPCore@@@std@@QEAA@AEBV?$shared_ptr@VIArrayNode_v1@AdobeXMPCore@@@1@@Z 00000001800237ec f i XMPUtils.obj
 0001:000227ec       ??$?0VISimpleNode_v1@AdobeXMPCore@@$0A@@?$shared_ptr@VINode_v1@AdobeXMPCore@@@std@@QEAA@AEBV?$shared_ptr@VISimpleNode_v1@AdobeXMPCore@@@1@@Z 00000001800237ec f i XMPMeta2-GetSet.obj
 0001:000227ec       ??$?0VIStructureNode_v1@AdobeXMPCore@@$0A@@?$shared_ptr@VINode_v1@AdobeXMPCore@@@std@@QEAA@AEBV?$shared_ptr@VIStructureNode_v1@AdobeXMPCore@@@1@@Z 00000001800237ec f i XMPUtils.obj
 0001:00022830       ??4?$shared_ptr@VINode_v1@AdobeXMPCore@@@std@@QEAAAEAV01@AEBV01@@Z 0000000180023830 f i XMPMeta2-GetSet.obj
 0001:000228a0       ??4?$basic_string@DU?$char_traits@D@std@@V?$allocator@D@2@@std@@QEAAAEAV01@$$QEAV01@@Z 00000001800238a0 f i XMPMeta2-GetSet.obj
 0001:0002294c       ??0XMP_Node@@QEAA@PEAV0@AEBV?$basic_string@DU?$char_traits@D@std@@V?$allocator@D@2@@std@@1K@Z 000000018002394c f i XMPUtils-FileInfo.obj
 0001:00023098       ?IsInternalProperty@@YA_NAEBV?$basic_string@DU?$char_traits@D@std@@V?$allocator@D@2@@std@@0@Z 0000000180024098 f   XMPUtils-FileInfo.obj
 0001:0002420c       ?CatenateArrayItems_v2@XMPUtils@@SAXAEBVXMPMeta@@PEBD111KPEAV?$basic_string@DU?$char_traits@D@std@@V?$allocator@D@2@@std@@@Z 000000018002520c f   XMPUtils-FileInfo.obj
 0001:00024bdc       ?CatenateArrayItems@XMPUtils@@SAXAEBVXMPMeta@@PEBD111KPEAV?$basic_string@DU?$char_traits@D@std@@V?$allocator@D@2@@std@@@Z 0000000180025bdc f   XMPUtils-FileInfo.obj
 0001:00025128       ?SeparateArrayItems_v2@XMPUtils@@SAXPEAVXMPMeta@@PEBD1K1@Z 0000000180026128 f   XMPUtils-FileInfo.obj
 0001:000269d0       ?SeparateArrayItems@XMPUtils@@SAXPEAVXMPMeta@@PEBD1K1@Z 00000001800279d0 f   XMPUtils-FileInfo.obj
 0001:000273d0       ?ApplyTemplate@XMPUtils@@SAXPEAVXMPMeta@@AEBV2@K@Z 00000001800283d0 f   XMPUtils-FileInfo.obj
 0001:0002788c       ?RemoveProperties@XMPUtils@@SAXPEAVXMPMeta@@PEBD1K@Z 000000018002888c f   XMPUtils-FileInfo.obj
 0001:00027bf4       ?DuplicateSubtree@XMPUtils@@SAXAEBVXMPMeta@@PEAV2@PEBD222K@Z 0000000180028bf4 f   XMPUtils-FileInfo.obj
 0001:00028640       ??$?4VIArrayNode_v1@AdobeXMPCore@@$0A@@?$shared_ptr@VINode_v1@AdobeXMPCore@@@std@@QEAAAEAV01@$$QEAV?$shared_ptr@VIArrayNode_v1@AdobeXMPCore@@@1@@Z 0000000180029640 f i XMPUtils-FileInfo.obj
 0001:000286c4       ??1?$_Vb_val@V?$allocator@_N@std@@@std@@QEAA@XZ 00000001800296c4 f i XMPUtils-FileInfo.obj
 0001:000286c4       ??1?$vector@_NV?$allocator@_N@std@@@std@@QEAA@XZ 00000001800296c4 f i XMPUtils-FileInfo.obj
 0001:000286cc       ??0?$vector@_NV?$allocator@_N@std@@@std@@QEAA@_KAEB_NAEBV?$allocator@_N@1@@Z 00000001800296cc f i XMPUtils-FileInfo.obj
 0001:00028820       ??1?$vector@V?$shared_ptr@$$CBVINode_v1@AdobeXMPCore@@@std@@V?$allocator@V?$shared_ptr@$$CBVINode_v1@AdobeXMPCore@@@std@@@2@@std@@QEAA@XZ 0000000180029820 f i XMPUtils.obj
 0001:00028820       ??1?$vector@V?$shared_ptr@VINode_v1@AdobeXMPCore@@@std@@V?$allocator@V?$shared_ptr@VINode_v1@AdobeXMPCore@@@std@@@2@@std@@QEAA@XZ 0000000180029820 f i XMPUtils-FileInfo.obj
 0001:00028900       ??1?$vector@V?$basic_string@DU?$char_traits@D@std@@V?$allocator@D@2@@std@@V?$allocator@V?$basic_string@DU?$char_traits@D@std@@V?$allocator@D@2@@std@@@2@@std@@QEAA@XZ 0000000180029900 f i XMPUtils-FileInfo.obj
 0001:000289a8       ??$_Emplace_reallocate@V?$shared_ptr@VINode_v1@AdobeXMPCore@@@std@@@?$vector@V?$shared_ptr@VINode_v1@AdobeXMPCore@@@std@@V?$allocator@V?$shared_ptr@VINode_v1@AdobeXMPCore@@@std@@@2@@std@@AEAAPEAV?$shared_ptr@VINode_v1@AdobeXMPCore@@@1@QEAV21@$$QEAV21@@Z 00000001800299a8 f i XMPUtils-FileInfo.obj
 0001:00028bbc       ??$_Emplace_reallocate@V?$basic_string@DU?$char_traits@D@std@@V?$allocator@D@2@@std@@@?$vector@V?$basic_string@DU?$char_traits@D@std@@V?$allocator@D@2@@std@@V?$allocator@V?$basic_string@DU?$char_traits@D@std@@V?$allocator@D@2@@std@@@2@@std@@AEAAPEAV?$basic_string@DU?$char_traits@D@std@@V?$allocator@D@2@@1@QEAV21@$$QEAV21@@Z 0000000180029bbc f i XMPUtils-FileInfo.obj
 0001:00028da8       ??1?$vector@IV?$allocator@I@std@@@std@@QEAA@XZ 0000000180029da8 f i XMPUtils-FileInfo.obj
 0001:00028e24       ?_Xlen@?$vector@_NV?$allocator@_N@std@@@std@@SAXXZ 0000000180029e24 f i XMPUtils-FileInfo.obj
 0001:00028e38       ??1?$_Tidy_guard@V?$vector@PEAVXMP_Node@@V?$allocator@PEAVXMP_Node@@@std@@@std@@@std@@QEAA@XZ 0000000180029e38 f i XMPUtils-FileInfo.obj
 0001:00028eb8       ??$_Uninitialized_move@PEAV?$basic_string@DU?$char_traits@D@std@@V?$allocator@D@2@@std@@V?$allocator@V?$basic_string@DU?$char_traits@D@std@@V?$allocator@D@2@@std@@@2@@std@@YAPEAV?$basic_string@DU?$char_traits@D@std@@V?$allocator@D@2@@0@QEAV10@0PEAV10@AEAV?$allocator@V?$basic_string@DU?$char_traits@D@std@@V?$allocator@D@2@@std@@@0@@Z 0000000180029eb8 f i XMPUtils-FileInfo.obj
 0001:00028f54       ??1_Reallocation_guard@?$vector@V?$shared_ptr@$$CBVINode_v1@AdobeXMPCore@@@std@@V?$allocator@V?$shared_ptr@$$CBVINode_v1@AdobeXMPCore@@@std@@@2@@std@@QEAA@XZ 0000000180029f54 f i XMPUtils.obj
 0001:00028f54       ??1_Reallocation_guard@?$vector@V?$shared_ptr@VINode_v1@AdobeXMPCore@@@std@@V?$allocator@V?$shared_ptr@VINode_v1@AdobeXMPCore@@@std@@@2@@std@@QEAA@XZ 0000000180029f54 f i XMPUtils-FileInfo.obj
 0001:0002901c       ?_Change_array@?$vector@V?$shared_ptr@$$CBVINode_v1@AdobeXMPCore@@@std@@V?$allocator@V?$shared_ptr@$$CBVINode_v1@AdobeXMPCore@@@std@@@2@@std@@AEAAXQEAV?$shared_ptr@$$CBVINode_v1@AdobeXMPCore@@@2@_K1@Z 000000018002a01c f i XMPUtils.obj
 0001:0002901c       ?_Change_array@?$vector@V?$shared_ptr@VINode_v1@AdobeXMPCore@@@std@@V?$allocator@V?$shared_ptr@VINode_v1@AdobeXMPCore@@@std@@@2@@std@@AEAAXQEAV?$shared_ptr@VINode_v1@AdobeXMPCore@@@2@_K1@Z 000000018002a01c f i XMPUtils-FileInfo.obj
 0001:00029118       ??1_Reallocation_guard@?$vector@V?$basic_string@DU?$char_traits@D@std@@V?$allocator@D@2@@std@@V?$allocator@V?$basic_string@DU?$char_traits@D@std@@V?$allocator@D@2@@std@@@2@@std@@QEAA@XZ 000000018002a118 f i XMPUtils-FileInfo.obj
 0001:000291a8       ??1?$_Uninitialized_backout_al@V?$TAllocator@V?$shared_ptr@$$CBVIPathSegment_v1@AdobeXMPCore@@@std@@@AdobeXMPCore_Int@@@std@@QEAA@XZ 000000018002a1a8 f i PathImpl.obj
 0001:000291a8       ??1?$_Uninitialized_backout_al@V?$TAllocator@V?$shared_ptr@$$CBVIUTF8String_v1@AdobeXMPCommon@@@std@@@AdobeXMPCore_Int@@@std@@QEAA@XZ 000000018002a1a8 f i ErrorImpl.obj
 0001:000291a8       ??1?$_Uninitialized_backout_al@V?$TAllocator@V?$shared_ptr@VINode_v1@AdobeXMPCore@@@std@@@AdobeXMPCore_Int@@@std@@QEAA@XZ 000000018002a1a8 f i ArrayNodeImpl.obj
 0001:000291a8       ??1?$_Uninitialized_backout_al@V?$allocator@V?$shared_ptr@$$CBVINode_v1@AdobeXMPCore@@@std@@@std@@@std@@QEAA@XZ 000000018002a1a8 f i XMPUtils.obj
 0001:000291a8       ??1?$_Uninitialized_backout_al@V?$allocator@V?$shared_ptr@VINode_v1@AdobeXMPCore@@@std@@@std@@@std@@QEAA@XZ 000000018002a1a8 f i XMPUtils-FileInfo.obj
 0001:00029210       ??1?$_Tidy_guard@V?$vector@IV?$allocator@I@std@@@std@@@std@@QEAA@XZ 000000018002a210 f i XMPUtils-FileInfo.obj
 0001:00029290       __local_stdio_scanf_options 000000018002a290 f i XMPUtils.obj
 0001:00029298       sscanf                     000000018002a298 f i XMPUtils.obj
 0001:000292e8       ?GetQualifier@INode_v1@AdobeXMPCore@@QEBA?AV?$shared_ptr@$$CBVINode_v1@AdobeXMPCore@@@std@@PEBD_K01@Z 000000018002a2e8 f i XMPUtils.obj
 0001:0002937c       ?SetNode@XMPUtils@@SAXAEBV?$shared_ptr@VINode_v1@AdobeXMPCore@@@std@@PEBDK@Z 000000018002a37c f   XMPUtils.obj
 0001:0002986c       ?CreateArrayChildNode@XMPUtils@@SA?AV?$shared_ptr@VINode_v1@AdobeXMPCore@@@std@@AEBV?$shared_ptr@VIArrayNode_v1@AdobeXMPCore@@@3@K@Z 000000018002a86c f   XMPUtils.obj
 0001:00029f34       ?DoSetArrayItem@XMPUtils@@SAXAEBV?$shared_ptr@VIArrayNode_v1@AdobeXMPCore@@@std@@JPEBDK@Z 000000018002af34 f   XMPUtils.obj
 0001:0002a4b4       ?SetImplicitNodeInformation@XMPUtils@@SAXAEA_NAEAV?$shared_ptr@VINode_v1@AdobeXMPCore@@@std@@1AEAJJ@Z 000000018002b4b4 f   XMPUtils.obj
 0001:0002a4f0       ?GetNameSpaceAndNameFromStepValue@XMPUtils@@SAXAEBV?$basic_string@DU?$char_traits@D@std@@V?$allocator@D@2@@std@@AEBV?$shared_ptr@$$CBVINameSpacePrefixMap_v1@AdobeXMPCore@@@3@AEAV23@2@Z 000000018002b4f0 f   XMPUtils.obj
 0001:0002a718       ?CreateTerminalNode@XMPUtils@@SA?AV?$shared_ptr@VINode_v1@AdobeXMPCore@@@std@@PEBD0K@Z 000000018002b718 f   XMPUtils.obj
 0001:0002a9d0       ?HandleConstAliasStep@XMPUtils@@SA_NAEBV?$shared_ptr@VIMetadata_v1@AdobeXMPCore@@@std@@AEAV?$shared_ptr@VINode_v1@AdobeXMPCore@@@3@AEBV?$vector@VXPathStepInfo@@V?$allocator@VXPathStepInfo@@@std@@@3@PEAJ@Z 000000018002b9d0 f   XMPUtils.obj
 0001:0002b274       ?HandleAliasStep@XMPUtils@@SA_NAEBV?$shared_ptr@VIMetadata_v1@AdobeXMPCore@@@std@@AEAV?$vector@VXPathStepInfo@@V?$allocator@VXPathStepInfo@@@std@@@3@_NKAEAV?$shared_ptr@VINode_v1@AdobeXMPCore@@@3@PEAJ2@Z 000000018002c274 f   XMPUtils.obj
 0001:0002c524       ?FindNode@XMPUtils@@SA_NAEBV?$shared_ptr@VIMetadata_v1@AdobeXMPCore@@@std@@AEAV?$vector@VXPathStepInfo@@V?$allocator@VXPathStepInfo@@@std@@@3@_NKAEAV?$shared_ptr@VINode_v1@AdobeXMPCore@@@3@PEAJ2@Z 000000018002d524 f   XMPUtils.obj
 0001:0002fba4       ?FindCnstNode@XMPUtils@@SA_NAEBV?$shared_ptr@VIMetadata_v1@AdobeXMPCore@@@std@@AEAV?$vector@VXPathStepInfo@@V?$allocator@VXPathStepInfo@@@std@@@3@AEAV?$shared_ptr@VINode_v1@AdobeXMPCore@@@3@PEAKPEAJ@Z 0000000180030ba4 f   XMPUtils.obj
 0001:00031780       ?GetNodeChildCount@XMPUtils@@SA_KAEBV?$shared_ptr@$$CBVINode_v1@AdobeXMPCore@@@std@@@Z 0000000180032780 f   XMPUtils.obj
 0001:00031864       ?GetNodeChildIterator@XMPUtils@@SA?AV?$shared_ptr@$$CBVINodeIterator_v1@AdobeXMPCore@@@std@@AEBV?$shared_ptr@$$CBVINode_v1@AdobeXMPCore@@@3@@Z 0000000180032864 f   XMPUtils.obj
 0001:00031a64       ?GetIXMPOptions@XMPUtils@@SAKAEBV?$shared_ptr@$$CBVINode_v1@AdobeXMPCore@@@std@@@Z 0000000180032a64 f   XMPUtils.obj
 0001:00032058       ?FindChildNode@XMPUtils@@SA?AV?$shared_ptr@VINode_v1@AdobeXMPCore@@@std@@AEBV23@PEBD1_NPEA_K@Z 0000000180033058 f   XMPUtils.obj
 0001:00033a00       ?ComposeArrayItemPath@XMPUtils@@SAXPEBD0JPEAV?$basic_string@DU?$char_traits@D@std@@V?$allocator@D@2@@std@@@Z 0000000180034a00 f   XMPUtils.obj
 0001:00033d20       ?ComposeStructFieldPath@XMPUtils@@SAXPEBD000PEAV?$basic_string@DU?$char_traits@D@std@@V?$allocator@D@2@@std@@@Z 0000000180034d20 f   XMPUtils.obj
 0001:000340f0       ?ComposeQualifierPath@XMPUtils@@SAXPEBD000PEAV?$basic_string@DU?$char_traits@D@std@@V?$allocator@D@2@@std@@@Z 00000001800350f0 f   XMPUtils.obj
 0001:000344a0       ?ComposeLangSelector@XMPUtils@@SAXPEBD00PEAV?$basic_string@DU?$char_traits@D@std@@V?$allocator@D@2@@std@@@Z 00000001800354a0 f   XMPUtils.obj
 0001:0003480c       ?ComposeFieldSelector@XMPUtils@@SAXPEBD0000PEAV?$basic_string@DU?$char_traits@D@std@@V?$allocator@D@2@@std@@@Z 000000018003580c f   XMPUtils.obj
 0001:00034c34       ?ConvertFromBool@XMPUtils@@SAX_NPEAV?$basic_string@DU?$char_traits@D@std@@V?$allocator@D@2@@std@@@Z 0000000180035c34 f   XMPUtils.obj
 0001:00034d90       ?ConvertFromInt@XMPUtils@@SAXJPEBDPEAV?$basic_string@DU?$char_traits@D@std@@V?$allocator@D@2@@std@@@Z 0000000180035d90 f   XMPUtils.obj
 0001:00034e58       ?ConvertFromInt64@XMPUtils@@SAX_JPEBDPEAV?$basic_string@DU?$char_traits@D@std@@V?$allocator@D@2@@std@@@Z 0000000180035e58 f   XMPUtils.obj
 0001:00034f20       ?ConvertFromFloat@XMPUtils@@SAXNPEBDPEAV?$basic_string@DU?$char_traits@D@std@@V?$allocator@D@2@@std@@@Z 0000000180035f20 f   XMPUtils.obj
 0001:00034fec       ?ConvertFromDate@XMPUtils@@SAXAEBUXMP_DateTime@@PEAV?$basic_string@DU?$char_traits@D@std@@V?$allocator@D@2@@std@@@Z 0000000180035fec f   XMPUtils.obj
 0001:00035384       ?ConvertToBool@XMPUtils@@SA_NPEBD@Z 0000000180036384 f   XMPUtils.obj
 0001:0003553c       ?ConvertToInt@XMPUtils@@SAJPEBD@Z 000000018003653c f   XMPUtils.obj
 0001:000355e8       ?ConvertToInt64@XMPUtils@@SA_JPEBD@Z 00000001800365e8 f   XMPUtils.obj
 0001:00035694       ?ConvertToFloat@XMPUtils@@SANPEBD@Z 0000000180036694 f   XMPUtils.obj
 0001:00035874       ?ConvertToDate@XMPUtils@@SAXPEBDPEAUXMP_DateTime@@@Z 0000000180036874 f   XMPUtils.obj
 0001:00035ea0       ?EncodeToBase64@XMPUtils@@SAXPEBDKPEAV?$basic_string@DU?$char_traits@D@std@@V?$allocator@D@2@@std@@@Z 0000000180036ea0 f   XMPUtils.obj
 0001:000360b4       ?DecodeFromBase64@XMPUtils@@SAXPEBDKPEAV?$basic_string@DU?$char_traits@D@std@@V?$allocator@D@2@@std@@@Z 00000001800370b4 f   XMPUtils.obj
 0001:000362d0       ?PackageForJPEG@XMPUtils@@SAXAEBVXMPMeta@@PEAV?$basic_string@DU?$char_traits@D@std@@V?$allocator@D@2@@std@@11@Z 00000001800372d0 f   XMPUtils.obj
 0001:00036de8       ??1?$multimap@_KU?$pair@PEAV?$basic_string@DU?$char_traits@D@std@@V?$allocator@D@2@@std@@PEAV12@@std@@U?$less@_K@2@V?$allocator@U?$pair@$$CB_KU?$pair@PEAV?$basic_string@DU?$char_traits@D@std@@V?$allocator@D@2@@std@@PEAV12@@std@@@std@@@2@@std@@QEAA@XZ 0000000180037de8 f i XMPUtils.obj
 0001:00036de8       ??1?$multimap@_KU?$pair@PEBDPEBD@std@@U?$less@_K@2@V?$allocator@U?$pair@$$CB_KU?$pair@PEBDPEBD@std@@@std@@@2@@std@@QEAA@XZ 0000000180037de8 f i XMPUtils.obj
 0001:00036e3c       ?PackageForJPEG@XMPUtils@@SAXAEBVXMPMeta2@@PEAV?$basic_string@DU?$char_traits@D@std@@V?$allocator@D@2@@std@@11@Z 0000000180037e3c f   XMPUtils.obj
 0001:00037a3c       ?CurrentDateTime@XMPUtils@@SAXPEAUXMP_DateTime@@@Z 0000000180038a3c f   XMPUtils.obj
 0001:00037af8       ?SetTimeZone@XMPUtils@@SAXPEAUXMP_DateTime@@@Z 0000000180038af8 f   XMPUtils.obj
 0001:00037df0       ?ConvertToUTCTime@XMPUtils@@SAXPEAUXMP_DateTime@@@Z 0000000180038df0 f   XMPUtils.obj
 0001:00037e40       ?Trim@XMPUtils@@SAAEAV?$basic_string@DU?$char_traits@D@std@@V?$allocator@D@2@@std@@AEAV23@@Z 0000000180038e40 f   XMPUtils.obj
 0001:00038054       ?MapXMPErrorToIError@XMPUtils@@SAXJAEAW4eErrorDomain@IError_v1@AdobeXMPCommon@@AEAK@Z 0000000180039054 f   XMPUtils.obj
 0001:00038234       ??$?4VIArrayNode_v1@AdobeXMPCore@@$0A@@?$shared_ptr@VINode_v1@AdobeXMPCore@@@std@@QEAAAEAV01@AEBV?$shared_ptr@VIArrayNode_v1@AdobeXMPCore@@@1@@Z 0000000180039234 f i XMPUtils.obj
 0001:00038234       ??$?4VIMetadata_v1@AdobeXMPCore@@$0A@@?$shared_ptr@VINode_v1@AdobeXMPCore@@@std@@QEAAAEAV01@AEBV?$shared_ptr@VIMetadata_v1@AdobeXMPCore@@@1@@Z 0000000180039234 f i XMPUtils.obj
 0001:00038234       ??$?4VISimpleNode_v1@AdobeXMPCore@@$0A@@?$shared_ptr@VINode_v1@AdobeXMPCore@@@std@@QEAAAEAV01@AEBV?$shared_ptr@VISimpleNode_v1@AdobeXMPCore@@@1@@Z 0000000180039234 f i XMPUtils.obj
 0001:00038234       ??$?4VIStructureNode_v1@AdobeXMPCore@@$0A@@?$shared_ptr@VINode_v1@AdobeXMPCore@@@std@@QEAAAEAV01@AEBV?$shared_ptr@VIStructureNode_v1@AdobeXMPCore@@@1@@Z 0000000180039234 f i XMPUtils.obj
 0001:000382b8       ??$const_pointer_cast@VINode_v1@AdobeXMPCore@@$$CBV12@@std@@YA?AV?$shared_ptr@VINode_v1@AdobeXMPCore@@@0@AEBV?$shared_ptr@$$CBVINode_v1@AdobeXMPCore@@@0@@Z 00000001800392b8 f i XMPUtils.obj
 0001:000382e8       ??$_Emplace_hint@AEAU?$pair@$$CB_KU?$pair@PEAV?$basic_string@DU?$char_traits@D@std@@V?$allocator@D@2@@std@@PEAV12@@std@@@std@@@?$_Tree@V?$_Tmap_traits@_KU?$pair@PEAV?$basic_string@DU?$char_traits@D@std@@V?$allocator@D@2@@std@@PEAV12@@std@@U?$less@_K@2@V?$allocator@U?$pair@$$CB_KU?$pair@PEAV?$basic_string@DU?$char_traits@D@std@@V?$allocator@D@2@@std@@PEAV12@@std@@@std@@@2@$00@std@@@std@@IEAAPEAU?$_Tree_node@U?$pair@$$CB_KU?$pair@PEAV?$basic_string@DU?$char_traits@D@std@@V?$allocator@D@2@@std@@PEAV12@@std@@@std@@PEAX@1@QEAU21@AEAU?$pair@$$CB_KU?$pair@PEAV?$basic_string@DU?$char_traits@D@std@@V?$allocator@D@2@@std@@PEAV12@@std@@@1@@Z 00000001800392e8 f i XMPUtils.obj
 0001:000382e8       ??$_Emplace_hint@AEAU?$pair@$$CB_KU?$pair@PEBDPEBD@std@@@std@@@?$_Tree@V?$_Tmap_traits@_KU?$pair@PEBDPEBD@std@@U?$less@_K@2@V?$allocator@U?$pair@$$CB_KU?$pair@PEBDPEBD@std@@@std@@@2@$00@std@@@std@@IEAAPEAU?$_Tree_node@U?$pair@$$CB_KU?$pair@PEBDPEBD@std@@@std@@PEAX@1@QEAU21@AEAU?$pair@$$CB_KU?$pair@PEBDPEBD@std@@@1@@Z 00000001800392e8 f i XMPUtils.obj
 0001:00038558       ??$_Erase_tree@V?$allocator@U?$_Tree_node@U?$pair@$$CB_KU?$pair@PEAV?$basic_string@DU?$char_traits@D@std@@V?$allocator@D@2@@std@@PEAV12@@std@@@std@@PEAX@std@@@std@@@?$_Tree_val@U?$_Tree_simple_types@U?$pair@$$CB_KU?$pair@PEAV?$basic_string@DU?$char_traits@D@std@@V?$allocator@D@2@@std@@PEAV12@@std@@@std@@@std@@@std@@QEAAXAEAV?$allocator@U?$_Tree_node@U?$pair@$$CB_KU?$pair@PEAV?$basic_string@DU?$char_traits@D@std@@V?$allocator@D@2@@std@@PEAV12@@std@@@std@@PEAX@std@@@1@PEAU?$_Tree_node@U?$pair@$$CB_KU?$pair@PEAV?$basic_string@DU?$char_traits@D@std@@V?$allocator@D@2@@std@@PEAV12@@std@@@std@@PEAX@1@@Z 0000000180039558 f i XMPUtils.obj
 0001:00038558       ??$_Erase_tree@V?$allocator@U?$_Tree_node@U?$pair@$$CB_KU?$pair@PEBDPEBD@std@@@std@@PEAX@std@@@std@@@?$_Tree_val@U?$_Tree_simple_types@U?$pair@$$CB_KU?$pair@PEBDPEBD@std@@@std@@@std@@@std@@QEAAXAEAV?$allocator@U?$_Tree_node@U?$pair@$$CB_KU?$pair@PEBDPEBD@std@@@std@@PEAX@std@@@1@PEAU?$_Tree_node@U?$pair@$$CB_KU?$pair@PEBDPEBD@std@@@std@@PEAX@1@@Z 0000000180039558 f i XMPUtils.obj
 0001:000385ac       ?_Extract@?$_Tree_val@U?$_Tree_simple_types@U?$pair@$$CBUQualifiedName@StructureNodeImpl@AdobeXMPCore_Int@@V?$shared_ptr@VINode_v1@AdobeXMPCore@@@std@@@std@@@std@@@std@@QEAAPEAU?$_Tree_node@U?$pair@$$CBUQualifiedName@StructureNodeImpl@AdobeXMPCore_Int@@V?$shared_ptr@VINode_v1@AdobeXMPCore@@@std@@@std@@PEAX@2@V?$_Tree_unchecked_const_iterator@V?$_Tree_val@U?$_Tree_simple_types@U?$pair@$$CBUQualifiedName@StructureNodeImpl@AdobeXMPCore_Int@@V?$shared_ptr@VINode_v1@AdobeXMPCore@@@std@@@std@@@std@@@std@@U_Iterator_base0@2@@2@@Z 00000001800395ac f i StructureNodeImpl.obj
 0001:000385ac       ?_Extract@?$_Tree_val@U?$_Tree_simple_types@U?$pair@$$CBV?$shared_ptr@$$CBVIUTF8String_v1@AdobeXMPCommon@@@std@@V12@@std@@@std@@@std@@QEAAPEAU?$_Tree_node@U?$pair@$$CBV?$shared_ptr@$$CBVIUTF8String_v1@AdobeXMPCommon@@@std@@V12@@std@@PEAX@2@V?$_Tree_unchecked_const_iterator@V?$_Tree_val@U?$_Tree_simple_types@U?$pair@$$CBV?$shared_ptr@$$CBVIUTF8String_v1@AdobeXMPCommon@@@std@@V12@@std@@@std@@@std@@U_Iterator_base0@2@@2@@Z 00000001800395ac f i NameSpacePrefixMapImpl.obj
 0001:000385ac       ?_Extract@?$_Tree_val@U?$_Tree_simple_types@U?$pair@$$CB_KU?$pair@PEAV?$basic_string@DU?$char_traits@D@std@@V?$allocator@D@2@@std@@PEAV12@@std@@@std@@@std@@@std@@QEAAPEAU?$_Tree_node@U?$pair@$$CB_KU?$pair@PEAV?$basic_string@DU?$char_traits@D@std@@V?$allocator@D@2@@std@@PEAV12@@std@@@std@@PEAX@2@V?$_Tree_unchecked_const_iterator@V?$_Tree_val@U?$_Tree_simple_types@U?$pair@$$CB_KU?$pair@PEAV?$basic_string@DU?$char_traits@D@std@@V?$allocator@D@2@@std@@PEAV12@@std@@@std@@@std@@@std@@U_Iterator_base0@2@@2@@Z 00000001800395ac f i XMPUtils.obj
 0001:000385ac       ?_Extract@?$_Tree_val@U?$_Tree_simple_types@U?$pair@$$CB_KU?$pair@PEBDPEBD@std@@@std@@@std@@@std@@QEAAPEAU?$_Tree_node@U?$pair@$$CB_KU?$pair@PEBDPEBD@std@@@std@@PEAX@2@V?$_Tree_unchecked_const_iterator@V?$_Tree_val@U?$_Tree_simple_types@U?$pair@$$CB_KU?$pair@PEBDPEBD@std@@@std@@@std@@@std@@U_Iterator_base0@2@@2@@Z 00000001800395ac f i XMPUtils.obj
 0001:000385ac       ?_Extract@?$_Tree_val@U?$_Tree_simple_types@U?$pair@$$CB_KU?$pair@W4eDataType@IConfigurable@AdobeXMPCommon@@TCombinedDataValue@23@@std@@@std@@@std@@@std@@QEAAPEAU?$_Tree_node@U?$pair@$$CB_KU?$pair@W4eDataType@IConfigurable@AdobeXMPCommon@@TCombinedDataValue@23@@std@@@std@@PEAX@2@V?$_Tree_unchecked_const_iterator@V?$_Tree_val@U?$_Tree_simple_types@U?$pair@$$CB_KU?$pair@W4eDataType@IConfigurable@AdobeXMPCommon@@TCombinedDataValue@23@@std@@@std@@@std@@@std@@U_Iterator_base0@2@@2@@Z 00000001800395ac f i ConfigurableImpl.obj
 0001:00038a24       ??1?$_Alloc_construct_ptr@V?$allocator@U?$_Tree_node@U?$pair@$$CB_KU?$pair@PEAV?$basic_string@DU?$char_traits@D@std@@V?$allocator@D@2@@std@@PEAV12@@std@@@std@@PEAX@std@@@std@@@std@@QEAA@XZ 0000000180039a24 f i XMPUtils.obj
 0001:00038a24       ??1?$_Alloc_construct_ptr@V?$allocator@U?$_Tree_node@U?$pair@$$CB_KU?$pair@PEBDPEBD@std@@@std@@PEAX@std@@@std@@@std@@QEAA@XZ 0000000180039a24 f i XMPUtils.obj
 0001:00038a24       ??1?$_Tree_temp_node@V?$allocator@U?$_Tree_node@U?$pair@$$CB_KU?$pair@PEAV?$basic_string@DU?$char_traits@D@std@@V?$allocator@D@2@@std@@PEAV12@@std@@@std@@PEAX@std@@@std@@@std@@QEAA@XZ 0000000180039a24 f i XMPUtils.obj
 0001:00038a24       ??1?$_Tree_temp_node@V?$allocator@U?$_Tree_node@U?$pair@$$CB_KU?$pair@PEBDPEBD@std@@@std@@PEAX@std@@@std@@@std@@QEAA@XZ 0000000180039a24 f i XMPUtils.obj
 0001:0003b964       ?ApplyTemplate_v2@XMPUtils@@SAXPEAVXMPMeta@@AEBV2@K@Z 000000018003c964 f   XMPUtils2.obj
 0001:0003d018       ?DuplicateSubtree_v2@XMPUtils@@SAXAEBVXMPMeta@@PEAV2@PEBD222K@Z 000000018003e018 f   XMPUtils2.obj
 0001:0003e464       ?RemoveProperties_v2@XMPUtils@@SAXPEAVXMPMeta@@PEBD1K@Z 000000018003f464 f   XMPUtils2.obj
 0001:0003edec       ??$_Emplace_reallocate@AEBV?$shared_ptr@$$CBVINode_v1@AdobeXMPCore@@@std@@@?$vector@V?$shared_ptr@$$CBVINode_v1@AdobeXMPCore@@@std@@V?$allocator@V?$shared_ptr@$$CBVINode_v1@AdobeXMPCore@@@std@@@2@@std@@AEAAPEAV?$shared_ptr@$$CBVINode_v1@AdobeXMPCore@@@1@QEAV21@AEBV21@@Z 000000018003fdec f i XMPUtils2.obj
 0001:0003edec       ??$_Emplace_reallocate@AEBV?$shared_ptr@VINode_v1@AdobeXMPCore@@@std@@@?$vector@V?$shared_ptr@VINode_v1@AdobeXMPCore@@@std@@V?$allocator@V?$shared_ptr@VINode_v1@AdobeXMPCore@@@std@@@2@@std@@AEAAPEAV?$shared_ptr@VINode_v1@AdobeXMPCore@@@1@QEAV21@AEBV21@@Z 000000018003fdec f i XMPUtils2.obj
 0001:0003f018       fprintf                    0000000180040018 f i xmlparse.obj
 0001:0003f8e4       XML_ParserFree             00000001800408e4 f   xmlparse.obj
 0001:0003fb08       XML_Parse                  0000000180040b08 f   xmlparse.obj
 0001:0003fbf4       XML_ParseBuffer            0000000180040bf4 f   xmlparse.obj
 0001:0003fd50       XML_GetBuffer              0000000180040d50 f   xmlparse.obj
 0001:00046618       unsignedCharToPrintable    0000000180047618 f   xmlparse.obj
 0001:00048670       ?GetParentNodeType@MetadataImpl@AdobeXMPCore_Int@@MEBA?AW4eNodeType@INode_v1@AdobeXMPCore@@XZ 0000000180049670 f   MetadataImpl.obj
 0001:00048670       ?Lock@SharedMutexImpl@AdobeXMPCore_Int@@UEAA?AW4eMultiThreadingErrorCode@AdobeXMPCommon_Int@@XZ 0000000180049670 f   SharedMutexImpl.obj
 0001:00048670       ?LockShared@SharedMutexImpl@AdobeXMPCore_Int@@UEAA?AW4eMultiThreadingErrorCode@AdobeXMPCommon_Int@@XZ 0000000180049670 f   SharedMutexImpl.obj
 0001:00048670       ?TryLock@SharedMutexImpl@AdobeXMPCore_Int@@UEAA?AW4eMultiThreadingErrorCode@AdobeXMPCommon_Int@@XZ 0000000180049670 f   SharedMutexImpl.obj
 0001:00048670       ?TryLockShared@SharedMutexImpl@AdobeXMPCore_Int@@UEAA?AW4eMultiThreadingErrorCode@AdobeXMPCommon_Int@@XZ 0000000180049670 f   SharedMutexImpl.obj
 0001:00048670       ?Unlock@SharedMutexImpl@AdobeXMPCore_Int@@UEAA?AW4eMultiThreadingErrorCode@AdobeXMPCommon_Int@@XZ 0000000180049670 f   SharedMutexImpl.obj
 0001:00048670       ?UnlockShared@SharedMutexImpl@AdobeXMPCore_Int@@UEAA?AW4eMultiThreadingErrorCode@AdobeXMPCommon_Int@@XZ 0000000180049670 f   SharedMutexImpl.obj
 0001:00048670       ?ValidateKey@IConfigurable_I@AdobeXMPCore_Int@@UEBA?AW4eConfigurableErrorCode@AdobeXMPCommon@@AEB_K@Z 0000000180049670 f   ClientDOMParserWrapperImpl.obj
 0001:00048670       ?ValidateValue@ConfigurableImpl@AdobeXMPCore_Int@@UEBA?AW4eConfigurableErrorCode@AdobeXMPCommon@@AEB_KW4eDataType@IConfigurable@4@AEBTCombinedDataValue@64@@Z 0000000180049670 f   ConfigurableImpl.obj
 0001:00048670       ?ValidateValue@RDFDOMParserImpl@AdobeXMPCore_Int@@UEBA?AW4eConfigurableErrorCode@AdobeXMPCommon@@AEB_KW4eDataType@IConfigurable@4@AEBTCombinedDataValue@64@@Z 0000000180049670 f   RDFDOMParserImpl.obj
 0001:00048670       ?_Get_deleter@_Ref_count_base@std@@UEBAPEAXAEBVtype_info@@@Z 0000000180049670 f   RDFDOMParserImpl.obj
 0001:00048670       __scrt_stub_for_is_c_termination_complete 0000000180049670 f   MSVCRT:ucrt_stubs.obj
 0001:00048670       _is_c_termination_complete 0000000180049670 f   MSVCRT:ucrt_stubs.obj
 0001:00052058       XmlUtf8Encode              0000000180053058 f   xmltok.obj
 0001:0005239c       XmlInitUnknownEncoding     000000018005339c f   xmltok.obj
 0001:00052890       XmlInitEncoding            0000000180053890 f   xmltok.obj
 0001:000529b4       XmlParseXmlDecl            00000001800539b4 f   xmltok.obj
 0001:00052a1c       ?MD5Update@@YAXPEAUMD5_CTX@@PEAEK@Z 0000000180053a1c f   MD5.obj
 0001:00052ae0       ?MD5Final@@YAXQEAEPEAUMD5_CTX@@@Z 0000000180053ae0 f   MD5.obj
 0001:000534e8       ??0XML_Node@@QEAA@PEAV0@PEBDE@Z 00000001800544e8 f i ExpatAdapter.obj
 0001:000535ac       ??_EXML_Node@@UEAAPEAXI@Z  00000001800545ac f i * CIL library *:* CIL module *
 0001:000535ac       ??_GXML_Node@@UEAAPEAXI@Z  00000001800545ac f i ExpatAdapter.obj
 0001:00053628       ??1XMLParserAdapter@@UEAA@XZ 0000000180054628 f i ExpatAdapter.obj
 0001:0005369c       ?SetErrorCallback@XMLParserAdapter@@UEAAXPEAVGenericErrorCallback@@@Z 000000018005469c f i ExpatAdapter.obj
 0001:000536a4       ?NotifyClient@XMLParserAdapter@@UEAAXEAEAVXMP_Error@@@Z 00000001800546a4 f i ExpatAdapter.obj
 0001:000536c0       ??_EXMLParserAdapter@@UEAAPEAXI@Z 00000001800546c0 f i * CIL library *:* CIL module *
 0001:000536c0       ??_GXMLParserAdapter@@UEAAPEAXI@Z 00000001800546c0 f i ExpatAdapter.obj
 0001:000536f4       ??_EExpatAdapter@@UEAAPEAXI@Z 00000001800546f4 f i * CIL library *:* CIL module *
 0001:000536f4       ??_GExpatAdapter@@UEAAPEAXI@Z 00000001800546f4 f i ExpatAdapter.obj
 0001:00053728       XMP_NewExpatAdapter        0000000180054728 f   ExpatAdapter.obj
 0001:0005374c       ??0ExpatAdapter@@QEAA@_N@Z 000000018005474c f   ExpatAdapter.obj
 0001:00053994       ??1ExpatAdapter@@UEAA@XZ   0000000180054994 f   ExpatAdapter.obj
 0001:000539fc       ?ParseBuffer@ExpatAdapter@@UEAAXPEBX_K_N@Z 00000001800549fc f   ExpatAdapter.obj
 0001:000547a4       ?AddChildNode@RDF_Parser@@AEAAPEAVXMP_Node@@PEAV2@AEBVXML_Node@@QEBD_N@Z 00000001800557a4 f   ParseRDF.obj
 0001:00054a90       ?AddQualifierNode@RDF_Parser@@AEAAPEAVXMP_Node@@PEAV2@AEBV?$basic_string@DU?$char_traits@D@std@@V?$allocator@D@2@@std@@1@Z 0000000180055a90 f   ParseRDF.obj
 0001:00054c20       ?AddQualifierNode@RDF_Parser@@AEAAPEAVXMP_Node@@PEAV2@AEBVXML_Node@@@Z 0000000180055c20 f   ParseRDF.obj
 0001:00054c6c       ?FixupQualifiedNode@RDF_Parser@@AEAAXPEAVXMP_Node@@@Z 0000000180055c6c f   ParseRDF.obj
 0001:00055120       ?NodeElement@RDF_Parser@@QEAAXPEAVXMP_Node@@AEBVXML_Node@@_N@Z 0000000180056120 f   ParseRDF.obj
 0001:000551cc       ?NodeElementAttrs@RDF_Parser@@QEAAXPEAVXMP_Node@@AEBVXML_Node@@_N@Z 00000001800561cc f   ParseRDF.obj
 0001:0005530c       ?PropertyElementList@RDF_Parser@@QEAAXPEAVXMP_Node@@AEBVXML_Node@@_N@Z 000000018005630c f   ParseRDF.obj
 0001:000553b4       ?PropertyElement@RDF_Parser@@QEAAXPEAVXMP_Node@@AEBVXML_Node@@_N@Z 00000001800563b4 f   ParseRDF.obj
 0001:0005565c       ?ResourcePropertyElement@RDF_Parser@@QEAAXPEAVXMP_Node@@AEBVXML_Node@@_N@Z 000000018005665c f   ParseRDF.obj
 0001:00055ad4       ?LiteralPropertyElement@RDF_Parser@@QEAAXPEAVXMP_Node@@AEBVXML_Node@@_N@Z 0000000180056ad4 f   ParseRDF.obj
 0001:00055c9c       ?ParseTypeResourcePropertyElement@RDF_Parser@@QEAAXPEAVXMP_Node@@AEBVXML_Node@@_N@Z 0000000180056c9c f   ParseRDF.obj
 0001:00055e18       ?EmptyPropertyElement@RDF_Parser@@QEAAXPEAVXMP_Node@@AEBVXML_Node@@_N@Z 0000000180056e18 f   ParseRDF.obj
 0001:00056114       ?reserve@?$vector@PEAVXMP_Node@@V?$allocator@PEAVXMP_Node@@@std@@@std@@QEAAX_K@Z 0000000180057114 f i ParseRDF.obj
 0001:00056af4       ?SplitNameAndValue@@YAXAEBV?$basic_string@DU?$char_traits@D@std@@V?$allocator@D@2@@std@@PEAV12@1@Z 0000000180057af4 f   XMPCore_Impl.obj
 0001:00057218       ?DeleteSubtree@@YAXV?$_Vector_iterator@V?$_Vector_val@U?$_Simple_types@PEAVXMP_Node@@@std@@@std@@@std@@@Z 0000000180058218 f   XMPCore_Impl.obj
 0001:000572d4       ?VerifySetOptions@@YAKKPEBD@Z 00000001800582d4 f   XMPCore_Impl.obj
 0001:000573e8       ?ExpandXPath@@YAXPEBD0PEAV?$vector@VXPathStepInfo@@V?$allocator@VXPathStepInfo@@@std@@@std@@@Z 00000001800583e8 f   XMPCore_Impl.obj
 0001:00057af0       ?FindSchemaNode@@YAPEAVXMP_Node@@PEAV1@PEBD_NPEAV?$_Vector_iterator@V?$_Vector_val@U?$_Simple_types@PEAVXMP_Node@@@std@@@std@@@std@@P6A_NPEAX1PEAPEBDPEAK@Z4@Z 0000000180058af0 f   XMPCore_Impl.obj
 0001:00057cb8       ?FindChildNode@@YAPEAVXMP_Node@@PEAV1@PEBD_NPEAV?$_Vector_iterator@V?$_Vector_val@U?$_Simple_types@PEAVXMP_Node@@@std@@@std@@@std@@@Z 0000000180058cb8 f   XMPCore_Impl.obj
 0001:00057ea4       ?FindQualifierNode@@YAPEAVXMP_Node@@PEAV1@PEBD_NPEAV?$_Vector_iterator@V?$_Vector_val@U?$_Simple_types@PEAVXMP_Node@@@std@@@std@@@std@@@Z 0000000180058ea4 f   XMPCore_Impl.obj
 0001:0005805c       ?LookupFieldSelector@@YAJPEBVXMP_Node@@PEBD1@Z 000000018005905c f   XMPCore_Impl.obj
 0001:00058188       ?LookupLangItem@@YAJPEBVXMP_Node@@AEAV?$basic_string@DU?$char_traits@D@std@@V?$allocator@D@2@@std@@@Z 0000000180059188 f   XMPCore_Impl.obj
 0001:00058278       ?FindNode@@YAPEAVXMP_Node@@PEAV1@AEBV?$vector@VXPathStepInfo@@V?$allocator@VXPathStepInfo@@@std@@@std@@_NKPEAV?$_Vector_iterator@V?$_Vector_val@U?$_Simple_types@PEAVXMP_Node@@@std@@@std@@@3@@Z 0000000180059278 f   XMPCore_Impl.obj
 0001:000585d8       ?CloneOffspring@@YAXPEBVXMP_Node@@PEAV1@_N@Z 00000001800595d8 f   XMPCore_Impl.obj
 0001:000587f8       ?CloneSubtree@@YAPEAVXMP_Node@@PEBV1@PEAV1@_N@Z 00000001800597f8 f   XMPCore_Impl.obj
 0001:000588ac       ?DeleteEmptySchema@@YAXPEAVXMP_Node@@@Z 00000001800598ac f   XMPCore_Impl.obj
 0001:00058924       ?NormalizeLangValue@@YAXPEAV?$basic_string@DU?$char_traits@D@std@@V?$allocator@D@2@@std@@@Z 0000000180059924 f   XMPCore_Impl.obj
 0001:000589e8       ?NormalizeLangArray@@YAXPEAVXMP_Node@@@Z 00000001800599e8 f   XMPCore_Impl.obj
 0001:00058b00       ??1_Simple_reallocation_guard@?$vector@VXPathStepInfo@@V?$allocator@VXPathStepInfo@@@std@@@std@@QEAA@XZ 0000000180059b00 f i XMPCore_Impl.obj
 0001:00058b64       ?ToUTF16@@YAXPEBE_KPEAV?$basic_string@DU?$char_traits@D@std@@V?$allocator@D@2@@std@@_N@Z 0000000180059b64 f   UnicodeConversions.obj
 0001:00058c68       ?ToUTF32@@YAXPEBE_KPEAV?$basic_string@DU?$char_traits@D@std@@V?$allocator@D@2@@std@@_N@Z 0000000180059c68 f   UnicodeConversions.obj
 0001:00059374       ?IsWhitespaceNode@XML_Node@@QEBA_NXZ 000000018005a374 f   XML_Node.obj
 0001:000593bc       ?RemoveAttrs@XML_Node@@QEAAXXZ 000000018005a3bc f   XML_Node.obj
 0001:00059430       ?RemoveContent@XML_Node@@QEAAXXZ 000000018005a430 f   XML_Node.obj
 0001:000594a4       ??1?$_Alloc_construct_ptr@V?$allocator@U?$_Tree_node@U?$pair@$$CBV?$basic_string@DU?$char_traits@D@std@@V?$allocator@D@2@@std@@V12@@std@@PEAX@std@@@std@@@std@@QEAA@XZ 000000018005a4a4 f i XML_Node.obj
 0001:000594a4       ??1?$_Tree_temp_node_alloc@V?$allocator@U?$_Tree_node@U?$pair@$$CBV?$basic_string@DU?$char_traits@D@std@@V?$allocator@D@2@@std@@V12@@std@@PEAX@std@@@std@@@std@@QEAA@XZ 000000018005a4a4 f i XML_Node.obj
 0001:000594c0       ??1XMP_AutoMutex@@QEAA@XZ  000000018005a4c0 f i XMP_LibUtils.obj
 0001:000594e4       ??0XMP_ReadWriteLock@@QEAA@XZ 000000018005a4e4 f   XMP_LibUtils.obj
 0001:0005953c       ??1XMP_ReadWriteLock@@QEAA@XZ 000000018005a53c f   XMP_LibUtils.obj
 0001:00059544       ?Acquire@XMP_ReadWriteLock@@QEAAX_N@Z 000000018005a544 f   XMP_LibUtils.obj
 0001:00059600       ??0XMP_WinXP_HGQueue@@QEAA@XZ 000000018005a600 f   XMP_LibUtils.obj
 0001:00059668       ??1XMP_WinXP_HGQueue@@QEAA@XZ 000000018005a668 f   XMP_LibUtils.obj
 0001:00059674       ?Wait@XMP_WinXP_HGQueue@@QEAAXAEAU_RTL_CRITICAL_SECTION@@@Z 000000018005a674 f   XMP_LibUtils.obj
 0001:00059730       ??1XMP_HomeGrownLock@@QEAA@XZ 000000018005a730 f   XMP_LibUtils.obj
 0001:0005975c       ?ReleaseFromRead@XMP_HomeGrownLock@@QEAAXXZ 000000018005a75c f   XMP_LibUtils.obj
 0001:00059808       ?ReleaseFromWrite@XMP_HomeGrownLock@@QEAAXXZ 000000018005a808 f   XMP_LibUtils.obj
 0001:000598b8       ?DumpClearString@@YAXAEBV?$basic_string@DU?$char_traits@D@std@@V?$allocator@D@2@@std@@P6AJPEAXPEBDK@Z1@Z 000000018005a8b8 f   XMP_LibUtils.obj
 0001:00059c18       ??0XMP_NamespaceTable@@QEAA@AEBV0@@Z 000000018005ac18 f   XMP_LibUtils.obj
 0001:00059d48       ?Define@XMP_NamespaceTable@@QEAA_NPEBD0PEAPEBDPEAK@Z 000000018005ad48 f   XMP_LibUtils.obj
 0001:0005a2cc       ??1?$pair@V?$basic_string@DU?$char_traits@D@std@@V?$allocator@D@2@@std@@V12@@std@@QEAA@XZ 000000018005b2cc f i XMP_LibUtils.obj
 0001:0005a2ec       ?GetPrefix@XMP_NamespaceTable@@QEBA_NPEBDPEAPEBDPEAK@Z 000000018005b2ec f   XMP_LibUtils.obj
 0001:0005a474       ?GetURI@XMP_NamespaceTable@@QEBA_NPEBDPEAPEBDPEAK@Z 000000018005b474 f   XMP_LibUtils.obj
 0001:0005a66c       ?Dump@XMP_NamespaceTable@@QEBAXP6AJPEAXPEBDK@Z0@Z 000000018005b66c f   XMP_LibUtils.obj
 0001:0005aaf0       ??$insert@AEAU?$pair@V?$basic_string@DU?$char_traits@D@std@@V?$allocator@D@2@@std@@V12@@std@@$0A@@?$map@V?$basic_string@DU?$char_traits@D@std@@V?$allocator@D@2@@std@@V12@U?$less@V?$basic_string@DU?$char_traits@D@std@@V?$allocator@D@2@@std@@@2@V?$allocator@U?$pair@$$CBV?$basic_string@DU?$char_traits@D@std@@V?$allocator@D@2@@std@@V12@@std@@@2@@std@@QEAA?AV?$_Tree_iterator@V?$_Tree_val@U?$_Tree_simple_types@U?$pair@$$CBV?$basic_string@DU?$char_traits@D@std@@V?$allocator@D@2@@std@@V12@@std@@@std@@@std@@@1@V?$_Tree_const_iterator@V?$_Tree_val@U?$_Tree_simple_types@U?$pair@$$CBV?$basic_string@DU?$char_traits@D@std@@V?$allocator@D@2@@std@@V12@@std@@@std@@@std@@@1@AEAU?$pair@V?$basic_string@DU?$char_traits@D@std@@V?$allocator@D@2@@std@@V12@@1@@Z 000000018005baf0 f i XMP_LibUtils.obj
 0001:0005abec       ?find@?$_Tree@V?$_Tmap_traits@V?$basic_string@DU?$char_traits@D@std@@V?$allocator@D@2@@std@@V12@U?$less@V?$basic_string@DU?$char_traits@D@std@@V?$allocator@D@2@@std@@@2@V?$allocator@U?$pair@$$CBV?$basic_string@DU?$char_traits@D@std@@V?$allocator@D@2@@std@@V12@@std@@@2@$0A@@std@@@std@@QEAA?AV?$_Tree_iterator@V?$_Tree_val@U?$_Tree_simple_types@U?$pair@$$CBV?$basic_string@DU?$char_traits@D@std@@V?$allocator@D@2@@std@@V12@@std@@@std@@@std@@@2@AEBV?$basic_string@DU?$char_traits@D@std@@V?$allocator@D@2@@2@@Z 000000018005bbec f i XMP_LibUtils.obj
 0001:0005abec       ?find@?$_Tree@V?$_Tmap_traits@V?$basic_string@DU?$char_traits@D@std@@V?$allocator@D@2@@std@@V12@U?$less@V?$basic_string@DU?$char_traits@D@std@@V?$allocator@D@2@@std@@@2@V?$allocator@U?$pair@$$CBV?$basic_string@DU?$char_traits@D@std@@V?$allocator@D@2@@std@@V12@@std@@@2@$0A@@std@@@std@@QEBA?AV?$_Tree_const_iterator@V?$_Tree_val@U?$_Tree_simple_types@U?$pair@$$CBV?$basic_string@DU?$char_traits@D@std@@V?$allocator@D@2@@std@@V12@@std@@@std@@@std@@@2@AEBV?$basic_string@DU?$char_traits@D@std@@V?$allocator@D@2@@2@@Z 000000018005bbec f i XMP_LibUtils.obj
 0001:0005ac7c       ??4?$map@V?$basic_string@DU?$char_traits@D@std@@V?$allocator@D@2@@std@@V12@U?$less@V?$basic_string@DU?$char_traits@D@std@@V?$allocator@D@2@@std@@@2@V?$allocator@U?$pair@$$CBV?$basic_string@DU?$char_traits@D@std@@V?$allocator@D@2@@std@@V12@@std@@@2@@std@@QEAAAEAV01@AEBV01@@Z 000000018005bc7c f i XMP_LibUtils.obj
 0001:0005ad40       ??$_Find_hint@V?$basic_string@DU?$char_traits@D@std@@V?$allocator@D@2@@std@@@?$_Tree@V?$_Tmap_traits@V?$basic_string@DU?$char_traits@D@std@@V?$allocator@D@2@@std@@V12@U?$less@V?$basic_string@DU?$char_traits@D@std@@V?$allocator@D@2@@std@@@2@V?$allocator@U?$pair@$$CBV?$basic_string@DU?$char_traits@D@std@@V?$allocator@D@2@@std@@V12@@std@@@2@$0A@@std@@@std@@IEBA?AU?$_Tree_find_hint_result@PEAU?$_Tree_node@U?$pair@$$CBV?$basic_string@DU?$char_traits@D@std@@V?$allocator@D@2@@std@@V12@@std@@PEAX@std@@@1@QEAU?$_Tree_node@U?$pair@$$CBV?$basic_string@DU?$char_traits@D@std@@V?$allocator@D@2@@std@@V12@@std@@PEAX@1@AEBV?$basic_string@DU?$char_traits@D@std@@V?$allocator@D@2@@1@@Z 000000018005bd40 f i XMP_LibUtils.obj
 0001:0005afac       ??$_Copy_nodes@$0A@@?$_Tree@V?$_Tmap_traits@V?$basic_string@DU?$char_traits@D@std@@V?$allocator@D@2@@std@@V12@U?$less@V?$basic_string@DU?$char_traits@D@std@@V?$allocator@D@2@@std@@@2@V?$allocator@U?$pair@$$CBV?$basic_string@DU?$char_traits@D@std@@V?$allocator@D@2@@std@@V12@@std@@@2@$0A@@std@@@std@@IEAAPEAU?$_Tree_node@U?$pair@$$CBV?$basic_string@DU?$char_traits@D@std@@V?$allocator@D@2@@std@@V12@@std@@PEAX@1@PEAU21@0@Z 000000018005bfac f i XMP_LibUtils.obj
 0001:0005b098       ??1?$_Erase_tree_and_orphan_guard@V?$allocator@U?$_Tree_node@U?$pair@$$CBV?$basic_string@DU?$char_traits@D@std@@V?$allocator@D@2@@std@@V12@@std@@PEAX@std@@@std@@@?$_Tree_val@U?$_Tree_simple_types@U?$pair@$$CBV?$basic_string@DU?$char_traits@D@std@@V?$allocator@D@2@@std@@V12@@std@@@std@@@std@@QEAA@XZ 000000018005c098 f i XMP_LibUtils.obj
 0001:0005b118       ?GetInterfacePointer@IArrayNode_I@AdobeXMPCore_Int@@UEAAPEAX_KK@Z 000000018005c118 f   IArrayNode_I.obj
 0001:0005b1ec       ?getInterfacePointer@IArrayNode_I@AdobeXMPCore_Int@@MEAAPEAX_KKAEAPEBVIError_v1@AdobeXMPCommon@@@Z 000000018005c1ec f   IArrayNode_I.obj
 0001:0005b234       ?getArrayForm@IArrayNode_I@AdobeXMPCore_Int@@MEBAKAEAPEBVIError_v1@AdobeXMPCommon@@@Z 000000018005c234 f   IArrayNode_I.obj
 0001:0005b280       ?getChildNodeType@IArrayNode_I@AdobeXMPCore_Int@@MEBAKAEAPEBVIError_v1@AdobeXMPCommon@@@Z 000000018005c280 f   IArrayNode_I.obj
 0001:0005b2cc       ?getNodeAtIndex@IArrayNode_I@AdobeXMPCore_Int@@MEAAPEAVINode_v1@AdobeXMPCore@@_KAEAPEBVIError_v1@AdobeXMPCommon@@@Z 000000018005c2cc f   IArrayNode_I.obj
 0001:0005b328       ?insertNodeAtIndex@IArrayNode_I@AdobeXMPCore_Int@@MEAAXPEAVINode_v1@AdobeXMPCore@@_KAEAPEBVIError_v1@AdobeXMPCommon@@@Z 000000018005c328 f   IArrayNode_I.obj
 0001:0005b400       ?removeNodeAtIndex@IArrayNode_I@AdobeXMPCore_Int@@MEAAPEAVINode_v1@AdobeXMPCore@@_KAEAPEBVIError_v1@AdobeXMPCommon@@@Z 000000018005c400 f   IArrayNode_I.obj
 0001:0005b45c       ?replaceNodeAtIndex@IArrayNode_I@AdobeXMPCore_Int@@MEAAPEAVINode_v1@AdobeXMPCore@@PEAV34@_KAEAPEBVIError_v1@AdobeXMPCommon@@@Z 000000018005c45c f   IArrayNode_I.obj
 0001:0005b538       ??$CallUnSafeFunction@VIArrayNode_I@AdobeXMPCore_Int@@PEAXPEAX_KK@AdobeXMPCore_Int@@YAPEAXAEAPEBVIError_v1@AdobeXMPCommon@@PEAVIArrayNode_I@0@PEAXP830@EAAPEAX_KK@ZPEBDK3K@Z 000000018005c538 f i IArrayNode_I.obj
 0001:0005b57c       ??$CallConstUnSafeFunction@VIArrayNode_v1@AdobeXMPCore@@KW4eArrayForm@12@@AdobeXMPCore_Int@@YAKAEAPEBVIError_v1@AdobeXMPCommon@@PEBVIArrayNode_v1@AdobeXMPCore@@KP834@EBA?AW4eArrayForm@34@XZPEBDK@Z 000000018005c57c f i IArrayNode_I.obj
 0001:0005b5b8       ??$CallConstUnSafeFunction@VIArrayNode_v1@AdobeXMPCore@@KW4eNodeType@INode_v1@2@@AdobeXMPCore_Int@@YAKAEAPEBVIError_v1@AdobeXMPCommon@@PEBVIArrayNode_v1@AdobeXMPCore@@KP834@EBA?AW4eNodeType@INode_v1@4@XZPEBDK@Z 000000018005c5b8 f i IArrayNode_I.obj
 0001:0005b5f4       ??$CallUnSafeFunctionReturningSharedPointer@VIArrayNode_v1@AdobeXMPCore@@PEAVINode_v1@2@V32@_K@AdobeXMPCore_Int@@YAPEAVINode_v1@AdobeXMPCore@@AEAPEBVIError_v1@AdobeXMPCommon@@PEAVIArrayNode_v1@2@P852@EAA?AV?$shared_ptr@VINode_v1@AdobeXMPCore@@@std@@_K@ZPEBDK2@Z 000000018005c5f4 f i IArrayNode_I.obj
 0001:0005b718       ??$CallUnSafeFunctionReturningVoid@VIArrayNode_v1@AdobeXMPCore@@AEBV?$shared_ptr@VINode_v1@AdobeXMPCore@@@std@@_K@AdobeXMPCore_Int@@YAXAEAPEBVIError_v1@AdobeXMPCommon@@PEAVIArrayNode_v1@AdobeXMPCore@@P834@EAAXAEBV?$shared_ptr@VINode_v1@AdobeXMPCore@@@std@@_K@ZPEBDK23@Z 000000018005c718 f i IArrayNode_I.obj
 0001:0005b75c       ??$CallUnSafeFunctionReturningSharedPointer@VIArrayNode_v1@AdobeXMPCore@@PEAVINode_v1@2@V32@AEBV?$shared_ptr@VINode_v1@AdobeXMPCore@@@std@@_K@AdobeXMPCore_Int@@YAPEAVINode_v1@AdobeXMPCore@@AEAPEBVIError_v1@AdobeXMPCommon@@PEAVIArrayNode_v1@2@P852@EAA?AV?$shared_ptr@VINode_v1@AdobeXMPCore@@@std@@AEBV67@_K@ZPEBDK23@Z 000000018005c75c f i IArrayNode_I.obj
 0001:0005b888       ??0?$shared_ptr@$$CBVIError_v1@AdobeXMPCommon@@@std@@QEAA@AEBV01@@Z 000000018005c888 f i ArrayNodeImpl.obj
 0001:0005b888       ??0?$shared_ptr@VIError_I@AdobeXMPCore_Int@@@std@@QEAA@AEBV01@@Z 000000018005c888 f i IArrayNode_I.obj
 0001:0005b8b8       ??_9IArrayNode_I@AdobeXMPCore_Int@@$BA@AA 000000018005c8b8 f i IArrayNode_I.obj
 0001:0005b8b8       ??_9IArrayNode_v1@AdobeXMPCore@@$BA@AA 000000018005c8b8 f i IArrayNode_I.obj
 0001:0005b8b8       ??_9ICompositeNode_I@AdobeXMPCore_Int@@$BA@AA 000000018005c8b8 f i ICompositeNode_I.obj
 0001:0005b8b8       ??_9ICompositeNode_v1@AdobeXMPCore@@$BA@AA 000000018005c8b8 f i ICompositeNode_I.obj
 0001:0005b8b8       ??_9IConfigurationManager_I@AdobeXMPCore_Int@@$BA@AA 000000018005c8b8 f i IConfigurationManager_I.obj
 0001:0005b8b8       ??_9IConfigurationManager_v1@AdobeXMPCommon@@$BA@AA 000000018005c8b8 f i IConfigurationManager_I.obj
 0001:0005b8b8       ??_9ICoreConfigurationManager_I@AdobeXMPCore_Int@@$BA@AA 000000018005c8b8 f i ICoreConfigurationManager_I.obj
 0001:0005b8b8       ??_9ICoreObjectFactory_I@AdobeXMPCore_Int@@$BA@AA 000000018005c8b8 f i ICoreObjectFactory_I.obj
 0001:0005b8b8       ??_9IDOMImplementationRegistry_I@AdobeXMPCore_Int@@$BA@AA 000000018005c8b8 f i IDOMImplementationRegistry_I.obj
 0001:0005b8b8       ??_9IDOMImplementationRegistry_v1@AdobeXMPCore@@$BA@AA 000000018005c8b8 f i IDOMImplementationRegistry_I.obj
 0001:0005b8b8       ??_9IDOMParser_I@AdobeXMPCore_Int@@$BA@AA 000000018005c8b8 f i IDOMParser_I.obj
 0001:0005b8b8       ??_9IDOMParser_v1@AdobeXMPCore@@$BA@AA 000000018005c8b8 f i IDOMParser_I.obj
 0001:0005b8b8       ??_9IDOMSerializer_I@AdobeXMPCore_Int@@$BA@AA 000000018005c8b8 f i IDOMSerializer_I.obj
 0001:0005b8b8       ??_9IDOMSerializer_v1@AdobeXMPCore@@$BA@AA 000000018005c8b8 f i IDOMSerializer_I.obj
 0001:0005b8b8       ??_9IError_I@AdobeXMPCore_Int@@$BA@AA 000000018005c8b8 f i IError_I.obj
 0001:0005b8b8       ??_9IError_v1@AdobeXMPCommon@@$BA@AA 000000018005c8b8 f i IError_I.obj
 0001:0005b8b8       ??_9IMetadata_I@AdobeXMPCore_Int@@$BA@AA 000000018005c8b8 f i IMetadata_I.obj
 0001:0005b8b8       ??_9IMetadata_v1@AdobeXMPCore@@$BA@AA 000000018005c8b8 f i IMetadata_I.obj
 0001:0005b8b8       ??_9INameSpacePrefixMap_I@AdobeXMPCore_Int@@$BA@AA 000000018005c8b8 f i INameSpacePrefixMap_I.obj
 0001:0005b8b8       ??_9INameSpacePrefixMap_v1@AdobeXMPCore@@$BA@AA 000000018005c8b8 f i INameSpacePrefixMap_I.obj
 0001:0005b8b8       ??_9INodeIterator_I@AdobeXMPCore_Int@@$BA@AA 000000018005c8b8 f i INodeIterator_I.obj
 0001:0005b8b8       ??_9INodeIterator_v1@AdobeXMPCore@@$BA@AA 000000018005c8b8 f i INodeIterator_I.obj
 0001:0005b8b8       ??_9INode_I@AdobeXMPCore_Int@@$BA@AA 000000018005c8b8 f i INode_I.obj
 0001:0005b8b8       ??_9INode_v1@AdobeXMPCore@@$BA@AA 000000018005c8b8 f i INode_I.obj
 0001:0005b8b8       ??_9IPathSegment_I@AdobeXMPCore_Int@@$BA@AA 000000018005c8b8 f i IPathSegment_I.obj
 0001:0005b8b8       ??_9IPathSegment_v1@AdobeXMPCore@@$BA@AA 000000018005c8b8 f i IPathSegment_I.obj
 0001:0005b8b8       ??_9IPath_I@AdobeXMPCore_Int@@$BA@AA 000000018005c8b8 f i IPath_I.obj
 0001:0005b8b8       ??_9IPath_v1@AdobeXMPCore@@$BA@AA 000000018005c8b8 f i IPath_I.obj
 0001:0005b8b8       ??_9ISimpleNode_I@AdobeXMPCore_Int@@$BA@AA 000000018005c8b8 f i ISimpleNode_I.obj
 0001:0005b8b8       ??_9ISimpleNode_v1@AdobeXMPCore@@$BA@AA 000000018005c8b8 f i ISimpleNode_I.obj
 0001:0005b8b8       ??_9IStructureNode_I@AdobeXMPCore_Int@@$BA@AA 000000018005c8b8 f i IStructureNode_I.obj
 0001:0005b8b8       ??_9IStructureNode_v1@AdobeXMPCore@@$BA@AA 000000018005c8b8 f i IStructureNode_I.obj
 0001:0005b8b8       ??_9IUTF8String_I@AdobeXMPCore_Int@@$BA@AA 000000018005c8b8 f i IUTF8String_I.obj
 0001:0005b8b8       ??_9IUTF8String_v1@AdobeXMPCommon@@$BA@AA 000000018005c8b8 f i IUTF8String.obj
 0001:0005b8c0       ??_9IArrayNode_v1@AdobeXMPCore@@$BBA@AA 000000018005c8c0 f i IArrayNode_I.obj
 0001:0005b8c0       ??_9ICompositeNode_v1@AdobeXMPCore@@$BBA@AA 000000018005c8c0 f i ICompositeNode_I.obj
 0001:0005b8c0       ??_9IConfigurationManager_v1@AdobeXMPCommon@@$BBA@AA 000000018005c8c0 f i IConfigurationManager_I.obj
 0001:0005b8c0       ??_9IDOMParser_v1@AdobeXMPCore@@$BBA@AA 000000018005c8c0 f i IDOMParser_I.obj
 0001:0005b8c0       ??_9IError_v1@AdobeXMPCommon@@$BBA@AA 000000018005c8c0 f i IError_I.obj
 0001:0005b8c0       ??_9INameSpacePrefixMap_v1@AdobeXMPCore@@$BBA@AA 000000018005c8c0 f i INameSpacePrefixMap_I.obj
 0001:0005b8c0       ??_9INodeIterator_v1@AdobeXMPCore@@$BBA@AA 000000018005c8c0 f i INodeIterator_I.obj
 0001:0005b8c0       ??_9INode_v1@AdobeXMPCore@@$BBA@AA 000000018005c8c0 f i INode_I.obj
 0001:0005b8c0       ??_9IPathSegment_v1@AdobeXMPCore@@$BBA@AA 000000018005c8c0 f i IPathSegment_I.obj
 0001:0005b8c0       ??_9IPath_v1@AdobeXMPCore@@$BBA@AA 000000018005c8c0 f i IPath_I.obj
 0001:0005b8c0       ??_9ISimpleNode_v1@AdobeXMPCore@@$BBA@AA 000000018005c8c0 f i ISimpleNode_I.obj
 0001:0005b8c0       ??_9IStructureNode_v1@AdobeXMPCore@@$BBA@AA 000000018005c8c0 f i IStructureNode_I.obj
 0001:0005b8c0       ??_9IUTF8String_v1@AdobeXMPCommon@@$BBA@AA 000000018005c8c0 f i IUTF8String_I.obj
 0001:0005b8c0       ??_9IVersionable@AdobeXMPCommon@@$BBA@AA 000000018005c8c0 f i IConfigurationManager.obj
 0001:0005b8c8       ??_9IArrayNode_v1@AdobeXMPCore@@$BCA@AA 000000018005c8c8 f i IArrayNode_I.obj
 0001:0005b8c8       ??_9ICompositeNode_v1@AdobeXMPCore@@$BCA@AA 000000018005c8c8 f i ICompositeNode_I.obj
 0001:0005b8c8       ??_9IError_v1@AdobeXMPCommon@@$BCA@AA 000000018005c8c8 f i IError_I.obj
 0001:0005b8c8       ??_9INameSpacePrefixMap_v1@AdobeXMPCore@@$BCA@AA 000000018005c8c8 f i INameSpacePrefixMap_I.obj
 0001:0005b8c8       ??_9INode_v1@AdobeXMPCore@@$BCA@AA 000000018005c8c8 f i INode_I.obj
 0001:0005b8c8       ??_9IPathSegment_v1@AdobeXMPCore@@$BCA@AA 000000018005c8c8 f i IPathSegment_I.obj
 0001:0005b8c8       ??_9IPath_v1@AdobeXMPCore@@$BCA@AA 000000018005c8c8 f i IPath_I.obj
 0001:0005b8c8       ??_9IStructureNode_v1@AdobeXMPCore@@$BCA@AA 000000018005c8c8 f i IStructureNode_I.obj
 0001:0005b8c8       ??_9IUTF8String_v1@AdobeXMPCommon@@$BCA@AA 000000018005c8c8 f i IUTF8String.obj
 0001:0005b8d0       ??_9IArrayNode_v1@AdobeXMPCore@@$B7AA 000000018005c8d0 f i IArrayNode_I.obj
 0001:0005b8d0       ??_9ICompositeNode_v1@AdobeXMPCore@@$B7AA 000000018005c8d0 f i ICompositeNode_I.obj
 0001:0005b8d0       ??_9IConfigurationManager_v1@AdobeXMPCommon@@$B7AA 000000018005c8d0 f i IConfigurationManager_I.obj
 0001:0005b8d0       ??_9IDOMImplementationRegistry_I@AdobeXMPCore_Int@@$B7AA 000000018005c8d0 f i IDOMImplementationRegistry_I.obj
 0001:0005b8d0       ??_9IDOMImplementationRegistry_v1@AdobeXMPCore@@$B7AA 000000018005c8d0 f i IDOMImplementationRegistry_I.obj
 0001:0005b8d0       ??_9IDOMParser_v1@AdobeXMPCore@@$B7AA 000000018005c8d0 f i IDOMParser_I.obj
 0001:0005b8d0       ??_9IDOMSerializer_v1@AdobeXMPCore@@$B7AA 000000018005c8d0 f i IDOMSerializer_I.obj
 0001:0005b8d0       ??_9IError_v1@AdobeXMPCommon@@$B7AA 000000018005c8d0 f i IError_I.obj
 0001:0005b8d0       ??_9INameSpacePrefixMap_v1@AdobeXMPCore@@$B7AA 000000018005c8d0 f i INameSpacePrefixMap_I.obj
 0001:0005b8d0       ??_9INodeIterator_v1@AdobeXMPCore@@$B7AA 000000018005c8d0 f i INodeIterator_I.obj
 0001:0005b8d0       ??_9INode_v1@AdobeXMPCore@@$B7AA 000000018005c8d0 f i INode_I.obj
 0001:0005b8d0       ??_9IPathSegment_v1@AdobeXMPCore@@$B7AA 000000018005c8d0 f i IPathSegment_I.obj
 0001:0005b8d0       ??_9IPath_v1@AdobeXMPCore@@$B7AA 000000018005c8d0 f i IPath_I.obj
 0001:0005b8d0       ??_9ISharedObject@AdobeXMPCommon@@$B7AA 000000018005c8d0 f i INodeIterator_I.obj
 0001:0005b8d0       ??_9ISimpleNode_v1@AdobeXMPCore@@$B7AA 000000018005c8d0 f i ISimpleNode_I.obj
 0001:0005b8d0       ??_9IStructureNode_v1@AdobeXMPCore@@$B7AA 000000018005c8d0 f i IStructureNode_I.obj
 0001:0005b8d0       ??_9IUTF8String_v1@AdobeXMPCommon@@$B7AA 000000018005c8d0 f i IUTF8String.obj
 0001:0005b8d0       ??_9NodeImpl@AdobeXMPCore_Int@@$B7AA 000000018005c8d0 f i ArrayNodeImpl.obj
 0001:0005b8d0       ??_9SharedObjectImpl@AdobeXMPCore_Int@@$B7AA 000000018005c8d0 f i ArrayNodeImpl.obj
 0001:0005b8d8       ??_9IArrayNode_v1@AdobeXMPCore@@$BBI@AA 000000018005c8d8 f i IArrayNode_I.obj
 0001:0005b8d8       ??_9ICompositeNode_v1@AdobeXMPCore@@$BBI@AA 000000018005c8d8 f i ICompositeNode_I.obj
 0001:0005b8d8       ??_9IConfigurationManager_v1@AdobeXMPCommon@@$BBI@AA 000000018005c8d8 f i IConfigurationManager_I.obj
 0001:0005b8d8       ??_9IError_v1@AdobeXMPCommon@@$BBI@AA 000000018005c8d8 f i IError_I.obj
 0001:0005b8d8       ??_9INameSpacePrefixMap_v1@AdobeXMPCore@@$BBI@AA 000000018005c8d8 f i INameSpacePrefixMap_I.obj
 0001:0005b8d8       ??_9INode_v1@AdobeXMPCore@@$BBI@AA 000000018005c8d8 f i INode_I.obj
 0001:0005b8d8       ??_9IPath_v1@AdobeXMPCore@@$BBI@AA 000000018005c8d8 f i IPath_I.obj
 0001:0005b8d8       ??_9ISimpleNode_v1@AdobeXMPCore@@$BBI@AA 000000018005c8d8 f i ISimpleNode_I.obj
 0001:0005b8d8       ??_9IStructureNode_v1@AdobeXMPCore@@$BBI@AA 000000018005c8d8 f i IStructureNode_I.obj
 0001:0005b8d8       ??_9IUTF8String_v1@AdobeXMPCommon@@$BBI@AA 000000018005c8d8 f i IUTF8String_I.obj
 0001:0005b8e0       ??_9IArrayNode_v1@AdobeXMPCore@@$BCI@AA 000000018005c8e0 f i IArrayNode_I.obj
 0001:0005b8e0       ??_9ICompositeNode_v1@AdobeXMPCore@@$BCI@AA 000000018005c8e0 f i ICompositeNode_I.obj
 0001:0005b8e0       ??_9IError_v1@AdobeXMPCommon@@$BCI@AA 000000018005c8e0 f i IError_I.obj
 0001:0005b8e0       ??_9INameSpacePrefixMap_v1@AdobeXMPCore@@$BCI@AA 000000018005c8e0 f i INameSpacePrefixMap_I.obj
 0001:0005b8e0       ??_9INode_v1@AdobeXMPCore@@$BCI@AA 000000018005c8e0 f i INode_I.obj
 0001:0005b8e0       ??_9IUTF8String_v1@AdobeXMPCommon@@$BCI@AA 000000018005c8e0 f i IUTF8String.obj
 0001:0005b8e8       ?MakeShared@IPath_v1@AdobeXMPCore@@SA?AV?$shared_ptr@$$CBVIPath_v1@AdobeXMPCore@@@std@@PEBV12@@Z 000000018005c8e8 f i ICompositeNode_I.obj
 0001:0005b970       ?GetInterfacePointer@ICompositeNode_I@AdobeXMPCore_Int@@UEAAPEAX_KK@Z 000000018005c970 f   ICompositeNode_I.obj
 0001:0005b97c       ?getInterfacePointer@ICompositeNode_I@AdobeXMPCore_Int@@MEAAPEAX_KKAEAPEBVIError_v1@AdobeXMPCommon@@@Z 000000018005c97c f   ICompositeNode_I.obj
 0001:0005b9c4       ?GetInterfacePointerInternal@ICompositeNode_I@AdobeXMPCore_Int@@IEAAPEAX_KK_N@Z 000000018005c9c4 f   ICompositeNode_I.obj
 0001:0005bab4       ?getNodeTypeAtPath@ICompositeNode_I@AdobeXMPCore_Int@@MEBAKPEBVIPath_v1@AdobeXMPCore@@AEAPEBVIError_v1@AdobeXMPCommon@@@Z 000000018005cab4 f   ICompositeNode_I.obj
 0001:0005bb58       ?getNodeAtPath@ICompositeNode_I@AdobeXMPCore_Int@@MEAAPEAVINode_v1@AdobeXMPCore@@PEBVIPath_v1@4@AEAPEBVIError_v1@AdobeXMPCommon@@@Z 000000018005cb58 f   ICompositeNode_I.obj
 0001:0005bc08       ?appendNode@ICompositeNode_I@AdobeXMPCore_Int@@MEAAXPEAVINode_v1@AdobeXMPCore@@AEAPEBVIError_v1@AdobeXMPCommon@@@Z 000000018005cc08 f   ICompositeNode_I.obj
 0001:0005bccc       ?insertNodeAtPath@ICompositeNode_I@AdobeXMPCore_Int@@MEAAXPEAVINode_v1@AdobeXMPCore@@PEBVIPath_v1@4@AEAPEBVIError_v1@AdobeXMPCommon@@@Z 000000018005cccc f   ICompositeNode_I.obj
 0001:0005bdf0       ?replaceNodeAtPath@ICompositeNode_I@AdobeXMPCore_Int@@MEAAPEAVINode_v1@AdobeXMPCore@@PEAV34@PEBVIPath_v1@4@AEAPEBVIError_v1@AdobeXMPCommon@@@Z 000000018005cdf0 f   ICompositeNode_I.obj
 0001:0005bf18       ?removeNodeAtPath@ICompositeNode_I@AdobeXMPCore_Int@@MEAAPEAVINode_v1@AdobeXMPCore@@PEBVIPath_v1@4@AEAPEBVIError_v1@AdobeXMPCommon@@@Z 000000018005cf18 f   ICompositeNode_I.obj
 0001:0005bfc8       ?iterator@ICompositeNode_I@AdobeXMPCore_Int@@MEAAPEAVINodeIterator_v1@AdobeXMPCore@@AEAPEBVIError_v1@AdobeXMPCommon@@@Z 000000018005cfc8 f   ICompositeNode_I.obj
 0001:0005c014       ??$CallUnSafeFunction@VICompositeNode_I@AdobeXMPCore_Int@@PEAXPEAX_KK@AdobeXMPCore_Int@@YAPEAXAEAPEBVIError_v1@AdobeXMPCommon@@PEAVICompositeNode_I@0@PEAXP830@EAAPEAX_KK@ZPEBDK3K@Z 000000018005d014 f i ICompositeNode_I.obj
 0001:0005c058       ??$CallConstUnSafeFunction@VICompositeNode_v1@AdobeXMPCore@@KW4eNodeType@INode_v1@2@AEBV?$shared_ptr@$$CBVIPath_v1@AdobeXMPCore@@@std@@@AdobeXMPCore_Int@@YAKAEAPEBVIError_v1@AdobeXMPCommon@@PEBVICompositeNode_v1@AdobeXMPCore@@KP834@EBA?AW4eNodeType@INode_v1@4@AEBV?$shared_ptr@$$CBVIPath_v1@AdobeXMPCore@@@std@@@ZPEBDK2@Z 000000018005d058 f i ICompositeNode_I.obj
 0001:0005c09c       ??$CallUnSafeFunctionReturningSharedPointer@VICompositeNode_v1@AdobeXMPCore@@PEAVINode_v1@2@V32@AEBV?$shared_ptr@$$CBVIPath_v1@AdobeXMPCore@@@std@@@AdobeXMPCore_Int@@YAPEAVINode_v1@AdobeXMPCore@@AEAPEBVIError_v1@AdobeXMPCommon@@PEAVICompositeNode_v1@2@P852@EAA?AV?$shared_ptr@VINode_v1@AdobeXMPCore@@@std@@AEBV?$shared_ptr@$$CBVIPath_v1@AdobeXMPCore@@@7@@ZPEBDK2@Z 000000018005d09c f i ICompositeNode_I.obj
 0001:0005c1c0       ??$CallUnSafeFunctionReturningVoid@VICompositeNode_v1@AdobeXMPCore@@AEBV?$shared_ptr@VINode_v1@AdobeXMPCore@@@std@@@AdobeXMPCore_Int@@YAXAEAPEBVIError_v1@AdobeXMPCommon@@PEAVICompositeNode_v1@AdobeXMPCore@@P834@EAAXAEBV?$shared_ptr@VINode_v1@AdobeXMPCore@@@std@@@ZPEBDK2@Z 000000018005d1c0 f i ICompositeNode_I.obj
 0001:0005c1fc       ??$CallUnSafeFunctionReturningVoid@VICompositeNode_v1@AdobeXMPCore@@AEBV?$shared_ptr@VINode_v1@AdobeXMPCore@@@std@@AEBV?$shared_ptr@$$CBVIPath_v1@AdobeXMPCore@@@4@@AdobeXMPCore_Int@@YAXAEAPEBVIError_v1@AdobeXMPCommon@@PEAVICompositeNode_v1@AdobeXMPCore@@P834@EAAXAEBV?$shared_ptr@VINode_v1@AdobeXMPCore@@@std@@AEBV?$shared_ptr@$$CBVIPath_v1@AdobeXMPCore@@@6@@ZPEBDK23@Z 000000018005d1fc f i ICompositeNode_I.obj
 0001:0005c240       ??$CallUnSafeFunctionReturningSharedPointer@VICompositeNode_v1@AdobeXMPCore@@PEAVINode_v1@2@V32@AEBV?$shared_ptr@VINode_v1@AdobeXMPCore@@@std@@AEBV?$shared_ptr@$$CBVIPath_v1@AdobeXMPCore@@@5@@AdobeXMPCore_Int@@YAPEAVINode_v1@AdobeXMPCore@@AEAPEBVIError_v1@AdobeXMPCommon@@PEAVICompositeNode_v1@2@P852@EAA?AV?$shared_ptr@VINode_v1@AdobeXMPCore@@@std@@AEBV67@AEBV?$shared_ptr@$$CBVIPath_v1@AdobeXMPCore@@@7@@ZPEBDK23@Z 000000018005d240 f i ICompositeNode_I.obj
 0001:0005c36c       ??$CallUnSafeFunctionReturningSharedPointer@VICompositeNode_v1@AdobeXMPCore@@PEAVINodeIterator_v1@2@V32@@AdobeXMPCore_Int@@YAPEAVINodeIterator_v1@AdobeXMPCore@@AEAPEBVIError_v1@AdobeXMPCommon@@PEAVICompositeNode_v1@2@P852@EAA?AV?$shared_ptr@VINodeIterator_v1@AdobeXMPCore@@@std@@XZPEBDK@Z 000000018005d36c f i ICompositeNode_I.obj
 0001:0005c48c       ??_9ICompositeNode_v1@AdobeXMPCore@@$BDA@AA 000000018005d48c f i ICompositeNode_I.obj
 0001:0005c48c       ??_9INameSpacePrefixMap_v1@AdobeXMPCore@@$BDA@AA 000000018005d48c f i INameSpacePrefixMap_I.obj
 0001:0005c48c       ??_9INode_v1@AdobeXMPCore@@$BDA@AA 000000018005d48c f i INode_I.obj
 0001:0005c48c       ??_9IUTF8String_v1@AdobeXMPCommon@@$BDA@AA 000000018005d48c f i IUTF8String_I.obj
 0001:0005c494       ?GetInterfacePointer@ICoreConfigurationManager_I@AdobeXMPCore_Int@@UEAAPEAX_KK@Z 000000018005d494 f   ICoreConfigurationManager_I.obj
 0001:0005c568       ?getInterfacePointer@ICoreConfigurationManager_I@AdobeXMPCore_Int@@MEAAPEAX_KKAEAPEBVIError_v1@AdobeXMPCommon@@@Z 000000018005d568 f   ICoreConfigurationManager_I.obj
 0001:0005c5b0       ??$CallUnSafeFunction@VICoreConfigurationManager_I@AdobeXMPCore_Int@@PEAXPEAX_KK@AdobeXMPCore_Int@@YAPEAXAEAPEBVIError_v1@AdobeXMPCommon@@PEAVICoreConfigurationManager_I@0@PEAXP830@EAAPEAX_KK@ZPEBDK3K@Z 000000018005d5b0 f i ICoreConfigurationManager_I.obj
 0001:0005c5f4       ?GetInterfacePointer@ICoreObjectFactory_I@AdobeXMPCore_Int@@UEAAPEAX_KK@Z 000000018005d5f4 f   ICoreObjectFactory_I.obj
 0001:0005c704       ?getInterfacePointer@ICoreObjectFactory_I@AdobeXMPCore_Int@@MEAAPEAX_KKAEAPEBVIError_v1@AdobeXMPCommon@@@Z 000000018005d704 f   ICoreObjectFactory_I.obj
 0001:0005c74c       ??$CallUnSafeFunction@VICoreObjectFactory_I@AdobeXMPCore_Int@@PEAXPEAX_KK@AdobeXMPCore_Int@@YAPEAXAEAPEBVIError_v1@AdobeXMPCommon@@PEAVICoreObjectFactory_I@0@PEAXP830@EAAPEAX_KK@ZPEBDK3K@Z 000000018005d74c f i ICoreObjectFactory_I.obj
 0001:0005c790       ?GetInterfacePointer@IDOMImplementationRegistry_I@AdobeXMPCore_Int@@UEAAPEAX_KK@Z 000000018005d790 f   IDOMImplementationRegistry_I.obj
 0001:0005c83c       ?getInterfacePointer@IDOMImplementationRegistry_I@AdobeXMPCore_Int@@MEAAPEAX_KKAEAPEBVIError_v1@AdobeXMPCommon@@@Z 000000018005d83c f   IDOMImplementationRegistry_I.obj
 0001:0005c884       ?getParser@IDOMImplementationRegistry_I@AdobeXMPCore_Int@@MEBAPEAVIDOMParser_v1@AdobeXMPCore@@PEBDAEAPEBVIError_v1@AdobeXMPCommon@@@Z 000000018005d884 f   IDOMImplementationRegistry_I.obj
 0001:0005c8d8       ?getSerializer@IDOMImplementationRegistry_I@AdobeXMPCore_Int@@MEBAPEAVIDOMSerializer_v1@AdobeXMPCore@@PEBDAEAPEBVIError_v1@AdobeXMPCommon@@@Z 000000018005d8d8 f   IDOMImplementationRegistry_I.obj
 0001:0005c92c       ?registerParser@IDOMImplementationRegistry_I@AdobeXMPCore_Int@@MEAAKPEBDPEAVIClientDOMParser_v1@AdobeXMPCore@@AEAPEBVIError_v1@AdobeXMPCommon@@@Z 000000018005d92c f   IDOMImplementationRegistry_I.obj
 0001:0005ca2c       ?registerSerializer@IDOMImplementationRegistry_I@AdobeXMPCore_Int@@MEAAKPEBDPEAVIClientDOMSerializer_v1@AdobeXMPCore@@AEAPEBVIError_v1@AdobeXMPCommon@@@Z 000000018005da2c f   IDOMImplementationRegistry_I.obj
 0001:0005cb2c       ?RegisterParser@IDOMImplementationRegistry_I@AdobeXMPCore_Int@@UEAA_NPEBDPEAVIClientDOMParser_v1@AdobeXMPCore@@@Z 000000018005db2c f   IDOMImplementationRegistry_I.obj
 0001:0005cc0c       ?RegisterSerializer@IDOMImplementationRegistry_I@AdobeXMPCore_Int@@UEAA_NPEBDPEAVIClientDOMSerializer_v1@AdobeXMPCore@@@Z 000000018005dc0c f   IDOMImplementationRegistry_I.obj
 0001:0005ccf0       ??$CallUnSafeFunction@VIDOMImplementationRegistry_I@AdobeXMPCore_Int@@PEAXPEAX_KK@AdobeXMPCore_Int@@YAPEAXAEAPEBVIError_v1@AdobeXMPCommon@@PEAVIDOMImplementationRegistry_I@0@PEAXP830@EAAPEAX_KK@ZPEBDK3K@Z 000000018005dcf0 f i IDOMImplementationRegistry_I.obj
 0001:0005cd3c       ??$CallConstUnSafeFunctionReturningSharedPointer@VIDOMImplementationRegistry_v1@AdobeXMPCore@@PEAVIDOMParser_v1@2@V32@PEBD@AdobeXMPCore_Int@@YAPEAVIDOMParser_v1@AdobeXMPCore@@AEAPEBVIError_v1@AdobeXMPCommon@@PEBVIDOMImplementationRegistry_v1@2@P852@EBA?AV?$shared_ptr@VIDOMParser_v1@AdobeXMPCore@@@std@@PEBD@Z2K2@Z 000000018005dd3c f i IDOMImplementationRegistry_I.obj
 0001:0005ce60       ??$CallConstUnSafeFunctionReturningSharedPointer@VIDOMImplementationRegistry_v1@AdobeXMPCore@@PEAVIDOMSerializer_v1@2@V32@PEBD@AdobeXMPCore_Int@@YAPEAVIDOMSerializer_v1@AdobeXMPCore@@AEAPEBVIError_v1@AdobeXMPCommon@@PEBVIDOMImplementationRegistry_v1@2@P852@EBA?AV?$shared_ptr@VIDOMSerializer_v1@AdobeXMPCore@@@std@@PEBD@Z2K2@Z 000000018005de60 f i IDOMImplementationRegistry_I.obj
 0001:0005cf84       ??$CallUnSafeFunction@VIDOMImplementationRegistry_I@AdobeXMPCore_Int@@K_NPEBDAEBV?$shared_ptr@$$CBVIDOMParser_v1@AdobeXMPCore@@@std@@@AdobeXMPCore_Int@@YAKAEAPEBVIError_v1@AdobeXMPCommon@@PEAVIDOMImplementationRegistry_I@0@KP830@EAA_NPEBDAEBV?$shared_ptr@$$CBVIDOMParser_v1@AdobeXMPCore@@@std@@@Z2K23@Z 000000018005df84 f i IDOMImplementationRegistry_I.obj
 0001:0005cfd0       ??$CallUnSafeFunction@VIDOMImplementationRegistry_I@AdobeXMPCore_Int@@K_NPEBDAEBV?$shared_ptr@$$CBVIDOMSerializer_v1@AdobeXMPCore@@@std@@@AdobeXMPCore_Int@@YAKAEAPEBVIError_v1@AdobeXMPCommon@@PEAVIDOMImplementationRegistry_I@0@KP830@EAA_NPEBDAEBV?$shared_ptr@$$CBVIDOMSerializer_v1@AdobeXMPCore@@@std@@@Z2K23@Z 000000018005dfd0 f i IDOMImplementationRegistry_I.obj
 0001:0005d01c       ?GetInterfacePointer@IDOMParser_I@AdobeXMPCore_Int@@UEAAPEAX_KK@Z 000000018005e01c f   IDOMParser_I.obj
 0001:0005d0c8       ?getInterfacePointer@IDOMParser_I@AdobeXMPCore_Int@@MEAAPEAX_KKAEAPEBVIError_v1@AdobeXMPCommon@@@Z 000000018005e0c8 f   IDOMParser_I.obj
 0001:0005d110       ?clone@IDOMParser_I@AdobeXMPCore_Int@@MEBAPEAVIDOMParser_v1@AdobeXMPCore@@AEAPEBVIError_v1@AdobeXMPCommon@@@Z 000000018005e110 f   IDOMParser_I.obj
 0001:0005d15c       ?parse@IDOMParser_I@AdobeXMPCore_Int@@MEAAPEAVIMetadata_v1@AdobeXMPCore@@PEBD_KAEAPEBVIError_v1@AdobeXMPCommon@@@Z 000000018005e15c f   IDOMParser_I.obj
 0001:0005d1b4       ?parseWithSpecificAction@IDOMParser_I@AdobeXMPCore_Int@@MEAAXPEBD_KKPEAVINode_v1@AdobeXMPCore@@AEAPEBVIError_v1@AdobeXMPCommon@@@Z 000000018005e1b4 f   IDOMParser_I.obj
 0001:0005d2b0       ??$CallUnSafeFunction@VIDOMParser_I@AdobeXMPCore_Int@@PEAXPEAX_KK@AdobeXMPCore_Int@@YAPEAXAEAPEBVIError_v1@AdobeXMPCommon@@PEAVIDOMParser_I@0@PEAXP830@EAAPEAX_KK@ZPEBDK3K@Z 000000018005e2b0 f i IDOMParser_I.obj
 0001:0005d2fc       ??$CallConstUnSafeFunctionReturningSharedPointer@VIDOMParser_v1@AdobeXMPCore@@PEAV12@V12@@AdobeXMPCore_Int@@YAPEAVIDOMParser_v1@AdobeXMPCore@@AEAPEBVIError_v1@AdobeXMPCommon@@PEBV12@P812@EBA?AV?$shared_ptr@VIDOMParser_v1@AdobeXMPCore@@@std@@XZPEBDK@Z 000000018005e2fc f i IDOMParser_I.obj
 0001:0005d41c       ??$CallUnSafeFunctionReturningSharedPointer@VIDOMParser_v1@AdobeXMPCore@@PEAVIMetadata_v1@2@V32@PEBD_K@AdobeXMPCore_Int@@YAPEAVIMetadata_v1@AdobeXMPCore@@AEAPEBVIError_v1@AdobeXMPCommon@@PEAVIDOMParser_v1@2@P852@EAA?AV?$shared_ptr@VIMetadata_v1@AdobeXMPCore@@@std@@PEBD_K@Z2K23@Z 000000018005e41c f i IDOMParser_I.obj
 0001:0005d548       ??$CallUnSafeFunctionReturningVoid@VIDOMParser_v1@AdobeXMPCore@@PEBD_KW4eActionType@12@AEAV?$shared_ptr@VINode_v1@AdobeXMPCore@@@std@@@AdobeXMPCore_Int@@YAXAEAPEBVIError_v1@AdobeXMPCommon@@PEAVIDOMParser_v1@AdobeXMPCore@@P834@EAAXPEBD_KW4eActionType@34@AEAV?$shared_ptr@VINode_v1@AdobeXMPCore@@@std@@@Z2K2345@Z 000000018005e548 f i IDOMParser_I.obj
 0001:0005d5a8       ?GetInterfacePointer@IDOMSerializer_I@AdobeXMPCore_Int@@UEAAPEAX_KK@Z 000000018005e5a8 f   IDOMSerializer_I.obj
 0001:0005d654       ?getInterfacePointer@IDOMSerializer_I@AdobeXMPCore_Int@@MEAAPEAX_KKAEAPEBVIError_v1@AdobeXMPCommon@@@Z 000000018005e654 f   IDOMSerializer_I.obj
 0001:0005d69c       ?clone@IDOMSerializer_I@AdobeXMPCore_Int@@MEBAPEAVIDOMSerializer_v1@AdobeXMPCore@@AEAPEBVIError_v1@AdobeXMPCommon@@@Z 000000018005e69c f   IDOMSerializer_I.obj
 0001:0005d6e8       ?serialize@IDOMSerializer_I@AdobeXMPCore_Int@@MEAAPEAVIUTF8String_v1@AdobeXMPCommon@@PEAVINode_v1@AdobeXMPCore@@PEBVINameSpacePrefixMap_v1@6@AEAPEBVIError_v1@4@@Z 000000018005e6e8 f   IDOMSerializer_I.obj
 0001:0005d874       ??$CallUnSafeFunction@VIDOMSerializer_I@AdobeXMPCore_Int@@PEAXPEAX_KK@AdobeXMPCore_Int@@YAPEAXAEAPEBVIError_v1@AdobeXMPCommon@@PEAVIDOMSerializer_I@0@PEAXP830@EAAPEAX_KK@ZPEBDK3K@Z 000000018005e874 f i IDOMSerializer_I.obj
 0001:0005d8c0       ??$CallConstUnSafeFunctionReturningSharedPointer@VIDOMSerializer_v1@AdobeXMPCore@@PEAV12@V12@@AdobeXMPCore_Int@@YAPEAVIDOMSerializer_v1@AdobeXMPCore@@AEAPEBVIError_v1@AdobeXMPCommon@@PEBV12@P812@EBA?AV?$shared_ptr@VIDOMSerializer_v1@AdobeXMPCore@@@std@@XZPEBDK@Z 000000018005e8c0 f i IDOMSerializer_I.obj
 0001:0005d9e0       ??$CallUnSafeFunctionReturningSharedPointer@VIDOMSerializer_v1@AdobeXMPCore@@PEAVIUTF8String_v1@AdobeXMPCommon@@V34@AEBV?$shared_ptr@VINode_v1@AdobeXMPCore@@@std@@AEBV?$shared_ptr@$$CBVINameSpacePrefixMap_v1@AdobeXMPCore@@@6@@AdobeXMPCore_Int@@YAPEAVIUTF8String_v1@AdobeXMPCommon@@AEAPEBVIError_v1@2@PEAVIDOMSerializer_v1@AdobeXMPCore@@P845@EAA?AV?$shared_ptr@VIUTF8String_v1@AdobeXMPCommon@@@std@@AEBV?$shared_ptr@VINode_v1@AdobeXMPCore@@@7@AEBV?$shared_ptr@$$CBVINameSpacePrefixMap_v1@AdobeXMPCore@@@7@@ZPEBDK23@Z 000000018005e9e0 f i IDOMSerializer_I.obj
 0001:0005db0c       ?GetInterfacePointer@IMetadata_I@AdobeXMPCore_Int@@UEAAPEAX_KK@Z 000000018005eb0c f   IMetadata_I.obj
 0001:0005dbe0       ?getInterfacePointer@IMetadata_I@AdobeXMPCore_Int@@MEAAPEAX_KKAEAPEBVIError_v1@AdobeXMPCommon@@@Z 000000018005ebe0 f   IMetadata_I.obj
 0001:0005dc28       ?getAboutURI@IMetadata_I@AdobeXMPCore_Int@@MEBAPEBVIUTF8String_v1@AdobeXMPCommon@@AEAPEBVIError_v1@4@@Z 000000018005ec28 f   IMetadata_I.obj
 0001:0005dc74       ??$CallUnSafeFunction@VIMetadata_I@AdobeXMPCore_Int@@PEAXPEAX_KK@AdobeXMPCore_Int@@YAPEAXAEAPEBVIError_v1@AdobeXMPCommon@@PEAVIMetadata_I@0@PEAXP830@EAAPEAX_KK@ZPEBDK3K@Z 000000018005ec74 f i IMetadata_I.obj
 0001:0005dcb8       ??$CallConstUnSafeFunctionReturningSharedPointer@VIMetadata_v1@AdobeXMPCore@@PEBVIUTF8String_v1@AdobeXMPCommon@@$$CBV34@@AdobeXMPCore_Int@@YAPEBVIUTF8String_v1@AdobeXMPCommon@@AEAPEBVIError_v1@2@PEBVIMetadata_v1@AdobeXMPCore@@P845@EBA?AV?$shared_ptr@$$CBVIUTF8String_v1@AdobeXMPCommon@@@std@@XZPEBDK@Z 000000018005ecb8 f i IMetadata_I.obj
 0001:0005ddd8       ?GetInterfacePointer@INameSpacePrefixMap_I@AdobeXMPCore_Int@@UEAAPEAX_KK@Z 000000018005edd8 f   INameSpacePrefixMap_I.obj
 0001:0005de84       ?getInterfacePointer@INameSpacePrefixMap_I@AdobeXMPCore_Int@@MEAAPEAX_KKAEAPEBVIError_v1@AdobeXMPCommon@@@Z 000000018005ee84 f   INameSpacePrefixMap_I.obj
 0001:0005decc       ?insert@INameSpacePrefixMap_I@AdobeXMPCore_Int@@MEAAKPEBD_K01AEAPEBVIError_v1@AdobeXMPCommon@@@Z 000000018005eecc f   INameSpacePrefixMap_I.obj
 0001:0005df38       ?remove@INameSpacePrefixMap_I@AdobeXMPCore_Int@@MEAAKKPEBD_KAEAPEBVIError_v1@AdobeXMPCommon@@@Z 000000018005ef38 f   INameSpacePrefixMap_I.obj
 0001:0005dfa8       ?isPresent@INameSpacePrefixMap_I@AdobeXMPCore_Int@@MEBAKKPEBD_KAEAPEBVIError_v1@AdobeXMPCommon@@@Z 000000018005efa8 f   INameSpacePrefixMap_I.obj
 0001:0005e018       ?get@INameSpacePrefixMap_I@AdobeXMPCore_Int@@MEBAPEBVIUTF8String_v1@AdobeXMPCommon@@KPEBD_KAEAPEBVIError_v1@4@@Z 000000018005f018 f   INameSpacePrefixMap_I.obj
 0001:0005e080       ?clone@INameSpacePrefixMap_I@AdobeXMPCore_Int@@MEBAPEAVINameSpacePrefixMap_v1@AdobeXMPCore@@AEAPEBVIError_v1@AdobeXMPCommon@@@Z 000000018005f080 f   INameSpacePrefixMap_I.obj
 0001:0005e0cc       ??$CallUnSafeFunction@VINameSpacePrefixMap_I@AdobeXMPCore_Int@@PEAXPEAX_KK@AdobeXMPCore_Int@@YAPEAXAEAPEBVIError_v1@AdobeXMPCommon@@PEAVINameSpacePrefixMap_I@0@PEAXP830@EAAPEAX_KK@ZPEBDK3K@Z 000000018005f0cc f i INameSpacePrefixMap_I.obj
 0001:0005e118       ??$CallUnSafeFunction@VINameSpacePrefixMap_v1@AdobeXMPCore@@K_NPEBD_KPEBD_K@AdobeXMPCore_Int@@YAKAEAPEBVIError_v1@AdobeXMPCommon@@PEAVINameSpacePrefixMap_v1@AdobeXMPCore@@KP834@EAA_NPEBD_K23@Z2K2323@Z 000000018005f118 f i INameSpacePrefixMap_I.obj
 0001:0005e17c       ??$CallUnSafeFunction@VINameSpacePrefixMap_v1@AdobeXMPCore@@K_NPEBD_K@AdobeXMPCore_Int@@YAKAEAPEBVIError_v1@AdobeXMPCommon@@PEAVINameSpacePrefixMap_v1@AdobeXMPCore@@KP834@EAA_NPEBD_K@Z2K23@Z 000000018005f17c f i INameSpacePrefixMap_I.obj
 0001:0005e1c8       ??$CallConstUnSafeFunction@VINameSpacePrefixMap_v1@AdobeXMPCore@@K_NPEBD_K@AdobeXMPCore_Int@@YAKAEAPEBVIError_v1@AdobeXMPCommon@@PEBVINameSpacePrefixMap_v1@AdobeXMPCore@@KP834@EBA_NPEBD_K@Z2K23@Z 000000018005f1c8 f i INameSpacePrefixMap_I.obj
 0001:0005e214       ??$CallConstUnSafeFunctionReturningSharedPointer@VINameSpacePrefixMap_v1@AdobeXMPCore@@PEBVIUTF8String_v1@AdobeXMPCommon@@$$CBV34@PEBD_K@AdobeXMPCore_Int@@YAPEBVIUTF8String_v1@AdobeXMPCommon@@AEAPEBVIError_v1@2@PEBVINameSpacePrefixMap_v1@AdobeXMPCore@@P845@EBA?AV?$shared_ptr@$$CBVIUTF8String_v1@AdobeXMPCommon@@@std@@PEBD_K@Z2K23@Z 000000018005f214 f i INameSpacePrefixMap_I.obj
 0001:0005e340       ??$CallConstUnSafeFunctionReturningSharedPointer@VINameSpacePrefixMap_v1@AdobeXMPCore@@PEAV12@V12@@AdobeXMPCore_Int@@YAPEAVINameSpacePrefixMap_v1@AdobeXMPCore@@AEAPEBVIError_v1@AdobeXMPCommon@@PEBV12@P812@EBA?AV?$shared_ptr@VINameSpacePrefixMap_v1@AdobeXMPCore@@@std@@XZPEBDK@Z 000000018005f340 f i INameSpacePrefixMap_I.obj
 0001:0005e460       ??_9IConfigurable_I@AdobeXMPCore_Int@@$BEI@AA 000000018005f460 f i IConfigurable_I.obj
 0001:0005e460       ??_9INameSpacePrefixMap_v1@AdobeXMPCore@@$BEI@AA 000000018005f460 f i INameSpacePrefixMap_I.obj
 0001:0005e460       ??_9INode_v1@AdobeXMPCore@@$BEI@AA 000000018005f460 f i INode_I.obj
 0001:0005e460       ??_9IUTF8String_v1@AdobeXMPCommon@@$BEI@AA 000000018005f460 f i IUTF8String.obj
 0001:0005e468       ?GetInterfacePointer@INodeIterator_I@AdobeXMPCore_Int@@UEAAPEAX_KK@Z 000000018005f468 f   INodeIterator_I.obj
 0001:0005e510       ?getInterfacePointer@INodeIterator_I@AdobeXMPCore_Int@@MEAAPEAX_KKAEAPEBVIError_v1@AdobeXMPCommon@@@Z 000000018005f510 f   INodeIterator_I.obj
 0001:0005e558       ?getNode@INodeIterator_I@AdobeXMPCore_Int@@MEAAPEAVINode_v1@AdobeXMPCore@@AEAPEBVIError_v1@AdobeXMPCommon@@@Z 000000018005f558 f   INodeIterator_I.obj
 0001:0005e5a4       ?getNodeType@INodeIterator_I@AdobeXMPCore_Int@@MEBAKAEAPEBVIError_v1@AdobeXMPCommon@@@Z 000000018005f5a4 f   INodeIterator_I.obj
 0001:0005e5f0       ?next@INodeIterator_I@AdobeXMPCore_Int@@MEAAPEAVINodeIterator_v1@AdobeXMPCore@@AEAPEBVIError_v1@AdobeXMPCommon@@@Z 000000018005f5f0 f   INodeIterator_I.obj
 0001:0005e63c       ??$CallUnSafeFunction@VINodeIterator_I@AdobeXMPCore_Int@@PEAXPEAX_KK@AdobeXMPCore_Int@@YAPEAXAEAPEBVIError_v1@AdobeXMPCommon@@PEAVINodeIterator_I@0@PEAXP830@EAAPEAX_KK@ZPEBDK3K@Z 000000018005f63c f i INodeIterator_I.obj
 0001:0005e680       ??$CallUnSafeFunctionReturningSharedPointer@VINodeIterator_v1@AdobeXMPCore@@PEAVINode_v1@2@V32@@AdobeXMPCore_Int@@YAPEAVINode_v1@AdobeXMPCore@@AEAPEBVIError_v1@AdobeXMPCommon@@PEAVINodeIterator_v1@2@P852@EAA?AV?$shared_ptr@VINode_v1@AdobeXMPCore@@@std@@XZPEBDK@Z 000000018005f680 f i INodeIterator_I.obj
 0001:0005e7a0       ??$CallConstUnSafeFunction@VINodeIterator_v1@AdobeXMPCore@@KW4eNodeType@INode_v1@2@@AdobeXMPCore_Int@@YAKAEAPEBVIError_v1@AdobeXMPCommon@@PEBVINodeIterator_v1@AdobeXMPCore@@KP834@EBA?AW4eNodeType@INode_v1@4@XZPEBDK@Z 000000018005f7a0 f i INodeIterator_I.obj
 0001:0005e7dc       ??$CallUnSafeFunctionReturningSharedPointer@VINodeIterator_v1@AdobeXMPCore@@PEAV12@V12@@AdobeXMPCore_Int@@YAPEAVINodeIterator_v1@AdobeXMPCore@@AEAPEBVIError_v1@AdobeXMPCommon@@PEAV12@P812@EAA?AV?$shared_ptr@VINodeIterator_v1@AdobeXMPCore@@@std@@XZPEBDK@Z 000000018005f7dc f i INodeIterator_I.obj
 0001:0005e8fc       ??0?$shared_ptr@$$CBVIError_v1@AdobeXMPCommon@@@std@@QEAA@$$QEAV01@@Z 000000018005f8fc f i ArrayNodeImpl.obj
 0001:0005e8fc       ??0?$shared_ptr@VIError_I@AdobeXMPCore_Int@@@std@@QEAA@$$QEAV01@@Z 000000018005f8fc f i INodeIterator_I.obj
 0001:0005e920       ?GetInterfacePointer@INode_I@AdobeXMPCore_Int@@UEAAPEAX_KK@Z 000000018005f920 f   INode_I.obj
 0001:0005e92c       ?getInterfacePointer@INode_I@AdobeXMPCore_Int@@MEAAPEAX_KKAEAPEBVIError_v1@AdobeXMPCommon@@@Z 000000018005f92c f   INode_I.obj
 0001:0005e974       ?GetInterfacePointerInternal@INode_I@AdobeXMPCore_Int@@IEAAPEAX_KK_N@Z 000000018005f974 f   INode_I.obj
 0001:0005ea2c       ?getParent@INode_I@AdobeXMPCore_Int@@MEAAPEAVINode_v1@AdobeXMPCore@@AEAPEBVIError_v1@AdobeXMPCommon@@@Z 000000018005fa2c f   INode_I.obj
 0001:0005ea78       ?getParentNodeType@INode_I@AdobeXMPCore_Int@@MEBAKAEAPEBVIError_v1@AdobeXMPCommon@@@Z 000000018005fa78 f   INode_I.obj
 0001:0005eacc       ?setName@INode_I@AdobeXMPCore_Int@@MEAAXPEBD_KAEAPEBVIError_v1@AdobeXMPCommon@@@Z 000000018005facc f   INode_I.obj
 0001:0005eb2c       ?getName@INode_I@AdobeXMPCore_Int@@MEBAPEBVIUTF8String_v1@AdobeXMPCommon@@AEAPEBVIError_v1@4@@Z 000000018005fb2c f   INode_I.obj
 0001:0005eb80       ?setNameSpace@INode_I@AdobeXMPCore_Int@@MEAAXPEBD_KAEAPEBVIError_v1@AdobeXMPCommon@@@Z 000000018005fb80 f   INode_I.obj
 0001:0005ebe0       ?getNameSpace@INode_I@AdobeXMPCore_Int@@MEBAPEBVIUTF8String_v1@AdobeXMPCommon@@AEAPEBVIError_v1@4@@Z 000000018005fbe0 f   INode_I.obj
 0001:0005ec34       ?getPath@INode_I@AdobeXMPCore_Int@@MEBAPEAVIPath_v1@AdobeXMPCore@@AEAPEBVIError_v1@AdobeXMPCommon@@@Z 000000018005fc34 f   INode_I.obj
 0001:0005ec80       ?qualifiersIterator@INode_I@AdobeXMPCore_Int@@MEAAPEAVINodeIterator_v1@AdobeXMPCore@@AEAPEBVIError_v1@AdobeXMPCommon@@@Z 000000018005fc80 f   INode_I.obj
 0001:0005eccc       ?getQualifierNodeType@INode_I@AdobeXMPCore_Int@@MEBAKPEBD_K01AEAPEBVIError_v1@AdobeXMPCommon@@@Z 000000018005fccc f   INode_I.obj
 0001:0005ed38       ?getQualifier@INode_I@AdobeXMPCore_Int@@MEAAPEAVINode_v1@AdobeXMPCore@@PEBD_K01AEAPEBVIError_v1@AdobeXMPCommon@@@Z 000000018005fd38 f   INode_I.obj
 0001:0005edac       ?insertQualifier@INode_I@AdobeXMPCore_Int@@MEAAXPEAVINode_v1@AdobeXMPCore@@AEAPEBVIError_v1@AdobeXMPCommon@@@Z 000000018005fdac f   INode_I.obj
 0001:0005ee70       ?replaceQualifier@INode_I@AdobeXMPCore_Int@@MEAAPEAVINode_v1@AdobeXMPCore@@PEAV34@AEAPEBVIError_v1@AdobeXMPCommon@@@Z 000000018005fe70 f   INode_I.obj
 0001:0005ef3c       ?removeQualifier@INode_I@AdobeXMPCore_Int@@MEAAPEAVINode_v1@AdobeXMPCore@@PEBD_K01AEAPEBVIError_v1@AdobeXMPCommon@@@Z 000000018005ff3c f   INode_I.obj
 0001:0005efb0       ?getNodeType@INode_I@AdobeXMPCore_Int@@MEBAKAEAPEBVIError_v1@AdobeXMPCommon@@@Z 000000018005ffb0 f   INode_I.obj
 0001:0005f004       ?isArrayItem@INode_I@AdobeXMPCore_Int@@MEBAKAEAPEBVIError_v1@AdobeXMPCommon@@@Z 0000000180060004 f   INode_I.obj
 0001:0005f058       ?isQualifierNode@INode_I@AdobeXMPCore_Int@@MEBAKAEAPEBVIError_v1@AdobeXMPCommon@@@Z 0000000180060058 f   INode_I.obj
 0001:0005f0ac       ?getIndex@INode_I@AdobeXMPCore_Int@@MEBA_KAEAPEBVIError_v1@AdobeXMPCommon@@@Z 00000001800600ac f   INode_I.obj
 0001:0005f0f8       ?hasQualifiers@INode_I@AdobeXMPCore_Int@@MEBAKAEAPEBVIError_v1@AdobeXMPCommon@@@Z 00000001800600f8 f   INode_I.obj
 0001:0005f14c       ?hasContent@INode_I@AdobeXMPCore_Int@@MEBAKAEAPEBVIError_v1@AdobeXMPCommon@@@Z 000000018006014c f   INode_I.obj
 0001:0005f1a0       ?isEmpty@INode_I@AdobeXMPCore_Int@@MEBAKAEAPEBVIError_v1@AdobeXMPCommon@@@Z 00000001800601a0 f   INode_I.obj
 0001:0005f1f4       ?hasChanged@INode_I@AdobeXMPCore_Int@@MEBAKAEAPEBVIError_v1@AdobeXMPCommon@@@Z 00000001800601f4 f   INode_I.obj
 0001:0005f248       ?clear@INode_I@AdobeXMPCore_Int@@MEAAXKKAEAPEBVIError_v1@AdobeXMPCommon@@@Z 0000000180060248 f   INode_I.obj
 0001:0005f2a8       ?clone@INode_I@AdobeXMPCore_Int@@MEBAPEAVINode_v1@AdobeXMPCore@@KKAEAPEBVIError_v1@AdobeXMPCommon@@@Z 00000001800602a8 f   INode_I.obj
 0001:0005f308       ?convertToSimpleNode@INode_I@AdobeXMPCore_Int@@MEAAPEAVISimpleNode_v1@AdobeXMPCore@@AEAPEBVIError_v1@AdobeXMPCommon@@@Z 0000000180060308 f   INode_I.obj
 0001:0005f354       ?convertToStructureNode@INode_I@AdobeXMPCore_Int@@MEAAPEAVIStructureNode_v1@AdobeXMPCore@@AEAPEBVIError_v1@AdobeXMPCommon@@@Z 0000000180060354 f   INode_I.obj
 0001:0005f3a0       ?convertToArrayNode@INode_I@AdobeXMPCore_Int@@MEAAPEAVIArrayNode_v1@AdobeXMPCore@@AEAPEBVIError_v1@AdobeXMPCommon@@@Z 00000001800603a0 f   INode_I.obj
 0001:0005f3ec       ?convertToMetadata@INode_I@AdobeXMPCore_Int@@MEAAPEAVIMetadata_v1@AdobeXMPCore@@AEAPEBVIError_v1@AdobeXMPCommon@@@Z 00000001800603ec f   INode_I.obj
 0001:0005f438       ??$CallUnSafeFunction@VINode_I@AdobeXMPCore_Int@@PEAXPEAX_KK@AdobeXMPCore_Int@@YAPEAXAEAPEBVIError_v1@AdobeXMPCommon@@PEAVINode_I@0@PEAXP830@EAAPEAX_KK@ZPEBDK3K@Z 0000000180060438 f i INode_I.obj
 0001:0005f484       ??$CallUnSafeFunctionReturningSharedPointer@VINode_v1@AdobeXMPCore@@PEAV12@V12@@AdobeXMPCore_Int@@YAPEAVINode_v1@AdobeXMPCore@@AEAPEBVIError_v1@AdobeXMPCommon@@PEAV12@P812@EAA?AV?$shared_ptr@VINode_v1@AdobeXMPCore@@@std@@XZPEBDK@Z 0000000180060484 f i INode_I.obj
 0001:0005f5a4       ??$CallConstUnSafeFunction@VINode_v1@AdobeXMPCore@@KW4eNodeType@12@@AdobeXMPCore_Int@@YAKAEAPEBVIError_v1@AdobeXMPCommon@@PEBVINode_v1@AdobeXMPCore@@KP834@EBA?AW4eNodeType@34@XZPEBDK@Z 00000001800605a4 f i INode_I.obj
 0001:0005f5e0       ??$CallUnSafeFunctionReturningVoid@VINode_v1@AdobeXMPCore@@PEBD_K@AdobeXMPCore_Int@@YAXAEAPEBVIError_v1@AdobeXMPCommon@@PEAVINode_v1@AdobeXMPCore@@P834@EAAXPEBD_K@Z2K23@Z 00000001800605e0 f i INode_I.obj
 0001:0005f624       ??$CallConstUnSafeFunctionReturningSharedPointer@VINode_v1@AdobeXMPCore@@PEBVIUTF8String_v1@AdobeXMPCommon@@$$CBV34@@AdobeXMPCore_Int@@YAPEBVIUTF8String_v1@AdobeXMPCommon@@AEAPEBVIError_v1@2@PEBVINode_v1@AdobeXMPCore@@P845@EBA?AV?$shared_ptr@$$CBVIUTF8String_v1@AdobeXMPCommon@@@std@@XZPEBDK@Z 0000000180060624 f i INode_I.obj
 0001:0005f744       ??$CallConstUnSafeFunctionReturningSharedPointer@VINode_v1@AdobeXMPCore@@PEAVIPath_v1@2@V32@@AdobeXMPCore_Int@@YAPEAVIPath_v1@AdobeXMPCore@@AEAPEBVIError_v1@AdobeXMPCommon@@PEBVINode_v1@2@P852@EBA?AV?$shared_ptr@VIPath_v1@AdobeXMPCore@@@std@@XZPEBDK@Z 0000000180060744 f i INode_I.obj
 0001:0005f864       ??$CallUnSafeFunctionReturningSharedPointer@VINode_v1@AdobeXMPCore@@PEAVINodeIterator_v1@2@V32@@AdobeXMPCore_Int@@YAPEAVINodeIterator_v1@AdobeXMPCore@@AEAPEBVIError_v1@AdobeXMPCommon@@PEAVINode_v1@2@P852@EAA?AV?$shared_ptr@VINodeIterator_v1@AdobeXMPCore@@@std@@XZPEBDK@Z 0000000180060864 f i INode_I.obj
 0001:0005f984       ??$CallConstUnSafeFunction@VINode_v1@AdobeXMPCore@@KW4eNodeType@12@PEBD_KPEBD_K@AdobeXMPCore_Int@@YAKAEAPEBVIError_v1@AdobeXMPCommon@@PEBVINode_v1@AdobeXMPCore@@KP834@EBA?AW4eNodeType@34@PEBD_K23@Z2K2323@Z 0000000180060984 f i INode_I.obj
 0001:0005f9e4       ??$CallUnSafeFunctionReturningSharedPointer@VINode_v1@AdobeXMPCore@@PEAV12@V12@PEBD_KPEBD_K@AdobeXMPCore_Int@@YAPEAVINode_v1@AdobeXMPCore@@AEAPEBVIError_v1@AdobeXMPCommon@@PEAV12@P812@EAA?AV?$shared_ptr@VINode_v1@AdobeXMPCore@@@std@@PEBD_K23@Z2K2323@Z 00000001800609e4 f i INode_I.obj
 0001:0005fb2c       ??$CallUnSafeFunctionReturningVoid@VINode_v1@AdobeXMPCore@@AEBV?$shared_ptr@VINode_v1@AdobeXMPCore@@@std@@@AdobeXMPCore_Int@@YAXAEAPEBVIError_v1@AdobeXMPCommon@@PEAVINode_v1@AdobeXMPCore@@P834@EAAXAEBV?$shared_ptr@VINode_v1@AdobeXMPCore@@@std@@@ZPEBDK2@Z 0000000180060b2c f i INode_I.obj
 0001:0005fb68       ??$CallUnSafeFunctionReturningSharedPointer@VINode_v1@AdobeXMPCore@@PEAV12@V12@AEBV?$shared_ptr@VINode_v1@AdobeXMPCore@@@std@@@AdobeXMPCore_Int@@YAPEAVINode_v1@AdobeXMPCore@@AEAPEBVIError_v1@AdobeXMPCommon@@PEAV12@P812@EAA?AV?$shared_ptr@VINode_v1@AdobeXMPCore@@@std@@AEBV56@@ZPEBDK2@Z 0000000180060b68 f i INode_I.obj
 0001:0005fc8c       ??$CallConstUnSafeFunction@VINode_v1@AdobeXMPCore@@K_N@AdobeXMPCore_Int@@YAKAEAPEBVIError_v1@AdobeXMPCommon@@PEBVINode_v1@AdobeXMPCore@@KP834@EBA_NXZPEBDK@Z 0000000180060c8c f i INode_I.obj
 0001:0005fcc8       ??$CallConstUnSafeFunction@VINode_v1@AdobeXMPCore@@_K_K@AdobeXMPCore_Int@@YA_KAEAPEBVIError_v1@AdobeXMPCommon@@PEBVINode_v1@AdobeXMPCore@@_KP834@EBA_KXZPEBDK@Z 0000000180060cc8 f i INode_I.obj
 0001:0005fd04       ??$CallUnSafeFunctionReturningVoid@VINode_v1@AdobeXMPCore@@_N_N@AdobeXMPCore_Int@@YAXAEAPEBVIError_v1@AdobeXMPCommon@@PEAVINode_v1@AdobeXMPCore@@P834@EAAX_N2@ZPEBDK22@Z 0000000180060d04 f i INode_I.obj
 0001:0005fd48       ??$CallConstUnSafeFunctionReturningSharedPointer@VINode_v1@AdobeXMPCore@@PEAV12@V12@_N_N@AdobeXMPCore_Int@@YAPEAVINode_v1@AdobeXMPCore@@AEAPEBVIError_v1@AdobeXMPCommon@@PEBV12@P812@EBA?AV?$shared_ptr@VINode_v1@AdobeXMPCore@@@std@@_N2@ZPEBDK22@Z 0000000180060d48 f i INode_I.obj
 0001:0005fe74       ??$CallUnSafeFunctionReturningSharedPointer@VINode_v1@AdobeXMPCore@@PEAVISimpleNode_v1@2@V32@@AdobeXMPCore_Int@@YAPEAVISimpleNode_v1@AdobeXMPCore@@AEAPEBVIError_v1@AdobeXMPCommon@@PEAVINode_v1@2@P852@EAA?AV?$shared_ptr@VISimpleNode_v1@AdobeXMPCore@@@std@@XZPEBDK@Z 0000000180060e74 f i INode_I.obj
 0001:0005ff94       ??$CallUnSafeFunctionReturningSharedPointer@VINode_v1@AdobeXMPCore@@PEAVIStructureNode_v1@2@V32@@AdobeXMPCore_Int@@YAPEAVIStructureNode_v1@AdobeXMPCore@@AEAPEBVIError_v1@AdobeXMPCommon@@PEAVINode_v1@2@P852@EAA?AV?$shared_ptr@VIStructureNode_v1@AdobeXMPCore@@@std@@XZPEBDK@Z 0000000180060f94 f i INode_I.obj
 0001:000600b4       ??$CallUnSafeFunctionReturningSharedPointer@VINode_v1@AdobeXMPCore@@PEAVIArrayNode_v1@2@V32@@AdobeXMPCore_Int@@YAPEAVIArrayNode_v1@AdobeXMPCore@@AEAPEBVIError_v1@AdobeXMPCommon@@PEAVINode_v1@2@P852@EAA?AV?$shared_ptr@VIArrayNode_v1@AdobeXMPCore@@@std@@XZPEBDK@Z 00000001800610b4 f i INode_I.obj
 0001:000601d4       ??$CallUnSafeFunctionReturningSharedPointer@VINode_v1@AdobeXMPCore@@PEAVIMetadata_v1@2@V32@@AdobeXMPCore_Int@@YAPEAVIMetadata_v1@AdobeXMPCore@@AEAPEBVIError_v1@AdobeXMPCommon@@PEAVINode_v1@2@P852@EAA?AV?$shared_ptr@VIMetadata_v1@AdobeXMPCore@@@std@@XZPEBDK@Z 00000001800611d4 f i INode_I.obj
 0001:000602f4       ??_9INode_v1@AdobeXMPCore@@$BFI@AA 00000001800612f4 f i INode_I.obj
 0001:000602f4       ??_9IUTF8String_v1@AdobeXMPCommon@@$BFI@AA 00000001800612f4 f i IUTF8String_I.obj
 0001:000602fc       ??_9INode_v1@AdobeXMPCore@@$BGI@AA 00000001800612fc f i INode_I.obj
 0001:000602fc       ??_9IUTF8String_v1@AdobeXMPCommon@@$BGI@AA 00000001800612fc f i IUTF8String_I.obj
 0001:00060304       ??_9INode_v1@AdobeXMPCore@@$BHI@AA 0000000180061304 f i INode_I.obj
 0001:00060304       ??_9IUTF8String_v1@AdobeXMPCommon@@$BHI@AA 0000000180061304 f i IUTF8String_I.obj
 0001:0006030c       ??_9IConfigurable@AdobeXMPCommon@@$BII@AA 000000018006130c f i IConfigurable_I.obj
 0001:0006030c       ??_9INode_v1@AdobeXMPCore@@$BII@AA 000000018006130c f i INode_I.obj
 0001:0006030c       ??_9IUTF8String_v1@AdobeXMPCommon@@$BII@AA 000000018006130c f i IUTF8String.obj
 0001:00060318       ??_9INode_v1@AdobeXMPCore@@$BJI@AA 0000000180061318 f i INode_I.obj
 0001:00060318       ??_9IUTF8String_v1@AdobeXMPCommon@@$BJI@AA 0000000180061318 f i IUTF8String_I.obj
 0001:00060324       ??_9IError_v1@AdobeXMPCommon@@$BKI@AA 0000000180061324 f i IError.obj
 0001:00060324       ??_9INode_v1@AdobeXMPCore@@$BKI@AA 0000000180061324 f i INode_I.obj
 0001:00060324       ??_9IUTF8String_v1@AdobeXMPCommon@@$BKI@AA 0000000180061324 f i IUTF8String_I.obj
 0001:00060330       ??_9IError_v1@AdobeXMPCommon@@$BLI@AA 0000000180061330 f i IError.obj
 0001:00060330       ??_9INode_v1@AdobeXMPCore@@$BLI@AA 0000000180061330 f i INode_I.obj
 0001:00060330       ??_9IUTF8String_v1@AdobeXMPCommon@@$BLI@AA 0000000180061330 f i IUTF8String.obj
 0001:0006033c       ??_9IError_v1@AdobeXMPCommon@@$BMI@AA 000000018006133c f i IError.obj
 0001:0006033c       ??_9INode_v1@AdobeXMPCore@@$BMI@AA 000000018006133c f i INode_I.obj
 0001:0006033c       ??_9IUTF8String_v1@AdobeXMPCommon@@$BMI@AA 000000018006133c f i IUTF8String_I.obj
 0001:00060348       ??_9INode_v1@AdobeXMPCore@@$BNI@AA 0000000180061348 f i INode_I.obj
 0001:00060348       ??_9IUTF8String_v1@AdobeXMPCommon@@$BNI@AA 0000000180061348 f i IUTF8String.obj
 0001:00060354       ??_9INode_v1@AdobeXMPCore@@$BFA@AA 0000000180061354 f i INode_I.obj
 0001:00060354       ??_9IUTF8String_v1@AdobeXMPCommon@@$BFA@AA 0000000180061354 f i IUTF8String_I.obj
 0001:0006035c       ??_9INode_v1@AdobeXMPCore@@$BGA@AA 000000018006135c f i INode_I.obj
 0001:0006035c       ??_9IUTF8String_v1@AdobeXMPCommon@@$BGA@AA 000000018006135c f i IUTF8String.obj
 0001:00060364       ??_9INode_v1@AdobeXMPCore@@$BHA@AA 0000000180061364 f i INode_I.obj
 0001:00060364       ??_9IUTF8String_v1@AdobeXMPCommon@@$BHA@AA 0000000180061364 f i IUTF8String.obj
 0001:0006036c       ??_9INode_v1@AdobeXMPCore@@$BIA@AA 000000018006136c f i INode_I.obj
 0001:0006036c       ??_9IUTF8String_v1@AdobeXMPCommon@@$BIA@AA 000000018006136c f i IUTF8String.obj
 0001:00060378       ??_9INode_v1@AdobeXMPCore@@$BJA@AA 0000000180061378 f i INode_I.obj
 0001:00060378       ??_9IUTF8String_v1@AdobeXMPCommon@@$BJA@AA 0000000180061378 f i IUTF8String_I.obj
 0001:00060384       ??_9INode_v1@AdobeXMPCore@@$BKA@AA 0000000180061384 f i INode_I.obj
 0001:00060384       ??_9IUTF8String_v1@AdobeXMPCommon@@$BKA@AA 0000000180061384 f i IUTF8String.obj
 0001:00060390       ??_9IError_v1@AdobeXMPCommon@@$BMA@AA 0000000180061390 f i IError.obj
 0001:00060390       ??_9INode_v1@AdobeXMPCore@@$BMA@AA 0000000180061390 f i INode_I.obj
 0001:00060390       ??_9IUTF8String_v1@AdobeXMPCommon@@$BMA@AA 0000000180061390 f i IUTF8String_I.obj
 0001:0006039c       ??_9IError_v1@AdobeXMPCommon@@$BNA@AA 000000018006139c f i IError.obj
 0001:0006039c       ??_9INode_v1@AdobeXMPCore@@$BNA@AA 000000018006139c f i INode_I.obj
 0001:0006039c       ??_9IUTF8String_v1@AdobeXMPCommon@@$BNA@AA 000000018006139c f i IUTF8String.obj
 0001:000603a8       ??_9INode_v1@AdobeXMPCore@@$BOA@AA 00000001800613a8 f i INode_I.obj
 0001:000603a8       ??_9IUTF8String_v1@AdobeXMPCommon@@$BOA@AA 00000001800613a8 f i IUTF8String_I.obj
 0001:000603b4       ??_9IConfigurable@AdobeXMPCommon@@$BDI@AA 00000001800613b4 f i IConfigurable_I.obj
 0001:000603b4       ??_9IError_v1@AdobeXMPCommon@@$BDI@AA 00000001800613b4 f i IError_I.obj
 0001:000603b4       ??_9INode_v1@AdobeXMPCore@@$BDI@AA 00000001800613b4 f i INode_I.obj
 0001:000603b4       ??_9IPath_v1@AdobeXMPCore@@$BDI@AA 00000001800613b4 f i IPath_I.obj
 0001:000603b4       ??_9IUTF8String_v1@AdobeXMPCommon@@$BDI@AA 00000001800613b4 f i IUTF8String_I.obj
 0001:000603bc       ?GetInterfacePointer@IPathSegment_I@AdobeXMPCore_Int@@UEAAPEAX_KK@Z 00000001800613bc f   IPathSegment_I.obj
 0001:00060468       ?getInterfacePointer@IPathSegment_I@AdobeXMPCore_Int@@MEAAPEAX_KKAEAPEBVIError_v1@AdobeXMPCommon@@@Z 0000000180061468 f   IPathSegment_I.obj
 0001:000604b0       ?getNameSpace@IPathSegment_I@AdobeXMPCore_Int@@MEBAPEBVIUTF8String_v1@AdobeXMPCommon@@AEAPEBVIError_v1@4@@Z 00000001800614b0 f   IPathSegment_I.obj
 0001:00060504       ?getName@IPathSegment_I@AdobeXMPCore_Int@@MEBAPEBVIUTF8String_v1@AdobeXMPCommon@@AEAPEBVIError_v1@4@@Z 0000000180061504 f   IPathSegment_I.obj
 0001:00060558       ?getType@IPathSegment_I@AdobeXMPCore_Int@@MEBAKAEAPEBVIError_v1@AdobeXMPCommon@@@Z 0000000180061558 f   IPathSegment_I.obj
 0001:000605a4       ?getValue@IPathSegment_I@AdobeXMPCore_Int@@MEBAPEBVIUTF8String_v1@AdobeXMPCommon@@AEAPEBVIError_v1@4@@Z 00000001800615a4 f   IPathSegment_I.obj
 0001:000605f8       ??$CallUnSafeFunction@VIPathSegment_I@AdobeXMPCore_Int@@PEAXPEAX_KK@AdobeXMPCore_Int@@YAPEAXAEAPEBVIError_v1@AdobeXMPCommon@@PEAVIPathSegment_I@0@PEAXP830@EAAPEAX_KK@ZPEBDK3K@Z 00000001800615f8 f i IPathSegment_I.obj
 0001:00060644       ??$CallConstUnSafeFunctionReturningSharedPointer@VIPathSegment_v1@AdobeXMPCore@@PEBVIUTF8String_v1@AdobeXMPCommon@@$$CBV34@@AdobeXMPCore_Int@@YAPEBVIUTF8String_v1@AdobeXMPCommon@@AEAPEBVIError_v1@2@PEBVIPathSegment_v1@AdobeXMPCore@@P845@EBA?AV?$shared_ptr@$$CBVIUTF8String_v1@AdobeXMPCommon@@@std@@XZPEBDK@Z 0000000180061644 f i IPathSegment_I.obj
 0001:00060764       ??$CallConstUnSafeFunction@VIPathSegment_v1@AdobeXMPCore@@KW4ePathSegmentType@12@@AdobeXMPCore_Int@@YAKAEAPEBVIError_v1@AdobeXMPCommon@@PEBVIPathSegment_v1@AdobeXMPCore@@KP834@EBA?AW4ePathSegmentType@34@XZPEBDK@Z 0000000180061764 f i IPathSegment_I.obj
 0001:000607a0       ?GetInterfacePointer@IPath_I@AdobeXMPCore_Int@@UEAAPEAX_KK@Z 00000001800617a0 f   IPath_I.obj
 0001:00060848       ?getInterfacePointer@IPath_I@AdobeXMPCore_Int@@MEAAPEAX_KKAEAPEBVIError_v1@AdobeXMPCommon@@@Z 0000000180061848 f   IPath_I.obj
 0001:00060890       ?registerNameSpacePrefixMap@IPath_I@AdobeXMPCore_Int@@MEAAPEBVINameSpacePrefixMap_v1@AdobeXMPCore@@PEBV34@AEAPEBVIError_v1@AdobeXMPCommon@@@Z 0000000180061890 f   IPath_I.obj
 0001:000609a4       ?serialize@IPath_I@AdobeXMPCore_Int@@MEBAPEAVIUTF8String_v1@AdobeXMPCommon@@PEBVINameSpacePrefixMap_v1@AdobeXMPCore@@AEAPEBVIError_v1@4@@Z 00000001800619a4 f   IPath_I.obj
 0001:00060ab8       ?appendPathSegment@IPath_I@AdobeXMPCore_Int@@MEAAXPEBVIPathSegment_v1@AdobeXMPCore@@AEAPEBVIError_v1@AdobeXMPCommon@@@Z 0000000180061ab8 f   IPath_I.obj
 0001:00060bc8       ?removePathSegment@IPath_I@AdobeXMPCore_Int@@MEAAPEBVIPathSegment_v1@AdobeXMPCore@@_KAEAPEBVIError_v1@AdobeXMPCommon@@@Z 0000000180061bc8 f   IPath_I.obj
 0001:00060c1c       ?getPathSegment@IPath_I@AdobeXMPCore_Int@@MEBAPEBVIPathSegment_v1@AdobeXMPCore@@_KAEAPEBVIError_v1@AdobeXMPCommon@@@Z 0000000180061c1c f   IPath_I.obj
 0001:00060c70       ?clone@IPath_I@AdobeXMPCore_Int@@MEBAPEAVIPath_v1@AdobeXMPCore@@_K0AEAPEBVIError_v1@AdobeXMPCommon@@@Z 0000000180061c70 f   IPath_I.obj
 0001:00060cc4       ??$CallUnSafeFunction@VIPath_I@AdobeXMPCore_Int@@PEAXPEAX_KK@AdobeXMPCore_Int@@YAPEAXAEAPEBVIError_v1@AdobeXMPCommon@@PEAVIPath_I@0@PEAXP830@EAAPEAX_KK@ZPEBDK3K@Z 0000000180061cc4 f i IPath_I.obj
 0001:00060d08       ??$CallUnSafeFunctionReturningSharedPointer@VIPath_v1@AdobeXMPCore@@PEBVINameSpacePrefixMap_v1@2@$$CBV32@AEBV?$shared_ptr@$$CBVINameSpacePrefixMap_v1@AdobeXMPCore@@@std@@@AdobeXMPCore_Int@@YAPEBVINameSpacePrefixMap_v1@AdobeXMPCore@@AEAPEBVIError_v1@AdobeXMPCommon@@PEAVIPath_v1@2@P852@EAA?AV?$shared_ptr@$$CBVINameSpacePrefixMap_v1@AdobeXMPCore@@@std@@AEBV67@@ZPEBDK2@Z 0000000180061d08 f i IPath_I.obj
 0001:00060e2c       ??$CallConstUnSafeFunctionReturningSharedPointer@VIPath_v1@AdobeXMPCore@@PEAVIUTF8String_v1@AdobeXMPCommon@@V34@AEBV?$shared_ptr@$$CBVINameSpacePrefixMap_v1@AdobeXMPCore@@@std@@@AdobeXMPCore_Int@@YAPEAVIUTF8String_v1@AdobeXMPCommon@@AEAPEBVIError_v1@2@PEBVIPath_v1@AdobeXMPCore@@P845@EBA?AV?$shared_ptr@VIUTF8String_v1@AdobeXMPCommon@@@std@@AEBV?$shared_ptr@$$CBVINameSpacePrefixMap_v1@AdobeXMPCore@@@7@@ZPEBDK2@Z 0000000180061e2c f i IPath_I.obj
 0001:00060f50       ??$CallUnSafeFunctionReturningVoid@VIPath_v1@AdobeXMPCore@@AEBV?$shared_ptr@$$CBVIPathSegment_v1@AdobeXMPCore@@@std@@@AdobeXMPCore_Int@@YAXAEAPEBVIError_v1@AdobeXMPCommon@@PEAVIPath_v1@AdobeXMPCore@@P834@EAAXAEBV?$shared_ptr@$$CBVIPathSegment_v1@AdobeXMPCore@@@std@@@ZPEBDK2@Z 0000000180061f50 f i IPath_I.obj
 0001:00060f8c       ??$CallUnSafeFunctionReturningSharedPointer@VIPath_v1@AdobeXMPCore@@PEBVIPathSegment_v1@2@$$CBV32@_K@AdobeXMPCore_Int@@YAPEBVIPathSegment_v1@AdobeXMPCore@@AEAPEBVIError_v1@AdobeXMPCommon@@PEAVIPath_v1@2@P852@EAA?AV?$shared_ptr@$$CBVIPathSegment_v1@AdobeXMPCore@@@std@@_K@ZPEBDK2@Z 0000000180061f8c f i IPath_I.obj
 0001:000610b0       ??$CallConstUnSafeFunctionReturningSharedPointer@VIPath_v1@AdobeXMPCore@@PEBVIPathSegment_v1@2@$$CBV32@_K@AdobeXMPCore_Int@@YAPEBVIPathSegment_v1@AdobeXMPCore@@AEAPEBVIError_v1@AdobeXMPCommon@@PEBVIPath_v1@2@P852@EBA?AV?$shared_ptr@$$CBVIPathSegment_v1@AdobeXMPCore@@@std@@_K@ZPEBDK2@Z 00000001800620b0 f i IPath_I.obj
 0001:000611d4       ??$CallConstUnSafeFunctionReturningSharedPointer@VIPath_v1@AdobeXMPCore@@PEAV12@V12@_K_K@AdobeXMPCore_Int@@YAPEAVIPath_v1@AdobeXMPCore@@AEAPEBVIError_v1@AdobeXMPCommon@@PEBV12@P812@EBA?AV?$shared_ptr@VIPath_v1@AdobeXMPCore@@@std@@_K2@ZPEBDK22@Z 00000001800621d4 f i IPath_I.obj
 0001:00061300       ?GetInterfacePointer@ISimpleNode_I@AdobeXMPCore_Int@@UEAAPEAX_KK@Z 0000000180062300 f   ISimpleNode_I.obj
 0001:000613d4       ?getInterfacePointer@ISimpleNode_I@AdobeXMPCore_Int@@MEAAPEAX_KKAEAPEBVIError_v1@AdobeXMPCommon@@@Z 00000001800623d4 f   ISimpleNode_I.obj
 0001:0006141c       ?getValue@ISimpleNode_I@AdobeXMPCore_Int@@MEBAPEBVIUTF8String_v1@AdobeXMPCommon@@AEAPEBVIError_v1@4@@Z 000000018006241c f   ISimpleNode_I.obj
 0001:00061468       ?setValue@ISimpleNode_I@AdobeXMPCore_Int@@MEAAXPEBD_KAEAPEBVIError_v1@AdobeXMPCommon@@@Z 0000000180062468 f   ISimpleNode_I.obj
 0001:000614bc       ?isURIType@ISimpleNode_I@AdobeXMPCore_Int@@MEBAKAEAPEBVIError_v1@AdobeXMPCommon@@@Z 00000001800624bc f   ISimpleNode_I.obj
 0001:00061508       ?setURIType@ISimpleNode_I@AdobeXMPCore_Int@@MEAAXKAEAPEBVIError_v1@AdobeXMPCommon@@@Z 0000000180062508 f   ISimpleNode_I.obj
 0001:00061560       ??$CallUnSafeFunction@VISimpleNode_I@AdobeXMPCore_Int@@PEAXPEAX_KK@AdobeXMPCore_Int@@YAPEAXAEAPEBVIError_v1@AdobeXMPCommon@@PEAVISimpleNode_I@0@PEAXP830@EAAPEAX_KK@ZPEBDK3K@Z 0000000180062560 f i ISimpleNode_I.obj
 0001:000615a4       ??$CallConstUnSafeFunctionReturningSharedPointer@VISimpleNode_v1@AdobeXMPCore@@PEBVIUTF8String_v1@AdobeXMPCommon@@$$CBV34@@AdobeXMPCore_Int@@YAPEBVIUTF8String_v1@AdobeXMPCommon@@AEAPEBVIError_v1@2@PEBVISimpleNode_v1@AdobeXMPCore@@P845@EBA?AV?$shared_ptr@$$CBVIUTF8String_v1@AdobeXMPCommon@@@std@@XZPEBDK@Z 00000001800625a4 f i ISimpleNode_I.obj
 0001:000616c4       ??$CallUnSafeFunctionReturningVoid@VISimpleNode_v1@AdobeXMPCore@@PEBD_K@AdobeXMPCore_Int@@YAXAEAPEBVIError_v1@AdobeXMPCommon@@PEAVISimpleNode_v1@AdobeXMPCore@@P834@EAAXPEBD_K@Z2K23@Z 00000001800626c4 f i ISimpleNode_I.obj
 0001:00061708       ??$CallConstUnSafeFunction@VISimpleNode_v1@AdobeXMPCore@@K_N@AdobeXMPCore_Int@@YAKAEAPEBVIError_v1@AdobeXMPCommon@@PEBVISimpleNode_v1@AdobeXMPCore@@KP834@EBA_NXZPEBDK@Z 0000000180062708 f i ISimpleNode_I.obj
 0001:00061744       ??$CallUnSafeFunctionReturningVoid@VISimpleNode_v1@AdobeXMPCore@@_N@AdobeXMPCore_Int@@YAXAEAPEBVIError_v1@AdobeXMPCommon@@PEAVISimpleNode_v1@AdobeXMPCore@@P834@EAAX_N@ZPEBDK2@Z 0000000180062744 f i ISimpleNode_I.obj
 0001:00061780       ?GetInterfacePointer@IStructureNode_I@AdobeXMPCore_Int@@UEAAPEAX_KK@Z 0000000180062780 f   IStructureNode_I.obj
 0001:0006178c       ?getInterfacePointer@IStructureNode_I@AdobeXMPCore_Int@@MEAAPEAX_KKAEAPEBVIError_v1@AdobeXMPCommon@@@Z 000000018006278c f   IStructureNode_I.obj
 0001:000617d4       ?GetInterfacePointerInternal@IStructureNode_I@AdobeXMPCore_Int@@IEAAPEAX_KK_N@Z 00000001800627d4 f   IStructureNode_I.obj
 0001:000618d0       ?getNode@IStructureNode_I@AdobeXMPCore_Int@@MEAAPEAVINode_v1@AdobeXMPCore@@PEBD_K01AEAPEBVIError_v1@AdobeXMPCommon@@@Z 00000001800628d0 f   IStructureNode_I.obj
 0001:00061944       ?getChildNodeType@IStructureNode_I@AdobeXMPCore_Int@@MEBAKPEBD_K01AEAPEBVIError_v1@AdobeXMPCommon@@@Z 0000000180062944 f   IStructureNode_I.obj
 0001:000619b0       ?insertNode@IStructureNode_I@AdobeXMPCore_Int@@MEAAXPEAVINode_v1@AdobeXMPCore@@AEAPEBVIError_v1@AdobeXMPCommon@@@Z 00000001800629b0 f   IStructureNode_I.obj
 0001:00061a74       ?removeNode@IStructureNode_I@AdobeXMPCore_Int@@MEAAPEAVINode_v1@AdobeXMPCore@@PEBD_K01AEAPEBVIError_v1@AdobeXMPCommon@@@Z 0000000180062a74 f   IStructureNode_I.obj
 0001:00061ae8       ?replaceNode@IStructureNode_I@AdobeXMPCore_Int@@MEAAPEAVINode_v1@AdobeXMPCore@@PEAV34@AEAPEBVIError_v1@AdobeXMPCommon@@@Z 0000000180062ae8 f   IStructureNode_I.obj
 0001:00061bb4       ??$CallUnSafeFunction@VIStructureNode_I@AdobeXMPCore_Int@@PEAXPEAX_KK@AdobeXMPCore_Int@@YAPEAXAEAPEBVIError_v1@AdobeXMPCommon@@PEAVIStructureNode_I@0@PEAXP830@EAAPEAX_KK@ZPEBDK3K@Z 0000000180062bb4 f i IStructureNode_I.obj
 0001:00061c00       ??$CallUnSafeFunctionReturningSharedPointer@VIStructureNode_v1@AdobeXMPCore@@PEAVINode_v1@2@V32@PEBD_KPEBD_K@AdobeXMPCore_Int@@YAPEAVINode_v1@AdobeXMPCore@@AEAPEBVIError_v1@AdobeXMPCommon@@PEAVIStructureNode_v1@2@P852@EAA?AV?$shared_ptr@VINode_v1@AdobeXMPCore@@@std@@PEBD_K23@Z2K2323@Z 0000000180062c00 f i IStructureNode_I.obj
 0001:00061d48       ??$CallConstUnSafeFunction@VIStructureNode_v1@AdobeXMPCore@@KW4eNodeType@INode_v1@2@PEBD_KPEBD_K@AdobeXMPCore_Int@@YAKAEAPEBVIError_v1@AdobeXMPCommon@@PEBVIStructureNode_v1@AdobeXMPCore@@KP834@EBA?AW4eNodeType@INode_v1@4@PEBD_K23@Z2K2323@Z 0000000180062d48 f i IStructureNode_I.obj
 0001:00061da8       ??$CallUnSafeFunctionReturningVoid@VIStructureNode_v1@AdobeXMPCore@@AEBV?$shared_ptr@VINode_v1@AdobeXMPCore@@@std@@@AdobeXMPCore_Int@@YAXAEAPEBVIError_v1@AdobeXMPCommon@@PEAVIStructureNode_v1@AdobeXMPCore@@P834@EAAXAEBV?$shared_ptr@VINode_v1@AdobeXMPCore@@@std@@@ZPEBDK2@Z 0000000180062da8 f i IStructureNode_I.obj
 0001:00061de4       ??$CallUnSafeFunctionReturningSharedPointer@VIStructureNode_v1@AdobeXMPCore@@PEAVINode_v1@2@V32@AEBV?$shared_ptr@VINode_v1@AdobeXMPCore@@@std@@@AdobeXMPCore_Int@@YAPEAVINode_v1@AdobeXMPCore@@AEAPEBVIError_v1@AdobeXMPCommon@@PEAVIStructureNode_v1@2@P852@EAA?AV?$shared_ptr@VINode_v1@AdobeXMPCore@@@std@@AEBV67@@ZPEBDK2@Z 0000000180062de4 f i IStructureNode_I.obj
 0001:00061f08       ??1ISharedObject@AdobeXMPCommon@@MEAA@XZ 0000000180062f08 f i ArrayNodeImpl.obj
 0001:00061f14       ??1IVersionable@AdobeXMPCommon@@MEAA@XZ 0000000180062f14 f i ArrayNodeImpl.obj
 0001:00061f20       ??_EIVersionable@AdobeXMPCommon@@MEAAPEAXI@Z 0000000180062f20 f i * CIL library *:* CIL module *
 0001:00061f20       ??_GIVersionable@AdobeXMPCommon@@MEAAPEAXI@Z 0000000180062f20 f i ArrayNodeImpl.obj
 0001:00061f4c       ??1IThreadSafe@AdobeXMPCommon@@UEAA@XZ 0000000180062f4c f i ArrayNodeImpl.obj
 0001:00061f58       ??_EIThreadSafe@AdobeXMPCommon@@UEAAPEAXI@Z 0000000180062f58 f i * CIL library *:* CIL module *
 0001:00061f58       ??_GIThreadSafe@AdobeXMPCommon@@UEAAPEAXI@Z 0000000180062f58 f i ArrayNodeImpl.obj
 0001:00061f84       ??1INode_v1@AdobeXMPCore@@MEAA@XZ 0000000180062f84 f i ArrayNodeImpl.obj
 0001:00061fcc       ??_EINode_v1@AdobeXMPCore@@MEAAPEAXI@Z 0000000180062fcc f i * CIL library *:* CIL module *
 0001:00061fcc       ??_GINode_v1@AdobeXMPCore@@MEAAPEAXI@Z 0000000180062fcc f i ArrayNodeImpl.obj
 0001:0006203c       ??1ICompositeNode_v1@AdobeXMPCore@@MEAA@XZ 000000018006303c f i ArrayNodeImpl.obj
 0001:0006209c       ??_EICompositeNode_v1@AdobeXMPCore@@MEAAPEAXI@Z 000000018006309c f i * CIL library *:* CIL module *
 0001:0006209c       ??_GICompositeNode_v1@AdobeXMPCore@@MEAAPEAXI@Z 000000018006309c f i ArrayNodeImpl.obj
 0001:00062120       ??1IArrayNode_v1@AdobeXMPCore@@MEAA@XZ 0000000180063120 f i ArrayNodeImpl.obj
 0001:00062194       ??_EIArrayNode_v1@AdobeXMPCore@@MEAAPEAXI@Z 0000000180063194 f i * CIL library *:* CIL module *
 0001:00062194       ??_GIArrayNode_v1@AdobeXMPCore@@MEAAPEAXI@Z 0000000180063194 f i ArrayNodeImpl.obj
 0001:0006222c       ?GetISharedObject_I@ISharedObject_I@AdobeXMPCommon_Int@@UEAAPEAV12@XZ 000000018006322c f i ArrayNodeImpl.obj
 0001:0006222c       ?GetIThreadSafe_I@IThreadSafe_I@AdobeXMPCommon_Int@@UEAAPEAV12@XZ 000000018006322c f i ArrayNodeImpl.obj
 0001:00062234       ?isThreadSafe@IThreadSafe_I@AdobeXMPCommon_Int@@UEBAKXZ 0000000180063234 f i ArrayNodeImpl.obj
 0001:0006225c       ?GetActualINameSpacePrefixMap@INameSpacePrefixMap_I@AdobeXMPCore_Int@@UEAAPEAVINameSpacePrefixMap_v1@AdobeXMPCore@@XZ 000000018006325c f i NameSpacePrefixMapImpl.obj
 0001:0006225c       ?GetActualINode@INode_I@AdobeXMPCore_Int@@UEAAPEAVINode_v1@AdobeXMPCore@@XZ 000000018006325c f i ArrayNodeImpl.obj
 0001:0006227c       ?GetIDOMImplementationRegistry_I@IDOMImplementationRegistry_I@AdobeXMPCore_Int@@UEAAPEAV12@XZ 000000018006327c f i DOMImplementationRegistryImpl.obj
 0001:0006227c       ?GetINameSpacePrefixMap_I@INameSpacePrefixMap_I@AdobeXMPCore_Int@@UEAAPEAV12@XZ 000000018006327c f i NameSpacePrefixMapImpl.obj
 0001:0006227c       ?GetINode_I@INode_I@AdobeXMPCore_Int@@UEAAPEAV12@XZ 000000018006327c f i ArrayNodeImpl.obj
 0001:00062284       ??1INode_I@AdobeXMPCore_Int@@MEAA@XZ 0000000180063284 f i ArrayNodeImpl.obj
 0001:0006232c       ??_EINode_I@AdobeXMPCore_Int@@MEAAPEAXI@Z 000000018006332c f i * CIL library *:* CIL module *
 0001:0006232c       ??_GINode_I@AdobeXMPCore_Int@@MEAAPEAXI@Z 000000018006332c f i ArrayNodeImpl.obj
 0001:00062364       ?GetActualICompositeNode@ICompositeNode_I@AdobeXMPCore_Int@@UEAAPEAVICompositeNode_v1@AdobeXMPCore@@XZ 0000000180063364 f i ArrayNodeImpl.obj
 0001:00062364       ?GetActualISimpleNode@ISimpleNode_I@AdobeXMPCore_Int@@UEAAPEAVISimpleNode_v1@AdobeXMPCore@@XZ 0000000180063364 f i SimpleNodeImpl.obj
 0001:00062380       ?GetICompositeNode_I@ICompositeNode_I@AdobeXMPCore_Int@@UEAAPEAV12@XZ 0000000180063380 f i ArrayNodeImpl.obj
 0001:00062380       ?GetICoreConfigurationManager_I@ICoreConfigurationManager_I@AdobeXMPCore_Int@@UEAAPEAV12@XZ 0000000180063380 f i CoreConfigurationManagerImpl.obj
 0001:00062380       ?GetIDOMParser_I@IDOMParser_I@AdobeXMPCore_Int@@UEAAPEAV12@XZ 0000000180063380 f i ClientDOMParserWrapperImpl.obj
 0001:00062380       ?GetIDOMSerializer_I@IDOMSerializer_I@AdobeXMPCore_Int@@UEAAPEAV12@XZ 0000000180063380 f i ClientDOMSerializerWrapperImpl.obj
 0001:00062380       ?GetISimpleNode_I@ISimpleNode_I@AdobeXMPCore_Int@@UEAAPEAV12@XZ 0000000180063380 f i SimpleNodeImpl.obj
 0001:00062388       ??1ICompositeNode_I@AdobeXMPCore_Int@@MEAA@XZ 0000000180063388 f i ArrayNodeImpl.obj
 0001:0006245c       ??_EICompositeNode_I@AdobeXMPCore_Int@@MEAAPEAXI@Z 000000018006345c f i * CIL library *:* CIL module *
 0001:0006245c       ??_GICompositeNode_I@AdobeXMPCore_Int@@MEAAPEAXI@Z 000000018006345c f i ArrayNodeImpl.obj
 0001:00062494       ?GetActualIArrayNode@IArrayNode_I@AdobeXMPCore_Int@@UEAAPEAVIArrayNode_v1@AdobeXMPCore@@XZ 0000000180063494 f i ArrayNodeImpl.obj
 0001:000624b0       ?GetISharedObject_I@IArrayNode_I@AdobeXMPCore_Int@@UEAAPEAVISharedObject_I@AdobeXMPCommon_Int@@XZ 00000001800634b0 f i ArrayNodeImpl.obj
 0001:000624cc       ?GetIArrayNode_I@IArrayNode_I@AdobeXMPCore_Int@@UEAAPEAV12@XZ 00000001800634cc f i ArrayNodeImpl.obj
 0001:000624cc       ?GetIStructureNode_I@IStructureNode_I@AdobeXMPCore_Int@@UEAAPEAV12@XZ 00000001800634cc f i MetadataImpl.obj
 0001:000624d4       ??1IArrayNode_I@AdobeXMPCore_Int@@MEAA@XZ 00000001800634d4 f i ArrayNodeImpl.obj
 0001:000625dc       ??_EIArrayNode_I@AdobeXMPCore_Int@@MEAAPEAXI@Z 00000001800635dc f i * CIL library *:* CIL module *
 0001:000625dc       ??_GIArrayNode_I@AdobeXMPCore_Int@@MEAAPEAXI@Z 00000001800635dc f i ArrayNodeImpl.obj
 0001:00062614       ??_ESharedObjectImpl@AdobeXMPCore_Int@@MEAAPEAXI@Z 0000000180063614 f i * CIL library *:* CIL module *
 0001:00062614       ??_GSharedObjectImpl@AdobeXMPCore_Int@@MEAAPEAXI@Z 0000000180063614 f i ArrayNodeImpl.obj
 0001:0006268c       ??_EISharedObject_I@AdobeXMPCommon_Int@@UEAAPEAXI@Z 000000018006368c f i * CIL library *:* CIL module *
 0001:0006268c       ??_EIThreadSafe_I@AdobeXMPCommon_Int@@UEAAPEAXI@Z 000000018006368c f i * CIL library *:* CIL module *
 0001:0006268c       ??_GISharedObject_I@AdobeXMPCommon_Int@@UEAAPEAXI@Z 000000018006368c f i ArrayNodeImpl.obj
 0001:0006268c       ??_GIThreadSafe_I@AdobeXMPCommon_Int@@UEAAPEAXI@Z 000000018006368c f i ArrayNodeImpl.obj
 0001:000626b4       ??1ThreadSafeImpl@AdobeXMPCore_Int@@MEAA@XZ 00000001800636b4 f i ArrayNodeImpl.obj
 0001:00062740       ??_EThreadSafeImpl@AdobeXMPCore_Int@@MEAAPEAXI@Z 0000000180063740 f i * CIL library *:* CIL module *
 0001:00062740       ??_GThreadSafeImpl@AdobeXMPCore_Int@@MEAAPEAXI@Z 0000000180063740 f i ArrayNodeImpl.obj
 0001:0006278c       ??1NodeImpl@AdobeXMPCore_Int@@MEAA@XZ 000000018006378c f i ArrayNodeImpl.obj
 0001:00062980       ??_ENodeImpl@AdobeXMPCore_Int@@MEAAPEAXI@Z 0000000180063980 f i * CIL library *:* CIL module *
 0001:00062980       ??_GNodeImpl@AdobeXMPCore_Int@@MEAAPEAXI@Z 0000000180063980 f i ArrayNodeImpl.obj
 0001:000629e0       ??0CompositeNodeImpl@AdobeXMPCore_Int@@QEAA@XZ 00000001800639e0 f i ArrayNodeImpl.obj
 0001:00062b2c       ??1CompositeNodeImpl@AdobeXMPCore_Int@@MEAA@XZ 0000000180063b2c f i ArrayNodeImpl.obj
 0001:00062c78       ??_ECompositeNodeImpl@AdobeXMPCore_Int@@MEAAPEAXI@Z 0000000180063c78 f i * CIL library *:* CIL module *
 0001:00062c78       ??_GCompositeNodeImpl@AdobeXMPCore_Int@@MEAAPEAXI@Z 0000000180063c78 f i ArrayNodeImpl.obj
 0001:00062cd8       ??1ArrayNodeImpl@AdobeXMPCore_Int@@MEAA@XZ 0000000180063cd8 f i ArrayNodeImpl.obj
 0001:00062e84       ??_EArrayNodeImpl@AdobeXMPCore_Int@@MEAAPEAXI@Z 0000000180063e84 f i * CIL library *:* CIL module *
 0001:00062e84       ??_GArrayNodeImpl@AdobeXMPCore_Int@@MEAAPEAXI@Z 0000000180063e84 f i ArrayNodeImpl.obj
 0001:00062ee4       ??_DArrayNodeImpl@AdobeXMPCore_Int@@IEAAXXZ 0000000180063ee4 f i ArrayNodeImpl.obj
 0001:00063118       ??_EINodeIterator_v1@AdobeXMPCore@@MEAAPEAXI@Z 0000000180064118 f i * CIL library *:* CIL module *
 0001:00063118       ??_GINodeIterator_v1@AdobeXMPCore@@MEAAPEAXI@Z 0000000180064118 f i ArrayNodeImpl.obj
 0001:00063170       ?GetActualIConfigurationManager@IConfigurationManager_I@AdobeXMPCore_Int@@UEAAPEAVIConfigurationManager_v1@AdobeXMPCommon@@XZ 0000000180064170 f i CoreConfigurationManagerImpl.obj
 0001:00063170       ?GetActualINodeIterator@INodeIterator_I@AdobeXMPCore_Int@@UEAAPEAVINodeIterator_v1@AdobeXMPCore@@XZ 0000000180064170 f i ArrayNodeImpl.obj
 0001:00063170       ?GetActualIPath@IPath_I@AdobeXMPCore_Int@@UEAAPEAVIPath_v1@AdobeXMPCore@@XZ 0000000180064170 f i PathImpl.obj
 0001:00063170       ?GetActualIUTF8String@IUTF8String_I@AdobeXMPCore_Int@@UEAAPEAVIUTF8String_v1@AdobeXMPCommon@@XZ 0000000180064170 f i UTF8StringImpl.obj
 0001:0006318c       ?GetINodeIterator_I@INodeIterator_I@AdobeXMPCore_Int@@UEAAPEAV12@XZ 000000018006418c f i ArrayNodeImpl.obj
 0001:0006318c       ?GetIPath_I@IPath_I@AdobeXMPCore_Int@@UEAAPEAV12@XZ 000000018006418c f i PathImpl.obj
 0001:00063194       ??_EINodeIterator_I@AdobeXMPCore_Int@@MEAAPEAXI@Z 0000000180064194 f i * CIL library *:* CIL module *
 0001:00063194       ??_GINodeIterator_I@AdobeXMPCore_Int@@MEAAPEAXI@Z 0000000180064194 f i ArrayNodeImpl.obj
 0001:00063228       ??0ArrayNodeImpl@AdobeXMPCore_Int@@QEAA@PEBD_K01W4eArrayForm@IArrayNode_v1@AdobeXMPCore@@@Z 0000000180064228 f   ArrayNodeImpl.obj
 0001:0006396c       ??0ICompositeNode_I@AdobeXMPCore_Int@@QEAA@XZ 000000018006496c f i ArrayNodeImpl.obj
 0001:00063a2c       ?GetArrayForm@ArrayNodeImpl@AdobeXMPCore_Int@@UEBA?AW4eArrayForm@IArrayNode_v1@AdobeXMPCore@@XZ 0000000180064a2c f   ArrayNodeImpl.obj
 0001:00063a34       ?GetChildNodeType@ArrayNodeImpl@AdobeXMPCore_Int@@UEBA?AW4eNodeType@INode_v1@AdobeXMPCore@@XZ 0000000180064a34 f   ArrayNodeImpl.obj
 0001:00063a8c       ?GetNodeAtIndex@ArrayNodeImpl@AdobeXMPCore_Int@@UEAA?AV?$shared_ptr@VINode_v1@AdobeXMPCore@@@std@@_K@Z 0000000180064a8c f   ArrayNodeImpl.obj
 0001:00063b2c       ?InsertNodeAtIndex@ArrayNodeImpl@AdobeXMPCore_Int@@UEAAXAEBV?$shared_ptr@VINode_v1@AdobeXMPCore@@@std@@_K@Z 0000000180064b2c f   ArrayNodeImpl.obj
 0001:00063e74       ?RemoveNodeAtIndex@ArrayNodeImpl@AdobeXMPCore_Int@@UEAA?AV?$shared_ptr@VINode_v1@AdobeXMPCore@@@std@@_K@Z 0000000180064e74 f   ArrayNodeImpl.obj
 0001:00063fd0       ?ReplaceNodeAtIndex@ArrayNodeImpl@AdobeXMPCore_Int@@UEAA?AV?$shared_ptr@VINode_v1@AdobeXMPCore@@@std@@AEBV34@_K@Z 0000000180064fd0 f   ArrayNodeImpl.obj
 0001:00064294       ?AppendNode@ArrayNodeImpl@AdobeXMPCore_Int@@UEAAXAEBV?$shared_ptr@VINode_v1@AdobeXMPCore@@@std@@@Z 0000000180065294 f   ArrayNodeImpl.obj
 0001:000642ec       ?Iterator@ArrayNodeImpl@AdobeXMPCore_Int@@UEAA?AV?$shared_ptr@VINodeIterator_v1@AdobeXMPCore@@@std@@XZ 00000001800652ec f   ArrayNodeImpl.obj
 0001:00064420       ?ChildCount@ArrayNodeImpl@AdobeXMPCore_Int@@UEBA_KXZ 0000000180065420 f   ArrayNodeImpl.obj
 0001:00064470       ?ConvertToArrayNode@ArrayNodeImpl@AdobeXMPCore_Int@@UEAA?AV?$shared_ptr@VIArrayNode_v1@AdobeXMPCore@@@std@@XZ 0000000180065470 f   ArrayNodeImpl.obj
 0001:00064514       ?GetNodeType@ArrayNodeImpl@AdobeXMPCore_Int@@UEBA?AW4eNodeType@INode_v1@AdobeXMPCore@@XZ 0000000180065514 f   ArrayNodeImpl.obj
 0001:0006451c       ?HasContent@ArrayNodeImpl@AdobeXMPCore_Int@@UEBA_NXZ 000000018006551c f   ArrayNodeImpl.obj
 0001:00064560       ?ClearContents@ArrayNodeImpl@AdobeXMPCore_Int@@UEAAXXZ 0000000180065560 f   ArrayNodeImpl.obj
 0001:0006464c       ?CloneContents@ArrayNodeImpl@AdobeXMPCore_Int@@UEBA?AV?$shared_ptr@VINode_v1@AdobeXMPCore@@@std@@_N0_K@Z 000000018006564c f   ArrayNodeImpl.obj
 0001:00064940       ?resetChangesForChildren@ArrayNodeImpl@AdobeXMPCore_Int@@MEBAXXZ 0000000180065940 f   ArrayNodeImpl.obj
 0001:000649ac       ?CheckSuitabilityToBeUsedAsChildNode@ArrayNodeImpl@AdobeXMPCore_Int@@UEBA_NAEBV?$shared_ptr@$$CBVINode_v1@AdobeXMPCore@@@std@@@Z 00000001800659ac f   ArrayNodeImpl.obj
 0001:00064b60       ?CreateArrayNode@IArrayNode_I@AdobeXMPCore_Int@@SA?AV?$shared_ptr@VIArrayNode_v1@AdobeXMPCore@@@std@@AEBV?$shared_ptr@$$CBVIUTF8String_v1@AdobeXMPCommon@@@4@0W4eArrayForm@IArrayNode_v1@AdobeXMPCore@@@Z 0000000180065b60 f   ArrayNodeImpl.obj
 0001:00064cc0       ?CreateUnorderedArrayNode@IArrayNode_v1@AdobeXMPCore@@SA?AV?$shared_ptr@VIArrayNode_v1@AdobeXMPCore@@@std@@PEBD_K01@Z 0000000180065cc0 f   ArrayNodeImpl.obj
 0001:00064dc0       ?CreateOrderedArrayNode@IArrayNode_v1@AdobeXMPCore@@SA?AV?$shared_ptr@VIArrayNode_v1@AdobeXMPCore@@@std@@PEBD_K01@Z 0000000180065dc0 f   ArrayNodeImpl.obj
 0001:00064ec0       ?CreateAlternativeArrayNode@IArrayNode_v1@AdobeXMPCore@@SA?AV?$shared_ptr@VIArrayNode_v1@AdobeXMPCore@@@std@@PEBD_K01@Z 0000000180065ec0 f   ArrayNodeImpl.obj
 0001:00064fc0       ??$MakeUncheckedSharedPointer@VINode_v1@AdobeXMPCore@@@AdobeXMPCore_Int@@YA?AV?$shared_ptr@VINode_v1@AdobeXMPCore@@@std@@PEAVINode_v1@AdobeXMPCore@@PEBD_K_N@Z 0000000180065fc0 f i ArrayNodeImpl.obj
 0001:00065104       ??$MakeUncheckedSharedPointer@V?$TNodeIteratorImpl@V?$_Vector_iterator@V?$_Vector_val@U?$_Simple_types@V?$shared_ptr@VINode_v1@AdobeXMPCore@@@std@@@std@@@std@@@std@@@AdobeXMPCore_Int@@@AdobeXMPCore_Int@@YA?AV?$shared_ptr@V?$TNodeIteratorImpl@V?$_Vector_iterator@V?$_Vector_val@U?$_Simple_types@V?$shared_ptr@VINode_v1@AdobeXMPCore@@@std@@@std@@@std@@@std@@@AdobeXMPCore_Int@@@std@@PEAV?$TNodeIteratorImpl@V?$_Vector_iterator@V?$_Vector_val@U?$_Simple_types@V?$shared_ptr@VINode_v1@AdobeXMPCore@@@std@@@std@@@std@@@std@@@0@PEBD_K_N@Z 0000000180066104 f i ArrayNodeImpl.obj
 0001:00065260       ??$MakeUncheckedSharedPointer@VArrayNodeImpl@AdobeXMPCore_Int@@@AdobeXMPCore_Int@@YA?AV?$shared_ptr@VArrayNodeImpl@AdobeXMPCore_Int@@@std@@PEAVArrayNodeImpl@0@PEBD_K_N@Z 0000000180066260 f i ArrayNodeImpl.obj
 0001:000653b0       ?Next@?$TNodeIteratorImpl@V?$_Vector_iterator@V?$_Vector_val@U?$_Simple_types@V?$shared_ptr@VINode_v1@AdobeXMPCore@@@std@@@std@@@std@@@std@@@AdobeXMPCore_Int@@UEAA?AV?$shared_ptr@VINodeIterator_v1@AdobeXMPCore@@@std@@XZ 00000001800663b0 f i ArrayNodeImpl.obj
 0001:00065484       ?GetNodeType@?$TNodeIteratorImpl@V?$_Vector_iterator@V?$_Vector_val@U?$_Simple_types@V?$shared_ptr@VINode_v1@AdobeXMPCore@@@std@@@std@@@std@@@std@@@AdobeXMPCore_Int@@UEBA?AW4eNodeType@INode_v1@AdobeXMPCore@@XZ 0000000180066484 f i ArrayNodeImpl.obj
 0001:0006550c       ?GetNode@?$TNodeIteratorImpl@V?$_Vector_iterator@V?$_Vector_val@U?$_Simple_types@V?$shared_ptr@VINode_v1@AdobeXMPCore@@@std@@@std@@@std@@@std@@@AdobeXMPCore_Int@@UEAA?AV?$shared_ptr@VINode_v1@AdobeXMPCore@@@std@@XZ 000000018006650c f i ArrayNodeImpl.obj
 0001:00065558       ??0?$TNodeIteratorImpl@V?$_Vector_iterator@V?$_Vector_val@U?$_Simple_types@V?$shared_ptr@VINode_v1@AdobeXMPCore@@@std@@@std@@@std@@@std@@@AdobeXMPCore_Int@@QEAA@AEBV?$_Vector_iterator@V?$_Vector_val@U?$_Simple_types@V?$shared_ptr@VINode_v1@AdobeXMPCore@@@std@@@std@@@std@@@std@@0@Z 0000000180066558 f i ArrayNodeImpl.obj
 0001:00065754       ?insert@?$vector@V?$shared_ptr@VINode_v1@AdobeXMPCore@@@std@@V?$TAllocator@V?$shared_ptr@VINode_v1@AdobeXMPCore@@@std@@@AdobeXMPCore_Int@@@std@@QEAA?AV?$_Vector_iterator@V?$_Vector_val@U?$_Simple_types@V?$shared_ptr@VINode_v1@AdobeXMPCore@@@std@@@std@@@std@@@2@V?$_Vector_const_iterator@V?$_Vector_val@U?$_Simple_types@V?$shared_ptr@VINode_v1@AdobeXMPCore@@@std@@@std@@@std@@@2@$$QEAV?$shared_ptr@VINode_v1@AdobeXMPCore@@@2@@Z 0000000180066754 f i ArrayNodeImpl.obj
 0001:0006589c       ??1?$vector@V?$shared_ptr@$$CBVIPathSegment_v1@AdobeXMPCore@@@std@@V?$TAllocator@V?$shared_ptr@$$CBVIPathSegment_v1@AdobeXMPCore@@@std@@@AdobeXMPCore_Int@@@std@@QEAA@XZ 000000018006689c f i PathImpl.obj
 0001:0006589c       ??1?$vector@V?$shared_ptr@$$CBVIUTF8String_v1@AdobeXMPCommon@@@std@@V?$TAllocator@V?$shared_ptr@$$CBVIUTF8String_v1@AdobeXMPCommon@@@std@@@AdobeXMPCore_Int@@@std@@QEAA@XZ 000000018006689c f i ErrorImpl.obj
 0001:0006589c       ??1?$vector@V?$shared_ptr@VINode_v1@AdobeXMPCore@@@std@@V?$TAllocator@V?$shared_ptr@VINode_v1@AdobeXMPCore@@@std@@@AdobeXMPCore_Int@@@std@@QEAA@XZ 000000018006689c f i ArrayNodeImpl.obj
 0001:00065948       ??_E?$TNodeIteratorImpl@V?$_Vector_iterator@V?$_Vector_val@U?$_Simple_types@V?$shared_ptr@VINode_v1@AdobeXMPCore@@@std@@@std@@@std@@@std@@@AdobeXMPCore_Int@@MEAAPEAXI@Z 0000000180066948 f i * CIL library *:* CIL module *
 0001:00065948       ??_G?$TNodeIteratorImpl@V?$_Vector_iterator@V?$_Vector_val@U?$_Simple_types@V?$shared_ptr@VINode_v1@AdobeXMPCore@@@std@@@std@@@std@@@std@@@AdobeXMPCore_Int@@MEAAPEAXI@Z 0000000180066948 f i ArrayNodeImpl.obj
 0001:00065b20       ??$_Emplace_reallocate@AEBV?$shared_ptr@$$CBVIPathSegment_v1@AdobeXMPCore@@@std@@@?$vector@V?$shared_ptr@$$CBVIPathSegment_v1@AdobeXMPCore@@@std@@V?$TAllocator@V?$shared_ptr@$$CBVIPathSegment_v1@AdobeXMPCore@@@std@@@AdobeXMPCore_Int@@@std@@AEAAPEAV?$shared_ptr@$$CBVIPathSegment_v1@AdobeXMPCore@@@1@QEAV21@AEBV21@@Z 0000000180066b20 f i PathImpl.obj
 0001:00065b20       ??$_Emplace_reallocate@V?$shared_ptr@$$CBVIUTF8String_v1@AdobeXMPCommon@@@std@@@?$vector@V?$shared_ptr@$$CBVIUTF8String_v1@AdobeXMPCommon@@@std@@V?$TAllocator@V?$shared_ptr@$$CBVIUTF8String_v1@AdobeXMPCommon@@@std@@@AdobeXMPCore_Int@@@std@@AEAAPEAV?$shared_ptr@$$CBVIUTF8String_v1@AdobeXMPCommon@@@1@QEAV21@$$QEAV21@@Z 0000000180066b20 f i ErrorImpl.obj
 0001:00065b20       ??$_Emplace_reallocate@V?$shared_ptr@VINode_v1@AdobeXMPCore@@@std@@@?$vector@V?$shared_ptr@VINode_v1@AdobeXMPCore@@@std@@V?$TAllocator@V?$shared_ptr@VINode_v1@AdobeXMPCore@@@std@@@AdobeXMPCore_Int@@@std@@AEAAPEAV?$shared_ptr@VINode_v1@AdobeXMPCore@@@1@QEAV21@$$QEAV21@@Z 0000000180066b20 f i ArrayNodeImpl.obj
 0001:00065da8       ?_Delete_this@?$_Ref_count_resource_alloc@PEAV?$TNodeIteratorImpl@V?$_Tree_iterator@V?$_Tree_val@U?$_Tree_simple_types@U?$pair@$$CBUQualifiedName@StructureNodeImpl@AdobeXMPCore_Int@@V?$shared_ptr@VINode_v1@AdobeXMPCore@@@std@@@std@@@std@@@std@@@std@@@AdobeXMPCore_Int@@V?$_Mem_fn@P8SharedObjectImpl@AdobeXMPCore_Int@@EBAXX_E@std@@V?$TAllocator@V?$TNodeIteratorImpl@V?$_Tree_iterator@V?$_Tree_val@U?$_Tree_simple_types@U?$pair@$$CBUQualifiedName@StructureNodeImpl@AdobeXMPCore_Int@@V?$shared_ptr@VINode_v1@AdobeXMPCore@@@std@@@std@@@std@@@std@@@std@@@AdobeXMPCore_Int@@@2@@std@@EEAAXXZ 0000000180066da8 f i StructureNodeImpl.obj
 0001:00065da8       ?_Delete_this@?$_Ref_count_resource_alloc@PEAV?$TNodeIteratorImpl@V?$_Vector_iterator@V?$_Vector_val@U?$_Simple_types@V?$shared_ptr@VINode_v1@AdobeXMPCore@@@std@@@std@@@std@@@std@@@AdobeXMPCore_Int@@V?$_Mem_fn@P8SharedObjectImpl@AdobeXMPCore_Int@@EBAXX_E@std@@V?$TAllocator@V?$TNodeIteratorImpl@V?$_Vector_iterator@V?$_Vector_val@U?$_Simple_types@V?$shared_ptr@VINode_v1@AdobeXMPCore@@@std@@@std@@@std@@@std@@@AdobeXMPCore_Int@@@2@@std@@EEAAXXZ 0000000180066da8 f i ArrayNodeImpl.obj
 0001:00065da8       ?_Delete_this@?$_Ref_count_resource_alloc@PEAVArrayNodeImpl@AdobeXMPCore_Int@@V?$_Mem_fn@P8NodeImpl@AdobeXMPCore_Int@@EBAXX_E@std@@V?$TAllocator@VArrayNodeImpl@AdobeXMPCore_Int@@@2@@std@@EEAAXXZ 0000000180066da8 f i ArrayNodeImpl.obj
 0001:00065da8       ?_Delete_this@?$_Ref_count_resource_alloc@PEAVClientDOMParserWrapperImpl@AdobeXMPCore_Int@@V?$_Mem_fn@P8SharedObjectImpl@AdobeXMPCore_Int@@EBAXX_E@std@@V?$TAllocator@VClientDOMParserWrapperImpl@AdobeXMPCore_Int@@@2@@std@@EEAAXXZ 0000000180066da8 f i DOMParserImpl.obj
 0001:00065da8       ?_Delete_this@?$_Ref_count_resource_alloc@PEAVClientDOMSerializerWrapperImpl@AdobeXMPCore_Int@@V?$_Mem_fn@P8SharedObjectImpl@AdobeXMPCore_Int@@EBAXX_E@std@@V?$TAllocator@VClientDOMSerializerWrapperImpl@AdobeXMPCore_Int@@@2@@std@@EEAAXXZ 0000000180066da8 f i DOMSerializerImpl.obj
 0001:00065da8       ?_Delete_this@?$_Ref_count_resource_alloc@PEAVCompositeNodeImpl@AdobeXMPCore_Int@@V?$_Mem_fn@P8NodeImpl@AdobeXMPCore_Int@@EBAXX_E@std@@V?$TAllocator@VCompositeNodeImpl@AdobeXMPCore_Int@@@2@@std@@EEAAXXZ 0000000180066da8 f i CompositeNodeImpl.obj
 0001:00065da8       ?_Delete_this@?$_Ref_count_resource_alloc@PEAVCoreConfigurationManagerImpl@AdobeXMPCore_Int@@V?$_Mem_fn@P8SharedObjectImpl@AdobeXMPCore_Int@@EBAXX_E@std@@V?$TAllocator@VCoreConfigurationManagerImpl@AdobeXMPCore_Int@@@2@@std@@EEAAXXZ 0000000180066da8 f i CoreConfigurationManagerImpl.obj
 0001:00065da8       ?_Delete_this@?$_Ref_count_resource_alloc@PEAVDOMImplementationRegistryImpl@AdobeXMPCore_Int@@V?$_Mem_fn@P8SharedObjectImpl@AdobeXMPCore_Int@@EBAXX_E@std@@V?$TAllocator@VDOMImplementationRegistryImpl@AdobeXMPCore_Int@@@2@@std@@EEAAXXZ 0000000180066da8 f i DOMImplementationRegistryImpl.obj
 0001:00065da8       ?_Delete_this@?$_Ref_count_resource_alloc@PEAVDOMParserImpl@AdobeXMPCore_Int@@V?$_Mem_fn@P8SharedObjectImpl@AdobeXMPCore_Int@@EBAXX_E@std@@V?$TAllocator@VDOMParserImpl@AdobeXMPCore_Int@@@2@@std@@EEAAXXZ 0000000180066da8 f i DOMParserImpl.obj
 0001:00065da8       ?_Delete_this@?$_Ref_count_resource_alloc@PEAVDOMSerializerImpl@AdobeXMPCore_Int@@V?$_Mem_fn@P8SharedObjectImpl@AdobeXMPCore_Int@@EBAXX_E@std@@V?$TAllocator@VDOMSerializerImpl@AdobeXMPCore_Int@@@2@@std@@EEAAXXZ 0000000180066da8 f i DOMSerializerImpl.obj
 0001:00065da8       ?_Delete_this@?$_Ref_count_resource_alloc@PEAVErrorImpl@AdobeXMPCore_Int@@V?$_Mem_fn@P8SharedObjectImpl@AdobeXMPCore_Int@@EBAXX_E@std@@V?$TAllocator@VErrorImpl@AdobeXMPCore_Int@@@2@@std@@EEAAXXZ 0000000180066da8 f i ErrorImpl.obj
 0001:00065da8       ?_Delete_this@?$_Ref_count_resource_alloc@PEAVIMetadata_v1@AdobeXMPCore@@V?$_Mem_fn@P8ISharedObject@AdobeXMPCommon@@EBAXX_E@std@@V?$TAllocator@VIMetadata_v1@AdobeXMPCore@@@AdobeXMPCore_Int@@@std@@EEAAXXZ 0000000180066da8 f i DOMParserImpl.obj
 0001:00065da8       ?_Delete_this@?$_Ref_count_resource_alloc@PEAVINameSpacePrefixMap_I@AdobeXMPCore_Int@@V?$_Mem_fn@P8ISharedObject@AdobeXMPCommon@@EBAXX_E@std@@V?$TAllocator@VINameSpacePrefixMap_I@AdobeXMPCore_Int@@@2@@std@@EEAAXXZ 0000000180066da8 f i MetadataConverterUtilsImpl.obj
 0001:00065da8       ?_Delete_this@?$_Ref_count_resource_alloc@PEAVINameSpacePrefixMap_v1@AdobeXMPCore@@V?$_Mem_fn@P8ISharedObject@AdobeXMPCommon@@EBAXX_E@std@@V?$TAllocator@VINameSpacePrefixMap_v1@AdobeXMPCore@@@AdobeXMPCore_Int@@@std@@EEAAXXZ 0000000180066da8 f i NameSpacePrefixMapImpl.obj
 0001:00065da8       ?_Delete_this@?$_Ref_count_resource_alloc@PEAVINode_v1@AdobeXMPCore@@V?$_Mem_fn@P8ISharedObject@AdobeXMPCommon@@EBAXX_E@std@@V?$TAllocator@VINode_v1@AdobeXMPCore@@@AdobeXMPCore_Int@@@std@@EEAAXXZ 0000000180066da8 f i ArrayNodeImpl.obj
 0001:00065da8       ?_Delete_this@?$_Ref_count_resource_alloc@PEAVIPathSegment_v1@AdobeXMPCore@@V?$_Mem_fn@P8ISharedObject@AdobeXMPCommon@@EBAXX_E@std@@V?$TAllocator@VIPathSegment_v1@AdobeXMPCore@@@AdobeXMPCore_Int@@@std@@EEAAXXZ 0000000180066da8 f i PathSegmentImpl.obj
 0001:00065da8       ?_Delete_this@?$_Ref_count_resource_alloc@PEAVIPath_v1@AdobeXMPCore@@V?$_Mem_fn@P8ISharedObject@AdobeXMPCommon@@EBAXX_E@std@@V?$TAllocator@VIPath_v1@AdobeXMPCore@@@AdobeXMPCore_Int@@@std@@EEAAXXZ 0000000180066da8 f i PathImpl.obj
 0001:00065da8       ?_Delete_this@?$_Ref_count_resource_alloc@PEAVMetadataImpl@AdobeXMPCore_Int@@V?$_Mem_fn@P8NodeImpl@AdobeXMPCore_Int@@EBAXX_E@std@@V?$TAllocator@VMetadataImpl@AdobeXMPCore_Int@@@2@@std@@EEAAXXZ 0000000180066da8 f i MetadataImpl.obj
 0001:00065da8       ?_Delete_this@?$_Ref_count_resource_alloc@PEAVNameSpacePrefixMapImpl@AdobeXMPCore_Int@@V?$_Mem_fn@P8SharedObjectImpl@AdobeXMPCore_Int@@EBAXX_E@std@@V?$TAllocator@VNameSpacePrefixMapImpl@AdobeXMPCore_Int@@@2@@std@@EEAAXXZ 0000000180066da8 f i NameSpacePrefixMapImpl.obj
 0001:00065da8       ?_Delete_this@?$_Ref_count_resource_alloc@PEAVPathImpl@AdobeXMPCore_Int@@V?$_Mem_fn@P8SharedObjectImpl@AdobeXMPCore_Int@@EBAXX_E@std@@V?$TAllocator@VPathImpl@AdobeXMPCore_Int@@@2@@std@@EEAAXXZ 0000000180066da8 f i PathImpl.obj
 0001:00065da8       ?_Delete_this@?$_Ref_count_resource_alloc@PEAVPathSegmentImpl@AdobeXMPCore_Int@@V?$_Mem_fn@P8SharedObjectImpl@AdobeXMPCore_Int@@EBAXX_E@std@@V?$TAllocator@VPathSegmentImpl@AdobeXMPCore_Int@@@2@@std@@EEAAXXZ 0000000180066da8 f i PathSegmentImpl.obj
 0001:00065da8       ?_Delete_this@?$_Ref_count_resource_alloc@PEAVRDFDOMParserImpl@AdobeXMPCore_Int@@V?$_Mem_fn@P8SharedObjectImpl@AdobeXMPCore_Int@@EBAXX_E@std@@V?$TAllocator@VRDFDOMParserImpl@AdobeXMPCore_Int@@@2@@std@@EEAAXXZ 0000000180066da8 f i DOMImplementationRegistryImpl.obj
 0001:00065da8       ?_Delete_this@?$_Ref_count_resource_alloc@PEAVRDFDOMSerializerImpl@AdobeXMPCore_Int@@V?$_Mem_fn@P8SharedObjectImpl@AdobeXMPCore_Int@@EBAXX_E@std@@V?$TAllocator@VRDFDOMSerializerImpl@AdobeXMPCore_Int@@@2@@std@@EEAAXXZ 0000000180066da8 f i DOMImplementationRegistryImpl.obj
 0001:00065da8       ?_Delete_this@?$_Ref_count_resource_alloc@PEAVSharedMutexImpl@AdobeXMPCore_Int@@V?$_Mem_fn@P8SharedObjectImpl@AdobeXMPCore_Int@@EBAXX_E@std@@V?$TAllocator@VSharedMutexImpl@AdobeXMPCore_Int@@@2@@std@@EEAAXXZ 0000000180066da8 f i SharedMutexImpl.obj
 0001:00065da8       ?_Delete_this@?$_Ref_count_resource_alloc@PEAVSimpleNodeImpl@AdobeXMPCore_Int@@V?$_Mem_fn@P8NodeImpl@AdobeXMPCore_Int@@EBAXX_E@std@@V?$TAllocator@VSimpleNodeImpl@AdobeXMPCore_Int@@@2@@std@@EEAAXXZ 0000000180066da8 f i SimpleNodeImpl.obj
 0001:00065da8       ?_Delete_this@?$_Ref_count_resource_alloc@PEAVStructureNodeImpl@AdobeXMPCore_Int@@V?$_Mem_fn@P8NodeImpl@AdobeXMPCore_Int@@EBAXX_E@std@@V?$TAllocator@VStructureNodeImpl@AdobeXMPCore_Int@@@2@@std@@EEAAXXZ 0000000180066da8 f i StructureNodeImpl.obj
 0001:00065da8       ?_Delete_this@?$_Ref_count_resource_alloc@PEAVUTF8StringImpl@AdobeXMPCore_Int@@V?$_Mem_fn@P8SharedObjectImpl@AdobeXMPCore_Int@@EBAXX_E@std@@V?$TAllocator@VUTF8StringImpl@AdobeXMPCore_Int@@@2@@std@@EEAAXXZ 0000000180066da8 f i UTF8StringImpl.obj
 0001:00065de0       ?_Destroy@?$_Ref_count_resource_alloc@PEAVArrayNodeImpl@AdobeXMPCore_Int@@V?$_Mem_fn@P8NodeImpl@AdobeXMPCore_Int@@EBAXX_E@std@@V?$TAllocator@VArrayNodeImpl@AdobeXMPCore_Int@@@2@@std@@EEAAXXZ 0000000180066de0 f i ArrayNodeImpl.obj
 0001:00065de0       ?_Destroy@?$_Ref_count_resource_alloc@PEAVStructureNodeImpl@AdobeXMPCore_Int@@V?$_Mem_fn@P8NodeImpl@AdobeXMPCore_Int@@EBAXX_E@std@@V?$TAllocator@VStructureNodeImpl@AdobeXMPCore_Int@@@2@@std@@EEAAXXZ 0000000180066de0 f i StructureNodeImpl.obj
 0001:00065e24       ?_Get_deleter@?$_Ref_count_resource_alloc@PEAVArrayNodeImpl@AdobeXMPCore_Int@@V?$_Mem_fn@P8NodeImpl@AdobeXMPCore_Int@@EBAXX_E@std@@V?$TAllocator@VArrayNodeImpl@AdobeXMPCore_Int@@@2@@std@@UEBAPEAXAEBVtype_info@@@Z 0000000180066e24 f i ArrayNodeImpl.obj
 0001:00065e24       ?_Get_deleter@?$_Ref_count_resource_alloc@PEAVCompositeNodeImpl@AdobeXMPCore_Int@@V?$_Mem_fn@P8NodeImpl@AdobeXMPCore_Int@@EBAXX_E@std@@V?$TAllocator@VCompositeNodeImpl@AdobeXMPCore_Int@@@2@@std@@UEBAPEAXAEBVtype_info@@@Z 0000000180066e24 f i CompositeNodeImpl.obj
 0001:00065e24       ?_Get_deleter@?$_Ref_count_resource_alloc@PEAVMetadataImpl@AdobeXMPCore_Int@@V?$_Mem_fn@P8NodeImpl@AdobeXMPCore_Int@@EBAXX_E@std@@V?$TAllocator@VMetadataImpl@AdobeXMPCore_Int@@@2@@std@@UEBAPEAXAEBVtype_info@@@Z 0000000180066e24 f i MetadataImpl.obj
 0001:00065e24       ?_Get_deleter@?$_Ref_count_resource_alloc@PEAVSimpleNodeImpl@AdobeXMPCore_Int@@V?$_Mem_fn@P8NodeImpl@AdobeXMPCore_Int@@EBAXX_E@std@@V?$TAllocator@VSimpleNodeImpl@AdobeXMPCore_Int@@@2@@std@@UEBAPEAXAEBVtype_info@@@Z 0000000180066e24 f i SimpleNodeImpl.obj
 0001:00065e24       ?_Get_deleter@?$_Ref_count_resource_alloc@PEAVStructureNodeImpl@AdobeXMPCore_Int@@V?$_Mem_fn@P8NodeImpl@AdobeXMPCore_Int@@EBAXX_E@std@@V?$TAllocator@VStructureNodeImpl@AdobeXMPCore_Int@@@2@@std@@UEBAPEAXAEBVtype_info@@@Z 0000000180066e24 f i StructureNodeImpl.obj
 0001:00065e54       ?_Destroy@?$_Ref_count_resource_alloc@PEAV?$TNodeIteratorImpl@V?$_Tree_iterator@V?$_Tree_val@U?$_Tree_simple_types@U?$pair@$$CBUQualifiedName@StructureNodeImpl@AdobeXMPCore_Int@@V?$shared_ptr@VINode_v1@AdobeXMPCore@@@std@@@std@@@std@@@std@@@std@@@AdobeXMPCore_Int@@V?$_Mem_fn@P8SharedObjectImpl@AdobeXMPCore_Int@@EBAXX_E@std@@V?$TAllocator@V?$TNodeIteratorImpl@V?$_Tree_iterator@V?$_Tree_val@U?$_Tree_simple_types@U?$pair@$$CBUQualifiedName@StructureNodeImpl@AdobeXMPCore_Int@@V?$shared_ptr@VINode_v1@AdobeXMPCore@@@std@@@std@@@std@@@std@@@std@@@AdobeXMPCore_Int@@@2@@std@@EEAAXXZ 0000000180066e54 f i StructureNodeImpl.obj
 0001:00065e54       ?_Destroy@?$_Ref_count_resource_alloc@PEAV?$TNodeIteratorImpl@V?$_Vector_iterator@V?$_Vector_val@U?$_Simple_types@V?$shared_ptr@VINode_v1@AdobeXMPCore@@@std@@@std@@@std@@@std@@@AdobeXMPCore_Int@@V?$_Mem_fn@P8SharedObjectImpl@AdobeXMPCore_Int@@EBAXX_E@std@@V?$TAllocator@V?$TNodeIteratorImpl@V?$_Vector_iterator@V?$_Vector_val@U?$_Simple_types@V?$shared_ptr@VINode_v1@AdobeXMPCore@@@std@@@std@@@std@@@std@@@AdobeXMPCore_Int@@@2@@std@@EEAAXXZ 0000000180066e54 f i ArrayNodeImpl.obj
 0001:00065e54       ?_Destroy@?$_Ref_count_resource_alloc@PEAVDOMImplementationRegistryImpl@AdobeXMPCore_Int@@V?$_Mem_fn@P8SharedObjectImpl@AdobeXMPCore_Int@@EBAXX_E@std@@V?$TAllocator@VDOMImplementationRegistryImpl@AdobeXMPCore_Int@@@2@@std@@EEAAXXZ 0000000180066e54 f i DOMImplementationRegistryImpl.obj
 0001:00065e54       ?_Destroy@?$_Ref_count_resource_alloc@PEAVErrorImpl@AdobeXMPCore_Int@@V?$_Mem_fn@P8SharedObjectImpl@AdobeXMPCore_Int@@EBAXX_E@std@@V?$TAllocator@VErrorImpl@AdobeXMPCore_Int@@@2@@std@@EEAAXXZ 0000000180066e54 f i ErrorImpl.obj
 0001:00065e54       ?_Destroy@?$_Ref_count_resource_alloc@PEAVPathImpl@AdobeXMPCore_Int@@V?$_Mem_fn@P8SharedObjectImpl@AdobeXMPCore_Int@@EBAXX_E@std@@V?$TAllocator@VPathImpl@AdobeXMPCore_Int@@@2@@std@@EEAAXXZ 0000000180066e54 f i PathImpl.obj
 0001:00065e54       ?_Destroy@?$_Ref_count_resource_alloc@PEAVPathSegmentImpl@AdobeXMPCore_Int@@V?$_Mem_fn@P8SharedObjectImpl@AdobeXMPCore_Int@@EBAXX_E@std@@V?$TAllocator@VPathSegmentImpl@AdobeXMPCore_Int@@@2@@std@@EEAAXXZ 0000000180066e54 f i PathSegmentImpl.obj
 0001:00065e94       ?_Get_deleter@?$_Ref_count_resource_alloc@PEAV?$TNodeIteratorImpl@V?$_Tree_iterator@V?$_Tree_val@U?$_Tree_simple_types@U?$pair@$$CBUQualifiedName@StructureNodeImpl@AdobeXMPCore_Int@@V?$shared_ptr@VINode_v1@AdobeXMPCore@@@std@@@std@@@std@@@std@@@std@@@AdobeXMPCore_Int@@V?$_Mem_fn@P8SharedObjectImpl@AdobeXMPCore_Int@@EBAXX_E@std@@V?$TAllocator@V?$TNodeIteratorImpl@V?$_Tree_iterator@V?$_Tree_val@U?$_Tree_simple_types@U?$pair@$$CBUQualifiedName@StructureNodeImpl@AdobeXMPCore_Int@@V?$shared_ptr@VINode_v1@AdobeXMPCore@@@std@@@std@@@std@@@std@@@std@@@AdobeXMPCore_Int@@@2@@std@@UEBAPEAXAEBVtype_info@@@Z 0000000180066e94 f i StructureNodeImpl.obj
 0001:00065e94       ?_Get_deleter@?$_Ref_count_resource_alloc@PEAV?$TNodeIteratorImpl@V?$_Vector_iterator@V?$_Vector_val@U?$_Simple_types@V?$shared_ptr@VINode_v1@AdobeXMPCore@@@std@@@std@@@std@@@std@@@AdobeXMPCore_Int@@V?$_Mem_fn@P8SharedObjectImpl@AdobeXMPCore_Int@@EBAXX_E@std@@V?$TAllocator@V?$TNodeIteratorImpl@V?$_Vector_iterator@V?$_Vector_val@U?$_Simple_types@V?$shared_ptr@VINode_v1@AdobeXMPCore@@@std@@@std@@@std@@@std@@@AdobeXMPCore_Int@@@2@@std@@UEBAPEAXAEBVtype_info@@@Z 0000000180066e94 f i ArrayNodeImpl.obj
 0001:00065e94       ?_Get_deleter@?$_Ref_count_resource_alloc@PEAVClientDOMParserWrapperImpl@AdobeXMPCore_Int@@V?$_Mem_fn@P8SharedObjectImpl@AdobeXMPCore_Int@@EBAXX_E@std@@V?$TAllocator@VClientDOMParserWrapperImpl@AdobeXMPCore_Int@@@2@@std@@UEBAPEAXAEBVtype_info@@@Z 0000000180066e94 f i DOMParserImpl.obj
 0001:00065e94       ?_Get_deleter@?$_Ref_count_resource_alloc@PEAVClientDOMSerializerWrapperImpl@AdobeXMPCore_Int@@V?$_Mem_fn@P8SharedObjectImpl@AdobeXMPCore_Int@@EBAXX_E@std@@V?$TAllocator@VClientDOMSerializerWrapperImpl@AdobeXMPCore_Int@@@2@@std@@UEBAPEAXAEBVtype_info@@@Z 0000000180066e94 f i DOMSerializerImpl.obj
 0001:00065e94       ?_Get_deleter@?$_Ref_count_resource_alloc@PEAVCoreConfigurationManagerImpl@AdobeXMPCore_Int@@V?$_Mem_fn@P8SharedObjectImpl@AdobeXMPCore_Int@@EBAXX_E@std@@V?$TAllocator@VCoreConfigurationManagerImpl@AdobeXMPCore_Int@@@2@@std@@UEBAPEAXAEBVtype_info@@@Z 0000000180066e94 f i CoreConfigurationManagerImpl.obj
 0001:00065e94       ?_Get_deleter@?$_Ref_count_resource_alloc@PEAVDOMImplementationRegistryImpl@AdobeXMPCore_Int@@V?$_Mem_fn@P8SharedObjectImpl@AdobeXMPCore_Int@@EBAXX_E@std@@V?$TAllocator@VDOMImplementationRegistryImpl@AdobeXMPCore_Int@@@2@@std@@UEBAPEAXAEBVtype_info@@@Z 0000000180066e94 f i DOMImplementationRegistryImpl.obj
 0001:00065e94       ?_Get_deleter@?$_Ref_count_resource_alloc@PEAVDOMParserImpl@AdobeXMPCore_Int@@V?$_Mem_fn@P8SharedObjectImpl@AdobeXMPCore_Int@@EBAXX_E@std@@V?$TAllocator@VDOMParserImpl@AdobeXMPCore_Int@@@2@@std@@UEBAPEAXAEBVtype_info@@@Z 0000000180066e94 f i DOMParserImpl.obj
 0001:00065e94       ?_Get_deleter@?$_Ref_count_resource_alloc@PEAVDOMSerializerImpl@AdobeXMPCore_Int@@V?$_Mem_fn@P8SharedObjectImpl@AdobeXMPCore_Int@@EBAXX_E@std@@V?$TAllocator@VDOMSerializerImpl@AdobeXMPCore_Int@@@2@@std@@UEBAPEAXAEBVtype_info@@@Z 0000000180066e94 f i DOMSerializerImpl.obj
 0001:00065e94       ?_Get_deleter@?$_Ref_count_resource_alloc@PEAVErrorImpl@AdobeXMPCore_Int@@V?$_Mem_fn@P8SharedObjectImpl@AdobeXMPCore_Int@@EBAXX_E@std@@V?$TAllocator@VErrorImpl@AdobeXMPCore_Int@@@2@@std@@UEBAPEAXAEBVtype_info@@@Z 0000000180066e94 f i ErrorImpl.obj
 0001:00065e94       ?_Get_deleter@?$_Ref_count_resource_alloc@PEAVNameSpacePrefixMapImpl@AdobeXMPCore_Int@@V?$_Mem_fn@P8SharedObjectImpl@AdobeXMPCore_Int@@EBAXX_E@std@@V?$TAllocator@VNameSpacePrefixMapImpl@AdobeXMPCore_Int@@@2@@std@@UEBAPEAXAEBVtype_info@@@Z 0000000180066e94 f i NameSpacePrefixMapImpl.obj
 0001:00065e94       ?_Get_deleter@?$_Ref_count_resource_alloc@PEAVPathImpl@AdobeXMPCore_Int@@V?$_Mem_fn@P8SharedObjectImpl@AdobeXMPCore_Int@@EBAXX_E@std@@V?$TAllocator@VPathImpl@AdobeXMPCore_Int@@@2@@std@@UEBAPEAXAEBVtype_info@@@Z 0000000180066e94 f i PathImpl.obj
 0001:00065e94       ?_Get_deleter@?$_Ref_count_resource_alloc@PEAVPathSegmentImpl@AdobeXMPCore_Int@@V?$_Mem_fn@P8SharedObjectImpl@AdobeXMPCore_Int@@EBAXX_E@std@@V?$TAllocator@VPathSegmentImpl@AdobeXMPCore_Int@@@2@@std@@UEBAPEAXAEBVtype_info@@@Z 0000000180066e94 f i PathSegmentImpl.obj
 0001:00065e94       ?_Get_deleter@?$_Ref_count_resource_alloc@PEAVRDFDOMParserImpl@AdobeXMPCore_Int@@V?$_Mem_fn@P8SharedObjectImpl@AdobeXMPCore_Int@@EBAXX_E@std@@V?$TAllocator@VRDFDOMParserImpl@AdobeXMPCore_Int@@@2@@std@@UEBAPEAXAEBVtype_info@@@Z 0000000180066e94 f i DOMImplementationRegistryImpl.obj
 0001:00065e94       ?_Get_deleter@?$_Ref_count_resource_alloc@PEAVRDFDOMSerializerImpl@AdobeXMPCore_Int@@V?$_Mem_fn@P8SharedObjectImpl@AdobeXMPCore_Int@@EBAXX_E@std@@V?$TAllocator@VRDFDOMSerializerImpl@AdobeXMPCore_Int@@@2@@std@@UEBAPEAXAEBVtype_info@@@Z 0000000180066e94 f i DOMImplementationRegistryImpl.obj
 0001:00065e94       ?_Get_deleter@?$_Ref_count_resource_alloc@PEAVSharedMutexImpl@AdobeXMPCore_Int@@V?$_Mem_fn@P8SharedObjectImpl@AdobeXMPCore_Int@@EBAXX_E@std@@V?$TAllocator@VSharedMutexImpl@AdobeXMPCore_Int@@@2@@std@@UEBAPEAXAEBVtype_info@@@Z 0000000180066e94 f i SharedMutexImpl.obj
 0001:00065e94       ?_Get_deleter@?$_Ref_count_resource_alloc@PEAVUTF8StringImpl@AdobeXMPCore_Int@@V?$_Mem_fn@P8SharedObjectImpl@AdobeXMPCore_Int@@EBAXX_E@std@@V?$TAllocator@VUTF8StringImpl@AdobeXMPCore_Int@@@2@@std@@UEBAPEAXAEBVtype_info@@@Z 0000000180066e94 f i UTF8StringImpl.obj
 0001:00065ec4       ?_Destroy@?$_Ref_count_resource_alloc@PEAVIMetadata_v1@AdobeXMPCore@@V?$_Mem_fn@P8ISharedObject@AdobeXMPCommon@@EBAXX_E@std@@V?$TAllocator@VIMetadata_v1@AdobeXMPCore@@@AdobeXMPCore_Int@@@std@@EEAAXXZ 0000000180066ec4 f i DOMParserImpl.obj
 0001:00065ec4       ?_Destroy@?$_Ref_count_resource_alloc@PEAVINameSpacePrefixMap_I@AdobeXMPCore_Int@@V?$_Mem_fn@P8ISharedObject@AdobeXMPCommon@@EBAXX_E@std@@V?$TAllocator@VINameSpacePrefixMap_I@AdobeXMPCore_Int@@@2@@std@@EEAAXXZ 0000000180066ec4 f i MetadataConverterUtilsImpl.obj
 0001:00065ec4       ?_Destroy@?$_Ref_count_resource_alloc@PEAVINameSpacePrefixMap_v1@AdobeXMPCore@@V?$_Mem_fn@P8ISharedObject@AdobeXMPCommon@@EBAXX_E@std@@V?$TAllocator@VINameSpacePrefixMap_v1@AdobeXMPCore@@@AdobeXMPCore_Int@@@std@@EEAAXXZ 0000000180066ec4 f i NameSpacePrefixMapImpl.obj
 0001:00065ec4       ?_Destroy@?$_Ref_count_resource_alloc@PEAVINode_v1@AdobeXMPCore@@V?$_Mem_fn@P8ISharedObject@AdobeXMPCommon@@EBAXX_E@std@@V?$TAllocator@VINode_v1@AdobeXMPCore@@@AdobeXMPCore_Int@@@std@@EEAAXXZ 0000000180066ec4 f i ArrayNodeImpl.obj
 0001:00065ec4       ?_Destroy@?$_Ref_count_resource_alloc@PEAVIPathSegment_v1@AdobeXMPCore@@V?$_Mem_fn@P8ISharedObject@AdobeXMPCommon@@EBAXX_E@std@@V?$TAllocator@VIPathSegment_v1@AdobeXMPCore@@@AdobeXMPCore_Int@@@std@@EEAAXXZ 0000000180066ec4 f i PathSegmentImpl.obj
 0001:00065ec4       ?_Destroy@?$_Ref_count_resource_alloc@PEAVIPath_v1@AdobeXMPCore@@V?$_Mem_fn@P8ISharedObject@AdobeXMPCommon@@EBAXX_E@std@@V?$TAllocator@VIPath_v1@AdobeXMPCore@@@AdobeXMPCore_Int@@@std@@EEAAXXZ 0000000180066ec4 f i PathImpl.obj
 0001:00065ef4       ?_Get_deleter@?$_Ref_count_resource_alloc@PEAVIMetadata_v1@AdobeXMPCore@@V?$_Mem_fn@P8ISharedObject@AdobeXMPCommon@@EBAXX_E@std@@V?$TAllocator@VIMetadata_v1@AdobeXMPCore@@@AdobeXMPCore_Int@@@std@@UEBAPEAXAEBVtype_info@@@Z 0000000180066ef4 f i DOMParserImpl.obj
 0001:00065ef4       ?_Get_deleter@?$_Ref_count_resource_alloc@PEAVINameSpacePrefixMap_I@AdobeXMPCore_Int@@V?$_Mem_fn@P8ISharedObject@AdobeXMPCommon@@EBAXX_E@std@@V?$TAllocator@VINameSpacePrefixMap_I@AdobeXMPCore_Int@@@2@@std@@UEBAPEAXAEBVtype_info@@@Z 0000000180066ef4 f i MetadataConverterUtilsImpl.obj
 0001:00065ef4       ?_Get_deleter@?$_Ref_count_resource_alloc@PEAVINameSpacePrefixMap_v1@AdobeXMPCore@@V?$_Mem_fn@P8ISharedObject@AdobeXMPCommon@@EBAXX_E@std@@V?$TAllocator@VINameSpacePrefixMap_v1@AdobeXMPCore@@@AdobeXMPCore_Int@@@std@@UEBAPEAXAEBVtype_info@@@Z 0000000180066ef4 f i NameSpacePrefixMapImpl.obj
 0001:00065ef4       ?_Get_deleter@?$_Ref_count_resource_alloc@PEAVINode_v1@AdobeXMPCore@@V?$_Mem_fn@P8ISharedObject@AdobeXMPCommon@@EBAXX_E@std@@V?$TAllocator@VINode_v1@AdobeXMPCore@@@AdobeXMPCore_Int@@@std@@UEBAPEAXAEBVtype_info@@@Z 0000000180066ef4 f i ArrayNodeImpl.obj
 0001:00065ef4       ?_Get_deleter@?$_Ref_count_resource_alloc@PEAVIPathSegment_v1@AdobeXMPCore@@V?$_Mem_fn@P8ISharedObject@AdobeXMPCommon@@EBAXX_E@std@@V?$TAllocator@VIPathSegment_v1@AdobeXMPCore@@@AdobeXMPCore_Int@@@std@@UEBAPEAXAEBVtype_info@@@Z 0000000180066ef4 f i PathSegmentImpl.obj
 0001:00065ef4       ?_Get_deleter@?$_Ref_count_resource_alloc@PEAVIPath_v1@AdobeXMPCore@@V?$_Mem_fn@P8ISharedObject@AdobeXMPCommon@@EBAXX_E@std@@V?$TAllocator@VIPath_v1@AdobeXMPCore@@@AdobeXMPCore_Int@@@std@@UEBAPEAXAEBVtype_info@@@Z 0000000180066ef4 f i PathImpl.obj
 0001:00065f24       ??1_Reallocation_guard@?$vector@V?$shared_ptr@$$CBVIPathSegment_v1@AdobeXMPCore@@@std@@V?$TAllocator@V?$shared_ptr@$$CBVIPathSegment_v1@AdobeXMPCore@@@std@@@AdobeXMPCore_Int@@@std@@QEAA@XZ 0000000180066f24 f i PathImpl.obj
 0001:00065f24       ??1_Reallocation_guard@?$vector@V?$shared_ptr@$$CBVIUTF8String_v1@AdobeXMPCommon@@@std@@V?$TAllocator@V?$shared_ptr@$$CBVIUTF8String_v1@AdobeXMPCommon@@@std@@@AdobeXMPCore_Int@@@std@@QEAA@XZ 0000000180066f24 f i ErrorImpl.obj
 0001:00065f24       ??1_Reallocation_guard@?$vector@V?$shared_ptr@VINode_v1@AdobeXMPCore@@@std@@V?$TAllocator@V?$shared_ptr@VINode_v1@AdobeXMPCore@@@std@@@AdobeXMPCore_Int@@@std@@QEAA@XZ 0000000180066f24 f i ArrayNodeImpl.obj
 0001:00065fc0       ??_E?$_Ref_count_resource_alloc@PEAV?$TNodeIteratorImpl@V?$_Tree_iterator@V?$_Tree_val@U?$_Tree_simple_types@U?$pair@$$CBUQualifiedName@StructureNodeImpl@AdobeXMPCore_Int@@V?$shared_ptr@VINode_v1@AdobeXMPCore@@@std@@@std@@@std@@@std@@@std@@@AdobeXMPCore_Int@@V?$_Mem_fn@P8SharedObjectImpl@AdobeXMPCore_Int@@EBAXX_E@std@@V?$TAllocator@V?$TNodeIteratorImpl@V?$_Tree_iterator@V?$_Tree_val@U?$_Tree_simple_types@U?$pair@$$CBUQualifiedName@StructureNodeImpl@AdobeXMPCore_Int@@V?$shared_ptr@VINode_v1@AdobeXMPCore@@@std@@@std@@@std@@@std@@@std@@@AdobeXMPCore_Int@@@2@@std@@UEAAPEAXI@Z 0000000180066fc0 f i * CIL library *:* CIL module *
 0001:00065fc0       ??_E?$_Ref_count_resource_alloc@PEAV?$TNodeIteratorImpl@V?$_Vector_iterator@V?$_Vector_val@U?$_Simple_types@V?$shared_ptr@VINode_v1@AdobeXMPCore@@@std@@@std@@@std@@@std@@@AdobeXMPCore_Int@@V?$_Mem_fn@P8SharedObjectImpl@AdobeXMPCore_Int@@EBAXX_E@std@@V?$TAllocator@V?$TNodeIteratorImpl@V?$_Vector_iterator@V?$_Vector_val@U?$_Simple_types@V?$shared_ptr@VINode_v1@AdobeXMPCore@@@std@@@std@@@std@@@std@@@AdobeXMPCore_Int@@@2@@std@@UEAAPEAXI@Z 0000000180066fc0 f i * CIL library *:* CIL module *
 0001:00065fc0       ??_E?$_Ref_count_resource_alloc@PEAVArrayNodeImpl@AdobeXMPCore_Int@@V?$_Mem_fn@P8NodeImpl@AdobeXMPCore_Int@@EBAXX_E@std@@V?$TAllocator@VArrayNodeImpl@AdobeXMPCore_Int@@@2@@std@@UEAAPEAXI@Z 0000000180066fc0 f i * CIL library *:* CIL module *
 0001:00065fc0       ??_E?$_Ref_count_resource_alloc@PEAVClientDOMParserWrapperImpl@AdobeXMPCore_Int@@V?$_Mem_fn@P8SharedObjectImpl@AdobeXMPCore_Int@@EBAXX_E@std@@V?$TAllocator@VClientDOMParserWrapperImpl@AdobeXMPCore_Int@@@2@@std@@UEAAPEAXI@Z 0000000180066fc0 f i * CIL library *:* CIL module *
 0001:00065fc0       ??_E?$_Ref_count_resource_alloc@PEAVClientDOMSerializerWrapperImpl@AdobeXMPCore_Int@@V?$_Mem_fn@P8SharedObjectImpl@AdobeXMPCore_Int@@EBAXX_E@std@@V?$TAllocator@VClientDOMSerializerWrapperImpl@AdobeXMPCore_Int@@@2@@std@@UEAAPEAXI@Z 0000000180066fc0 f i * CIL library *:* CIL module *
 0001:00065fc0       ??_E?$_Ref_count_resource_alloc@PEAVCompositeNodeImpl@AdobeXMPCore_Int@@V?$_Mem_fn@P8NodeImpl@AdobeXMPCore_Int@@EBAXX_E@std@@V?$TAllocator@VCompositeNodeImpl@AdobeXMPCore_Int@@@2@@std@@UEAAPEAXI@Z 0000000180066fc0 f i * CIL library *:* CIL module *
 0001:00065fc0       ??_E?$_Ref_count_resource_alloc@PEAVCoreConfigurationManagerImpl@AdobeXMPCore_Int@@V?$_Mem_fn@P8SharedObjectImpl@AdobeXMPCore_Int@@EBAXX_E@std@@V?$TAllocator@VCoreConfigurationManagerImpl@AdobeXMPCore_Int@@@2@@std@@UEAAPEAXI@Z 0000000180066fc0 f i * CIL library *:* CIL module *
 0001:00065fc0       ??_E?$_Ref_count_resource_alloc@PEAVDOMImplementationRegistryImpl@AdobeXMPCore_Int@@V?$_Mem_fn@P8SharedObjectImpl@AdobeXMPCore_Int@@EBAXX_E@std@@V?$TAllocator@VDOMImplementationRegistryImpl@AdobeXMPCore_Int@@@2@@std@@UEAAPEAXI@Z 0000000180066fc0 f i * CIL library *:* CIL module *
 0001:00065fc0       ??_E?$_Ref_count_resource_alloc@PEAVDOMParserImpl@AdobeXMPCore_Int@@V?$_Mem_fn@P8SharedObjectImpl@AdobeXMPCore_Int@@EBAXX_E@std@@V?$TAllocator@VDOMParserImpl@AdobeXMPCore_Int@@@2@@std@@UEAAPEAXI@Z 0000000180066fc0 f i * CIL library *:* CIL module *
 0001:00065fc0       ??_E?$_Ref_count_resource_alloc@PEAVDOMSerializerImpl@AdobeXMPCore_Int@@V?$_Mem_fn@P8SharedObjectImpl@AdobeXMPCore_Int@@EBAXX_E@std@@V?$TAllocator@VDOMSerializerImpl@AdobeXMPCore_Int@@@2@@std@@UEAAPEAXI@Z 0000000180066fc0 f i * CIL library *:* CIL module *
 0001:00065fc0       ??_E?$_Ref_count_resource_alloc@PEAVErrorImpl@AdobeXMPCore_Int@@V?$_Mem_fn@P8SharedObjectImpl@AdobeXMPCore_Int@@EBAXX_E@std@@V?$TAllocator@VErrorImpl@AdobeXMPCore_Int@@@2@@std@@UEAAPEAXI@Z 0000000180066fc0 f i * CIL library *:* CIL module *
 0001:00065fc0       ??_E?$_Ref_count_resource_alloc@PEAVMetadataImpl@AdobeXMPCore_Int@@V?$_Mem_fn@P8NodeImpl@AdobeXMPCore_Int@@EBAXX_E@std@@V?$TAllocator@VMetadataImpl@AdobeXMPCore_Int@@@2@@std@@UEAAPEAXI@Z 0000000180066fc0 f i * CIL library *:* CIL module *
 0001:00065fc0       ??_E?$_Ref_count_resource_alloc@PEAVNameSpacePrefixMapImpl@AdobeXMPCore_Int@@V?$_Mem_fn@P8SharedObjectImpl@AdobeXMPCore_Int@@EBAXX_E@std@@V?$TAllocator@VNameSpacePrefixMapImpl@AdobeXMPCore_Int@@@2@@std@@UEAAPEAXI@Z 0000000180066fc0 f i * CIL library *:* CIL module *
 0001:00065fc0       ??_E?$_Ref_count_resource_alloc@PEAVPathImpl@AdobeXMPCore_Int@@V?$_Mem_fn@P8SharedObjectImpl@AdobeXMPCore_Int@@EBAXX_E@std@@V?$TAllocator@VPathImpl@AdobeXMPCore_Int@@@2@@std@@UEAAPEAXI@Z 0000000180066fc0 f i * CIL library *:* CIL module *
 0001:00065fc0       ??_E?$_Ref_count_resource_alloc@PEAVPathSegmentImpl@AdobeXMPCore_Int@@V?$_Mem_fn@P8SharedObjectImpl@AdobeXMPCore_Int@@EBAXX_E@std@@V?$TAllocator@VPathSegmentImpl@AdobeXMPCore_Int@@@2@@std@@UEAAPEAXI@Z 0000000180066fc0 f i * CIL library *:* CIL module *
 0001:00065fc0       ??_E?$_Ref_count_resource_alloc@PEAVRDFDOMParserImpl@AdobeXMPCore_Int@@V?$_Mem_fn@P8SharedObjectImpl@AdobeXMPCore_Int@@EBAXX_E@std@@V?$TAllocator@VRDFDOMParserImpl@AdobeXMPCore_Int@@@2@@std@@UEAAPEAXI@Z 0000000180066fc0 f i * CIL library *:* CIL module *
 0001:00065fc0       ??_E?$_Ref_count_resource_alloc@PEAVRDFDOMSerializerImpl@AdobeXMPCore_Int@@V?$_Mem_fn@P8SharedObjectImpl@AdobeXMPCore_Int@@EBAXX_E@std@@V?$TAllocator@VRDFDOMSerializerImpl@AdobeXMPCore_Int@@@2@@std@@UEAAPEAXI@Z 0000000180066fc0 f i * CIL library *:* CIL module *
 0001:00065fc0       ??_E?$_Ref_count_resource_alloc@PEAVSharedMutexImpl@AdobeXMPCore_Int@@V?$_Mem_fn@P8SharedObjectImpl@AdobeXMPCore_Int@@EBAXX_E@std@@V?$TAllocator@VSharedMutexImpl@AdobeXMPCore_Int@@@2@@std@@UEAAPEAXI@Z 0000000180066fc0 f i * CIL library *:* CIL module *
 0001:00065fc0       ??_E?$_Ref_count_resource_alloc@PEAVSimpleNodeImpl@AdobeXMPCore_Int@@V?$_Mem_fn@P8NodeImpl@AdobeXMPCore_Int@@EBAXX_E@std@@V?$TAllocator@VSimpleNodeImpl@AdobeXMPCore_Int@@@2@@std@@UEAAPEAXI@Z 0000000180066fc0 f i * CIL library *:* CIL module *
 0001:00065fc0       ??_E?$_Ref_count_resource_alloc@PEAVStructureNodeImpl@AdobeXMPCore_Int@@V?$_Mem_fn@P8NodeImpl@AdobeXMPCore_Int@@EBAXX_E@std@@V?$TAllocator@VStructureNodeImpl@AdobeXMPCore_Int@@@2@@std@@UEAAPEAXI@Z 0000000180066fc0 f i * CIL library *:* CIL module *
 0001:00065fc0       ??_E?$_Ref_count_resource_alloc@PEAVUTF8StringImpl@AdobeXMPCore_Int@@V?$_Mem_fn@P8SharedObjectImpl@AdobeXMPCore_Int@@EBAXX_E@std@@V?$TAllocator@VUTF8StringImpl@AdobeXMPCore_Int@@@2@@std@@UEAAPEAXI@Z 0000000180066fc0 f i * CIL library *:* CIL module *
 0001:00065fc0       ??_G?$_Ref_count_resource_alloc@PEAV?$TNodeIteratorImpl@V?$_Tree_iterator@V?$_Tree_val@U?$_Tree_simple_types@U?$pair@$$CBUQualifiedName@StructureNodeImpl@AdobeXMPCore_Int@@V?$shared_ptr@VINode_v1@AdobeXMPCore@@@std@@@std@@@std@@@std@@@std@@@AdobeXMPCore_Int@@V?$_Mem_fn@P8SharedObjectImpl@AdobeXMPCore_Int@@EBAXX_E@std@@V?$TAllocator@V?$TNodeIteratorImpl@V?$_Tree_iterator@V?$_Tree_val@U?$_Tree_simple_types@U?$pair@$$CBUQualifiedName@StructureNodeImpl@AdobeXMPCore_Int@@V?$shared_ptr@VINode_v1@AdobeXMPCore@@@std@@@std@@@std@@@std@@@std@@@AdobeXMPCore_Int@@@2@@std@@UEAAPEAXI@Z 0000000180066fc0 f i StructureNodeImpl.obj
 0001:00065fc0       ??_G?$_Ref_count_resource_alloc@PEAV?$TNodeIteratorImpl@V?$_Vector_iterator@V?$_Vector_val@U?$_Simple_types@V?$shared_ptr@VINode_v1@AdobeXMPCore@@@std@@@std@@@std@@@std@@@AdobeXMPCore_Int@@V?$_Mem_fn@P8SharedObjectImpl@AdobeXMPCore_Int@@EBAXX_E@std@@V?$TAllocator@V?$TNodeIteratorImpl@V?$_Vector_iterator@V?$_Vector_val@U?$_Simple_types@V?$shared_ptr@VINode_v1@AdobeXMPCore@@@std@@@std@@@std@@@std@@@AdobeXMPCore_Int@@@2@@std@@UEAAPEAXI@Z 0000000180066fc0 f i ArrayNodeImpl.obj
 0001:00065fc0       ??_G?$_Ref_count_resource_alloc@PEAVArrayNodeImpl@AdobeXMPCore_Int@@V?$_Mem_fn@P8NodeImpl@AdobeXMPCore_Int@@EBAXX_E@std@@V?$TAllocator@VArrayNodeImpl@AdobeXMPCore_Int@@@2@@std@@UEAAPEAXI@Z 0000000180066fc0 f i ArrayNodeImpl.obj
 0001:00065fc0       ??_G?$_Ref_count_resource_alloc@PEAVClientDOMParserWrapperImpl@AdobeXMPCore_Int@@V?$_Mem_fn@P8SharedObjectImpl@AdobeXMPCore_Int@@EBAXX_E@std@@V?$TAllocator@VClientDOMParserWrapperImpl@AdobeXMPCore_Int@@@2@@std@@UEAAPEAXI@Z 0000000180066fc0 f i DOMParserImpl.obj
 0001:00065fc0       ??_G?$_Ref_count_resource_alloc@PEAVClientDOMSerializerWrapperImpl@AdobeXMPCore_Int@@V?$_Mem_fn@P8SharedObjectImpl@AdobeXMPCore_Int@@EBAXX_E@std@@V?$TAllocator@VClientDOMSerializerWrapperImpl@AdobeXMPCore_Int@@@2@@std@@UEAAPEAXI@Z 0000000180066fc0 f i DOMSerializerImpl.obj
 0001:00065fc0       ??_G?$_Ref_count_resource_alloc@PEAVCompositeNodeImpl@AdobeXMPCore_Int@@V?$_Mem_fn@P8NodeImpl@AdobeXMPCore_Int@@EBAXX_E@std@@V?$TAllocator@VCompositeNodeImpl@AdobeXMPCore_Int@@@2@@std@@UEAAPEAXI@Z 0000000180066fc0 f i CompositeNodeImpl.obj
 0001:00065fc0       ??_G?$_Ref_count_resource_alloc@PEAVCoreConfigurationManagerImpl@AdobeXMPCore_Int@@V?$_Mem_fn@P8SharedObjectImpl@AdobeXMPCore_Int@@EBAXX_E@std@@V?$TAllocator@VCoreConfigurationManagerImpl@AdobeXMPCore_Int@@@2@@std@@UEAAPEAXI@Z 0000000180066fc0 f i CoreConfigurationManagerImpl.obj
 0001:00065fc0       ??_G?$_Ref_count_resource_alloc@PEAVDOMImplementationRegistryImpl@AdobeXMPCore_Int@@V?$_Mem_fn@P8SharedObjectImpl@AdobeXMPCore_Int@@EBAXX_E@std@@V?$TAllocator@VDOMImplementationRegistryImpl@AdobeXMPCore_Int@@@2@@std@@UEAAPEAXI@Z 0000000180066fc0 f i DOMImplementationRegistryImpl.obj
 0001:00065fc0       ??_G?$_Ref_count_resource_alloc@PEAVDOMParserImpl@AdobeXMPCore_Int@@V?$_Mem_fn@P8SharedObjectImpl@AdobeXMPCore_Int@@EBAXX_E@std@@V?$TAllocator@VDOMParserImpl@AdobeXMPCore_Int@@@2@@std@@UEAAPEAXI@Z 0000000180066fc0 f i DOMParserImpl.obj
 0001:00065fc0       ??_G?$_Ref_count_resource_alloc@PEAVDOMSerializerImpl@AdobeXMPCore_Int@@V?$_Mem_fn@P8SharedObjectImpl@AdobeXMPCore_Int@@EBAXX_E@std@@V?$TAllocator@VDOMSerializerImpl@AdobeXMPCore_Int@@@2@@std@@UEAAPEAXI@Z 0000000180066fc0 f i DOMSerializerImpl.obj
 0001:00065fc0       ??_G?$_Ref_count_resource_alloc@PEAVErrorImpl@AdobeXMPCore_Int@@V?$_Mem_fn@P8SharedObjectImpl@AdobeXMPCore_Int@@EBAXX_E@std@@V?$TAllocator@VErrorImpl@AdobeXMPCore_Int@@@2@@std@@UEAAPEAXI@Z 0000000180066fc0 f i ErrorImpl.obj
 0001:00065fc0       ??_G?$_Ref_count_resource_alloc@PEAVMetadataImpl@AdobeXMPCore_Int@@V?$_Mem_fn@P8NodeImpl@AdobeXMPCore_Int@@EBAXX_E@std@@V?$TAllocator@VMetadataImpl@AdobeXMPCore_Int@@@2@@std@@UEAAPEAXI@Z 0000000180066fc0 f i MetadataImpl.obj
 0001:00065fc0       ??_G?$_Ref_count_resource_alloc@PEAVNameSpacePrefixMapImpl@AdobeXMPCore_Int@@V?$_Mem_fn@P8SharedObjectImpl@AdobeXMPCore_Int@@EBAXX_E@std@@V?$TAllocator@VNameSpacePrefixMapImpl@AdobeXMPCore_Int@@@2@@std@@UEAAPEAXI@Z 0000000180066fc0 f i NameSpacePrefixMapImpl.obj
 0001:00065fc0       ??_G?$_Ref_count_resource_alloc@PEAVPathImpl@AdobeXMPCore_Int@@V?$_Mem_fn@P8SharedObjectImpl@AdobeXMPCore_Int@@EBAXX_E@std@@V?$TAllocator@VPathImpl@AdobeXMPCore_Int@@@2@@std@@UEAAPEAXI@Z 0000000180066fc0 f i PathImpl.obj
 0001:00065fc0       ??_G?$_Ref_count_resource_alloc@PEAVPathSegmentImpl@AdobeXMPCore_Int@@V?$_Mem_fn@P8SharedObjectImpl@AdobeXMPCore_Int@@EBAXX_E@std@@V?$TAllocator@VPathSegmentImpl@AdobeXMPCore_Int@@@2@@std@@UEAAPEAXI@Z 0000000180066fc0 f i PathSegmentImpl.obj
 0001:00065fc0       ??_G?$_Ref_count_resource_alloc@PEAVRDFDOMParserImpl@AdobeXMPCore_Int@@V?$_Mem_fn@P8SharedObjectImpl@AdobeXMPCore_Int@@EBAXX_E@std@@V?$TAllocator@VRDFDOMParserImpl@AdobeXMPCore_Int@@@2@@std@@UEAAPEAXI@Z 0000000180066fc0 f i DOMImplementationRegistryImpl.obj
 0001:00065fc0       ??_G?$_Ref_count_resource_alloc@PEAVRDFDOMSerializerImpl@AdobeXMPCore_Int@@V?$_Mem_fn@P8SharedObjectImpl@AdobeXMPCore_Int@@EBAXX_E@std@@V?$TAllocator@VRDFDOMSerializerImpl@AdobeXMPCore_Int@@@2@@std@@UEAAPEAXI@Z 0000000180066fc0 f i DOMImplementationRegistryImpl.obj
 0001:00065fc0       ??_G?$_Ref_count_resource_alloc@PEAVSharedMutexImpl@AdobeXMPCore_Int@@V?$_Mem_fn@P8SharedObjectImpl@AdobeXMPCore_Int@@EBAXX_E@std@@V?$TAllocator@VSharedMutexImpl@AdobeXMPCore_Int@@@2@@std@@UEAAPEAXI@Z 0000000180066fc0 f i SharedMutexImpl.obj
 0001:00065fc0       ??_G?$_Ref_count_resource_alloc@PEAVSimpleNodeImpl@AdobeXMPCore_Int@@V?$_Mem_fn@P8NodeImpl@AdobeXMPCore_Int@@EBAXX_E@std@@V?$TAllocator@VSimpleNodeImpl@AdobeXMPCore_Int@@@2@@std@@UEAAPEAXI@Z 0000000180066fc0 f i SimpleNodeImpl.obj
 0001:00065fc0       ??_G?$_Ref_count_resource_alloc@PEAVStructureNodeImpl@AdobeXMPCore_Int@@V?$_Mem_fn@P8NodeImpl@AdobeXMPCore_Int@@EBAXX_E@std@@V?$TAllocator@VStructureNodeImpl@AdobeXMPCore_Int@@@2@@std@@UEAAPEAXI@Z 0000000180066fc0 f i StructureNodeImpl.obj
 0001:00065fc0       ??_G?$_Ref_count_resource_alloc@PEAVUTF8StringImpl@AdobeXMPCore_Int@@V?$_Mem_fn@P8SharedObjectImpl@AdobeXMPCore_Int@@EBAXX_E@std@@V?$TAllocator@VUTF8StringImpl@AdobeXMPCore_Int@@@2@@std@@UEAAPEAXI@Z 0000000180066fc0 f i UTF8StringImpl.obj
 0001:00065fe4       ??_E?$_Ref_count_resource_alloc@PEAVIMetadata_v1@AdobeXMPCore@@V?$_Mem_fn@P8ISharedObject@AdobeXMPCommon@@EBAXX_E@std@@V?$TAllocator@VIMetadata_v1@AdobeXMPCore@@@AdobeXMPCore_Int@@@std@@UEAAPEAXI@Z 0000000180066fe4 f i * CIL library *:* CIL module *
 0001:00065fe4       ??_E?$_Ref_count_resource_alloc@PEAVINameSpacePrefixMap_I@AdobeXMPCore_Int@@V?$_Mem_fn@P8ISharedObject@AdobeXMPCommon@@EBAXX_E@std@@V?$TAllocator@VINameSpacePrefixMap_I@AdobeXMPCore_Int@@@2@@std@@UEAAPEAXI@Z 0000000180066fe4 f i * CIL library *:* CIL module *
 0001:00065fe4       ??_E?$_Ref_count_resource_alloc@PEAVINameSpacePrefixMap_v1@AdobeXMPCore@@V?$_Mem_fn@P8ISharedObject@AdobeXMPCommon@@EBAXX_E@std@@V?$TAllocator@VINameSpacePrefixMap_v1@AdobeXMPCore@@@AdobeXMPCore_Int@@@std@@UEAAPEAXI@Z 0000000180066fe4 f i * CIL library *:* CIL module *
 0001:00065fe4       ??_E?$_Ref_count_resource_alloc@PEAVINode_v1@AdobeXMPCore@@V?$_Mem_fn@P8ISharedObject@AdobeXMPCommon@@EBAXX_E@std@@V?$TAllocator@VINode_v1@AdobeXMPCore@@@AdobeXMPCore_Int@@@std@@UEAAPEAXI@Z 0000000180066fe4 f i * CIL library *:* CIL module *
 0001:00065fe4       ??_E?$_Ref_count_resource_alloc@PEAVIPathSegment_v1@AdobeXMPCore@@V?$_Mem_fn@P8ISharedObject@AdobeXMPCommon@@EBAXX_E@std@@V?$TAllocator@VIPathSegment_v1@AdobeXMPCore@@@AdobeXMPCore_Int@@@std@@UEAAPEAXI@Z 0000000180066fe4 f i * CIL library *:* CIL module *
 0001:00065fe4       ??_E?$_Ref_count_resource_alloc@PEAVIPath_v1@AdobeXMPCore@@V?$_Mem_fn@P8ISharedObject@AdobeXMPCommon@@EBAXX_E@std@@V?$TAllocator@VIPath_v1@AdobeXMPCore@@@AdobeXMPCore_Int@@@std@@UEAAPEAXI@Z 0000000180066fe4 f i * CIL library *:* CIL module *
 0001:00065fe4       ??_G?$_Ref_count_resource_alloc@PEAVIMetadata_v1@AdobeXMPCore@@V?$_Mem_fn@P8ISharedObject@AdobeXMPCommon@@EBAXX_E@std@@V?$TAllocator@VIMetadata_v1@AdobeXMPCore@@@AdobeXMPCore_Int@@@std@@UEAAPEAXI@Z 0000000180066fe4 f i DOMParserImpl.obj
 0001:00065fe4       ??_G?$_Ref_count_resource_alloc@PEAVINameSpacePrefixMap_I@AdobeXMPCore_Int@@V?$_Mem_fn@P8ISharedObject@AdobeXMPCommon@@EBAXX_E@std@@V?$TAllocator@VINameSpacePrefixMap_I@AdobeXMPCore_Int@@@2@@std@@UEAAPEAXI@Z 0000000180066fe4 f i MetadataConverterUtilsImpl.obj
 0001:00065fe4       ??_G?$_Ref_count_resource_alloc@PEAVINameSpacePrefixMap_v1@AdobeXMPCore@@V?$_Mem_fn@P8ISharedObject@AdobeXMPCommon@@EBAXX_E@std@@V?$TAllocator@VINameSpacePrefixMap_v1@AdobeXMPCore@@@AdobeXMPCore_Int@@@std@@UEAAPEAXI@Z 0000000180066fe4 f i NameSpacePrefixMapImpl.obj
 0001:00065fe4       ??_G?$_Ref_count_resource_alloc@PEAVINode_v1@AdobeXMPCore@@V?$_Mem_fn@P8ISharedObject@AdobeXMPCommon@@EBAXX_E@std@@V?$TAllocator@VINode_v1@AdobeXMPCore@@@AdobeXMPCore_Int@@@std@@UEAAPEAXI@Z 0000000180066fe4 f i ArrayNodeImpl.obj
 0001:00065fe4       ??_G?$_Ref_count_resource_alloc@PEAVIPathSegment_v1@AdobeXMPCore@@V?$_Mem_fn@P8ISharedObject@AdobeXMPCommon@@EBAXX_E@std@@V?$TAllocator@VIPathSegment_v1@AdobeXMPCore@@@AdobeXMPCore_Int@@@std@@UEAAPEAXI@Z 0000000180066fe4 f i PathSegmentImpl.obj
 0001:00065fe4       ??_G?$_Ref_count_resource_alloc@PEAVIPath_v1@AdobeXMPCore@@V?$_Mem_fn@P8ISharedObject@AdobeXMPCommon@@EBAXX_E@std@@V?$TAllocator@VIPath_v1@AdobeXMPCore@@@AdobeXMPCore_Int@@@std@@UEAAPEAXI@Z 0000000180066fe4 f i PathImpl.obj
 0001:00066008       ?insertNodeAtPath@ICompositeNode_I@AdobeXMPCore_Int@@$R2HI@CI@PPPPPPPM@EI@EAAXPEAVINode_v1@AdobeXMPCore@@PEBVIPath_v1@4@AEAPEBVIError_v1@AdobeXMPCommon@@@Z 0000000180067008 f i ArrayNodeImpl.obj
 0001:00066024       ?getNodeTypeAtPath@ICompositeNode_I@AdobeXMPCore_Int@@$R2HI@CI@PPPPPPPM@EI@EBAKPEBVIPath_v1@AdobeXMPCore@@AEAPEBVIError_v1@AdobeXMPCommon@@@Z 0000000180067024 f i ArrayNodeImpl.obj
 0001:00066040       ?getPath@INode_I@AdobeXMPCore_Int@@$R2GA@CE@PPPPPPPM@DI@EBAPEAVIPath_v1@AdobeXMPCore@@AEAPEBVIError_v1@AdobeXMPCommon@@@Z 0000000180067040 f i ArrayNodeImpl.obj
 0001:0006605c       ?GetParentNodeType@NodeImpl@AdobeXMPCore_Int@@$R4GA@DM@PPPPPPPM@KI@EBA?AW4eNodeType@INode_v1@AdobeXMPCore@@XZ 000000018006705c f i ArrayNodeImpl.obj
 0001:00066078       ?getNameSpace@INode_I@AdobeXMPCore_Int@@$R2EA@CA@PPPPPPPM@DI@EBAPEBVIUTF8String_v1@AdobeXMPCommon@@AEAPEBVIError_v1@4@@Z 0000000180067078 f i ArrayNodeImpl.obj
 0001:00066094       ?Clear@NodeImpl@AdobeXMPCore_Int@@$R4EA@DE@PPPPPPPM@KI@EAAX_N0@Z 0000000180067094 f i ArrayNodeImpl.obj
 0001:000660b0       ?IsQualifierNode@NodeImpl@AdobeXMPCore_Int@@$R4EA@DE@PPPPPPPM@KI@EBA_NXZ 00000001800670b0 f i ArrayNodeImpl.obj
 0001:000660cc       ?clone@INode_I@AdobeXMPCore_Int@@$R2KA@BM@PPPPPPPM@DI@EBAPEAVINode_v1@AdobeXMPCore@@KKAEAPEBVIError_v1@AdobeXMPCommon@@@Z 00000001800670cc f i ArrayNodeImpl.obj
 0001:000660e8       ?GetQualifierNodeType@NodeImpl@AdobeXMPCore_Int@@$4PPPPPPPM@A@EBA?AW4eNodeType@INode_v1@AdobeXMPCore@@PEBD_K01@Z 00000001800670e8 f i ArrayNodeImpl.obj
 0001:000660f4       ?IsThreadSafe@ThreadSafeImpl@AdobeXMPCore_Int@@$R2JA@CI@PPPPPPPM@CA@EBA_NXZ 00000001800670f4 f i ArrayNodeImpl.obj
 0001:00066110       ?GetICompositeNode_I@ICompositeNode_I@AdobeXMPCore_Int@@$R4FA@CI@PPPPPPPM@EI@EAAPEAV12@XZ 0000000180067110 f i ArrayNodeImpl.obj
 0001:0006612c       ?insertQualifier@INode_I@AdobeXMPCore_Int@@$2PPPPPPPM@A@EAAXPEAVINode_v1@AdobeXMPCore@@AEAPEBVIError_v1@AdobeXMPCommon@@@Z 000000018006712c f i ArrayNodeImpl.obj
 0001:00066138       ??_EICompositeNode_v1@AdobeXMPCore@@OBA@EAAPEAXI@Z 0000000180067138 f i ArrayNodeImpl.obj
 0001:00066144       ?GetRawParentPointer@NodeImpl@AdobeXMPCore_Int@@$R4NI@DM@PPPPPPPM@PA@EAAPEAVINode_v1@AdobeXMPCore@@XZ 0000000180067144 f i ArrayNodeImpl.obj
 0001:00066160       ?insertNodeAtIndex@IArrayNode_I@AdobeXMPCore_Int@@$R2JA@CM@PPPPPPPM@GI@EAAXPEAVINode_v1@AdobeXMPCore@@_KAEAPEBVIError_v1@AdobeXMPCommon@@@Z 0000000180067160 f i ArrayNodeImpl.obj
 0001:0006617c       ?hasQualifiers@INode_I@AdobeXMPCore_Int@@$R2GA@CE@PPPPPPPM@DI@EBAKAEAPEBVIError_v1@AdobeXMPCommon@@@Z 000000018006717c f i ArrayNodeImpl.obj
 0001:00066198       ?isQualifierNode@INode_I@AdobeXMPCore_Int@@$R2GA@CE@PPPPPPPM@DI@EBAKAEAPEBVIError_v1@AdobeXMPCommon@@@Z 0000000180067198 f i ArrayNodeImpl.obj
 0001:000661b4       ?getParentNodeType@INode_I@AdobeXMPCore_Int@@$R2GA@CE@PPPPPPPM@DI@EBAKAEAPEBVIError_v1@AdobeXMPCommon@@@Z 00000001800671b4 f i ArrayNodeImpl.obj
 0001:000661d0       ?ConvertToMetadata@NodeImpl@AdobeXMPCore_Int@@$R4GA@DM@PPPPPPPM@KI@EAA?AV?$shared_ptr@VIMetadata_v1@AdobeXMPCore@@@std@@XZ 00000001800671d0 f i ArrayNodeImpl.obj
 0001:000661d0       ?ConvertToSimpleNode@NodeImpl@AdobeXMPCore_Int@@$R4GA@DM@PPPPPPPM@KI@EAA?AV?$shared_ptr@VISimpleNode_v1@AdobeXMPCore@@@std@@XZ 00000001800671d0 f i ArrayNodeImpl.obj
 0001:000661d0       ?ConvertToStructureNode@NodeImpl@AdobeXMPCore_Int@@$R4GA@DM@PPPPPPPM@KI@EAA?AV?$shared_ptr@VIStructureNode_v1@AdobeXMPCore@@@std@@XZ 00000001800671d0 f i ArrayNodeImpl.obj
 0001:000661ec       ?clone@INode_I@AdobeXMPCore_Int@@$R2EA@CA@PPPPPPPM@DI@EBAPEAVINode_v1@AdobeXMPCore@@KKAEAPEBVIError_v1@AdobeXMPCommon@@@Z 00000001800671ec f i ArrayNodeImpl.obj
 0001:00066208       ?Clone@NodeImpl@AdobeXMPCore_Int@@$R4EA@DE@PPPPPPPM@KI@EBA?AV?$shared_ptr@VINode_v1@AdobeXMPCore@@@std@@_N0@Z 0000000180067208 f i ArrayNodeImpl.obj
 0001:00066224       ?IsEmpty@NodeImpl@AdobeXMPCore_Int@@$R4EA@DE@PPPPPPPM@KI@EBA_NXZ 0000000180067224 f i ArrayNodeImpl.obj
 0001:00066240       ?RemoveQualifier@NodeImpl@AdobeXMPCore_Int@@$R4EA@DE@PPPPPPPM@KI@EAA?AV?$shared_ptr@VINode_v1@AdobeXMPCore@@@std@@PEBD_K01@Z 0000000180067240 f i ArrayNodeImpl.obj
 0001:0006625c       ?GetPath@NodeImpl@AdobeXMPCore_Int@@$R4EA@DE@PPPPPPPM@KI@EBA?AV?$shared_ptr@VIPath_v1@AdobeXMPCore@@@std@@XZ 000000018006725c f i ArrayNodeImpl.obj
 0001:00066278       ?convertToMetadata@INode_I@AdobeXMPCore_Int@@$R2KA@BM@PPPPPPPM@DI@EAAPEAVIMetadata_v1@AdobeXMPCore@@AEAPEBVIError_v1@AdobeXMPCommon@@@Z 0000000180067278 f i ArrayNodeImpl.obj
 0001:00066294       ?IsArrayItem@NodeImpl@AdobeXMPCore_Int@@$4PPPPPPPM@A@EBA_NXZ 0000000180067294 f i ArrayNodeImpl.obj
 0001:000662a0       ?GetINodeIterator_I@INodeIterator_I@AdobeXMPCore_Int@@$4PPPPPPPM@A@EAAPEAV12@XZ 00000001800672a0 f i ArrayNodeImpl.obj
 0001:000662a0       ?GetIPath_I@IPath_I@AdobeXMPCore_Int@@$4PPPPPPPM@A@EAAPEAV12@XZ 00000001800672a0 f i PathImpl.obj
 0001:000662ac       ?getNodeAtIndex@IArrayNode_I@AdobeXMPCore_Int@@$2PPPPPPPM@A@EAAPEAVINode_v1@AdobeXMPCore@@_KAEAPEBVIError_v1@AdobeXMPCommon@@@Z 00000001800672ac f i ArrayNodeImpl.obj
 0001:000662b8       ?convertToArrayNode@INode_I@AdobeXMPCore_Int@@$R2DI@CE@PPPPPPPM@DI@EAAPEAVIArrayNode_v1@AdobeXMPCore@@AEAPEBVIError_v1@AdobeXMPCommon@@@Z 00000001800672b8 f i ArrayNodeImpl.obj
 0001:000662d0       ?removeQualifier@INode_I@AdobeXMPCore_Int@@$R2DI@CE@PPPPPPPM@DI@EAAPEAVINode_v1@AdobeXMPCore@@PEBD_K01AEAPEBVIError_v1@AdobeXMPCommon@@@Z 00000001800672d0 f i ArrayNodeImpl.obj
 0001:000662e8       ?GetActualICompositeNode@ICompositeNode_I@AdobeXMPCore_Int@@$4PPPPPPPM@A@EAAPEAVICompositeNode_v1@AdobeXMPCore@@XZ 00000001800672e8 f i ArrayNodeImpl.obj
 0001:000662e8       ?GetActualISimpleNode@ISimpleNode_I@AdobeXMPCore_Int@@$4PPPPPPPM@A@EAAPEAVISimpleNode_v1@AdobeXMPCore@@XZ 00000001800672e8 f i SimpleNodeImpl.obj
 0001:000662f4       ?clear@INode_I@AdobeXMPCore_Int@@$R2DA@CA@PPPPPPPM@DI@EAAXKKAEAPEBVIError_v1@AdobeXMPCommon@@@Z 00000001800672f4 f i ArrayNodeImpl.obj
 0001:00066310       ?getNameSpace@INode_I@AdobeXMPCore_Int@@$2PPPPPPPM@A@EBAPEBVIUTF8String_v1@AdobeXMPCommon@@AEAPEBVIError_v1@4@@Z 0000000180067310 f i ArrayNodeImpl.obj
 0001:0006631c       ??_E?$TNodeIteratorImpl@V?$_Vector_iterator@V?$_Vector_val@U?$_Simple_types@V?$shared_ptr@VINode_v1@AdobeXMPCore@@@std@@@std@@@std@@@std@@@AdobeXMPCore_Int@@$2PPPPPPPM@BA@EAAPEAXI@Z 000000018006731c f i ArrayNodeImpl.obj
 0001:0006632c       ?Release@SharedObjectImpl@AdobeXMPCore_Int@@$R4CA@BI@PPPPPPPM@CA@EBAXXZ 000000018006732c f i ArrayNodeImpl.obj
 0001:00066344       ?GetActualIArrayNode@IArrayNode_I@AdobeXMPCore_Int@@$R4JA@CM@PPPPPPPM@GI@EAAPEAVIArrayNode_v1@AdobeXMPCore@@XZ 0000000180067344 f i ArrayNodeImpl.obj
 0001:00066360       ?GetInterfacePointer@IArrayNode_I@AdobeXMPCore_Int@@$R4EA@CM@PPPPPPPM@CA@EAAPEAX_KK@Z 0000000180067360 f i ArrayNodeImpl.obj
 0001:0006637c       ?Acquire@NodeImpl@AdobeXMPCore_Int@@$R4DA@DM@PPPPPPPM@HI@EBAXXZ 000000018006737c f i ArrayNodeImpl.obj
 0001:00066398       ?convertToMetadata@INode_I@AdobeXMPCore_Int@@$R2EA@CA@PPPPPPPM@DI@EAAPEAVIMetadata_v1@AdobeXMPCore@@AEAPEBVIError_v1@AdobeXMPCommon@@@Z 0000000180067398 f i ArrayNodeImpl.obj
 0001:000663b4       ?ConvertToArrayNode@NodeImpl@AdobeXMPCore_Int@@$R4EA@DE@PPPPPPPM@KI@EAA?AV?$shared_ptr@VIArrayNode_v1@AdobeXMPCore@@@std@@XZ 00000001800673b4 f i ArrayNodeImpl.obj
 0001:000663b4       ?ConvertToMetadata@NodeImpl@AdobeXMPCore_Int@@$R4EA@DE@PPPPPPPM@KI@EAA?AV?$shared_ptr@VIMetadata_v1@AdobeXMPCore@@@std@@XZ 00000001800673b4 f i ArrayNodeImpl.obj
 0001:000663b4       ?ConvertToSimpleNode@NodeImpl@AdobeXMPCore_Int@@$R4EA@DE@PPPPPPPM@KI@EAA?AV?$shared_ptr@VISimpleNode_v1@AdobeXMPCore@@@std@@XZ 00000001800673b4 f i ArrayNodeImpl.obj
 0001:000663b4       ?ConvertToStructureNode@NodeImpl@AdobeXMPCore_Int@@$R4EA@DE@PPPPPPPM@KI@EAA?AV?$shared_ptr@VIStructureNode_v1@AdobeXMPCore@@@std@@XZ 00000001800673b4 f i ArrayNodeImpl.obj
 0001:000663d0       ?convertToSimpleNode@INode_I@AdobeXMPCore_Int@@$R2KA@BM@PPPPPPPM@DI@EAAPEAVISimpleNode_v1@AdobeXMPCore@@AEAPEBVIError_v1@AdobeXMPCommon@@@Z 00000001800673d0 f i ArrayNodeImpl.obj
 0001:000663ec       ?getChildNodeType@IArrayNode_I@AdobeXMPCore_Int@@$2PPPPPPPM@A@EBAKAEAPEBVIError_v1@AdobeXMPCommon@@@Z 00000001800673ec f i ArrayNodeImpl.obj
 0001:000663f8       ?getQualifier@INode_I@AdobeXMPCore_Int@@$R2DI@CE@PPPPPPPM@DI@EAAPEAVINode_v1@AdobeXMPCore@@PEBD_K01AEAPEBVIError_v1@AdobeXMPCommon@@@Z 00000001800673f8 f i ArrayNodeImpl.obj
 0001:00066410       ?getName@INode_I@AdobeXMPCore_Int@@$R2DI@CE@PPPPPPPM@DI@EBAPEBVIUTF8String_v1@AdobeXMPCommon@@AEAPEBVIError_v1@4@@Z 0000000180067410 f i ArrayNodeImpl.obj
 0001:00066428       ?removeNodeAtPath@ICompositeNode_I@AdobeXMPCore_Int@@$2PPPPPPPM@A@EAAPEAVINode_v1@AdobeXMPCore@@PEBVIPath_v1@4@AEAPEBVIError_v1@AdobeXMPCommon@@@Z 0000000180067428 f i ArrayNodeImpl.obj
 0001:00066434       ?clone@INode_I@AdobeXMPCore_Int@@$2PPPPPPPM@A@EBAPEAVINode_v1@AdobeXMPCore@@KKAEAPEBVIError_v1@AdobeXMPCommon@@@Z 0000000180067434 f i ArrayNodeImpl.obj
 0001:00066440       ?GetISharedObject_I@ISharedObject_I@AdobeXMPCommon_Int@@WPPPPPPMA@EAAPEAV12@XZ 0000000180067440 f i ArrayNodeImpl.obj
 0001:00066440       ?GetIThreadSafe_I@IThreadSafe_I@AdobeXMPCommon_Int@@WPPPPPPMA@EAAPEAV12@XZ 0000000180067440 f i ArrayNodeImpl.obj
 0001:0006644c       ?GetINodeIterator_I@INodeIterator_I@AdobeXMPCore_Int@@$R4EA@BE@PPPPPPPM@CI@EAAPEAV12@XZ 000000018006744c f i ArrayNodeImpl.obj
 0001:00066468       ?getNodeType@INode_I@AdobeXMPCore_Int@@$R2GA@CE@PPPPPPPM@DI@EBAKAEAPEBVIError_v1@AdobeXMPCommon@@@Z 0000000180067468 f i ArrayNodeImpl.obj
 0001:00066484       ?replaceQualifier@INode_I@AdobeXMPCore_Int@@$R2GA@CE@PPPPPPPM@DI@EAAPEAVINode_v1@AdobeXMPCore@@PEAV34@AEAPEBVIError_v1@AdobeXMPCommon@@@Z 0000000180067484 f i ArrayNodeImpl.obj
 0001:000664a0       ?GetQualifier@NodeImpl@AdobeXMPCore_Int@@$R4GA@DM@PPPPPPPM@KI@EAA?AV?$shared_ptr@VINode_v1@AdobeXMPCore@@@std@@PEBD_K01@Z 00000001800674a0 f i ArrayNodeImpl.obj
 0001:000664bc       ?convertToSimpleNode@INode_I@AdobeXMPCore_Int@@$R2EA@CA@PPPPPPPM@DI@EAAPEAVISimpleNode_v1@AdobeXMPCore@@AEAPEBVIError_v1@AdobeXMPCommon@@@Z 00000001800674bc f i ArrayNodeImpl.obj
 0001:000664d8       ?GetIThreadSafe_I@IThreadSafe_I@AdobeXMPCommon_Int@@$R4JA@BI@PPPPPPPM@BA@EAAPEAV12@XZ 00000001800674d8 f i ArrayNodeImpl.obj
 0001:000664f4       ?isArrayItem@INode_I@AdobeXMPCore_Int@@$R2DI@CE@PPPPPPPM@DI@EBAKAEAPEBVIError_v1@AdobeXMPCommon@@@Z 00000001800674f4 f i ArrayNodeImpl.obj
 0001:0006650c       ?convertToMetadata@INode_I@AdobeXMPCore_Int@@$2PPPPPPPM@A@EAAPEAVIMetadata_v1@AdobeXMPCore@@AEAPEBVIError_v1@AdobeXMPCommon@@@Z 000000018006750c f i ArrayNodeImpl.obj
 0001:00066518       ??_EINode_v1@AdobeXMPCore@@OBA@EAAPEAXI@Z 0000000180067518 f i ArrayNodeImpl.obj
 0001:00066524       ?GetNodeAtIndex@ArrayNodeImpl@AdobeXMPCore_Int@@$4PPPPPPPM@A@EAA?AV?$shared_ptr@VINode_v1@AdobeXMPCore@@@std@@_K@Z 0000000180067524 f i ArrayNodeImpl.obj
 0001:00066530       ?GetArrayForm@ArrayNodeImpl@AdobeXMPCore_Int@@$4PPPPPPPM@A@EBA?AW4eArrayForm@IArrayNode_v1@AdobeXMPCore@@XZ 0000000180067530 f i ArrayNodeImpl.obj
 0001:0006653c       ?iterator@ICompositeNode_I@AdobeXMPCore_Int@@$R2HI@CI@PPPPPPPM@EI@EAAPEAVINodeIterator_v1@AdobeXMPCore@@AEAPEBVIError_v1@AdobeXMPCommon@@@Z 000000018006753c f i ArrayNodeImpl.obj
 0001:00066558       ?insertQualifier@INode_I@AdobeXMPCore_Int@@$R2GA@CE@PPPPPPPM@DI@EAAXPEAVINode_v1@AdobeXMPCore@@AEAPEBVIError_v1@AdobeXMPCommon@@@Z 0000000180067558 f i ArrayNodeImpl.obj
 0001:00066574       ?GetName@NodeImpl@AdobeXMPCore_Int@@$R4GA@DM@PPPPPPPM@KI@EBA?AV?$shared_ptr@$$CBVIUTF8String_v1@AdobeXMPCommon@@@std@@XZ 0000000180067574 f i ArrayNodeImpl.obj
 0001:00066590       ?GetParent@NodeImpl@AdobeXMPCore_Int@@$R4GA@DM@PPPPPPPM@KI@EAA?AV?$shared_ptr@VINode_v1@AdobeXMPCore@@@std@@XZ 0000000180067590 f i ArrayNodeImpl.obj
 0001:000665ac       ?GetICompositeNode_I@ICompositeNode_I@AdobeXMPCore_Int@@$R4FI@CE@PPPPPPPM@EI@EAAPEAV12@XZ 00000001800675ac f i ArrayNodeImpl.obj
 0001:000665c8       ?GetNameSpace@NodeImpl@AdobeXMPCore_Int@@$R4EA@DE@PPPPPPPM@KI@EBA?AV?$shared_ptr@$$CBVIUTF8String_v1@AdobeXMPCommon@@@std@@XZ 00000001800675c8 f i ArrayNodeImpl.obj
 0001:000665e4       ?SetName@NodeImpl@AdobeXMPCore_Int@@$R4EA@DE@PPPPPPPM@KI@EAAXPEBD_K@Z 00000001800675e4 f i ArrayNodeImpl.obj
 0001:00066600       ?GetIThreadSafe_I@IThreadSafe_I@AdobeXMPCommon_Int@@$R4DA@BM@PPPPPPPM@BA@EAAPEAV12@XZ 0000000180067600 f i ArrayNodeImpl.obj
 0001:0006661c       ?AcquireInternal@NodeImpl@AdobeXMPCore_Int@@$4PPPPPPPM@A@EBAXXZ 000000018006761c f i ArrayNodeImpl.obj
 0001:00066628       ?convertToArrayNode@INode_I@AdobeXMPCore_Int@@$R2KA@BM@PPPPPPPM@DI@EAAPEAVIArrayNode_v1@AdobeXMPCore@@AEAPEBVIError_v1@AdobeXMPCommon@@@Z 0000000180067628 f i ArrayNodeImpl.obj
 0001:00066644       ?removeQualifier@INode_I@AdobeXMPCore_Int@@$R2KA@BM@PPPPPPPM@DI@EAAPEAVINode_v1@AdobeXMPCore@@PEBD_K01AEAPEBVIError_v1@AdobeXMPCommon@@@Z 0000000180067644 f i ArrayNodeImpl.obj
 0001:00066660       ?DisableThreadSafety@ThreadSafeImpl@AdobeXMPCore_Int@@$2PPPPPPPM@A@EBAXXZ 0000000180067660 f i ArrayNodeImpl.obj
 0001:0006666c       ?getInterfacePointer@INodeIterator_I@AdobeXMPCore_Int@@$2PPPPPPPM@A@EAAPEAX_KKAEAPEBVIError_v1@AdobeXMPCommon@@@Z 000000018006766c f i ArrayNodeImpl.obj
 0001:00066678       ??_EIArrayNode_I@AdobeXMPCore_Int@@$2PPPPPPPM@A@EAAPEAXI@Z 0000000180067678 f i ArrayNodeImpl.obj
 0001:00066684       ?getQualifierNodeType@INode_I@AdobeXMPCore_Int@@$R2DA@CA@PPPPPPPM@DI@EBAKPEBD_K01AEAPEBVIError_v1@AdobeXMPCommon@@@Z 0000000180067684 f i ArrayNodeImpl.obj
 0001:000666a0       ?qualifiersIterator@INode_I@AdobeXMPCore_Int@@$R2DA@CA@PPPPPPPM@DI@EAAPEAVINodeIterator_v1@AdobeXMPCore@@AEAPEBVIError_v1@AdobeXMPCommon@@@Z 00000001800676a0 f i ArrayNodeImpl.obj
 0001:000666bc       ??_EICompositeNode_I@AdobeXMPCore_Int@@$2PPPPPPPM@BA@EAAPEAXI@Z 00000001800676bc f i ArrayNodeImpl.obj
 0001:000666cc       ?convertToSimpleNode@INode_I@AdobeXMPCore_Int@@$2PPPPPPPM@A@EAAPEAVISimpleNode_v1@AdobeXMPCore@@AEAPEBVIError_v1@AdobeXMPCommon@@@Z 00000001800676cc f i ArrayNodeImpl.obj
 0001:000666d8       ??_EINode_I@AdobeXMPCore_Int@@$2PPPPPPPM@BA@EAAPEAXI@Z 00000001800676d8 f i ArrayNodeImpl.obj
 0001:000666e8       ?getInterfacePointer@INodeIterator_I@AdobeXMPCore_Int@@$R2DA@BE@PPPPPPPM@BI@EAAPEAX_KKAEAPEBVIError_v1@AdobeXMPCommon@@@Z 00000001800676e8 f i ArrayNodeImpl.obj
 0001:00066704       ?getNameSpace@INode_I@AdobeXMPCore_Int@@$R2GA@CE@PPPPPPPM@DI@EBAPEBVIUTF8String_v1@AdobeXMPCommon@@AEAPEBVIError_v1@4@@Z 0000000180067704 f i ArrayNodeImpl.obj
 0001:00066720       ?HasChanged@NodeImpl@AdobeXMPCore_Int@@$R4GA@DM@PPPPPPPM@KI@EBA_NXZ 0000000180067720 f i ArrayNodeImpl.obj
 0001:0006673c       ?QualifiersIterator@NodeImpl@AdobeXMPCore_Int@@$R4GA@DM@PPPPPPPM@KI@EAA?AV?$shared_ptr@VINodeIterator_v1@AdobeXMPCore@@@std@@XZ 000000018006773c f i ArrayNodeImpl.obj
 0001:00066758       ?ShareMutex@ThreadSafeImpl@AdobeXMPCore_Int@@$R2II@DA@PPPPPPPM@DA@EAAXAEBV?$shared_ptr@VISharedMutex@AdobeXMPCore_Int@@@std@@@Z 0000000180067758 f i ArrayNodeImpl.obj
 0001:00066774       ?convertToArrayNode@INode_I@AdobeXMPCore_Int@@$R2EA@CA@PPPPPPPM@DI@EAAPEAVIArrayNode_v1@AdobeXMPCore@@AEAPEBVIError_v1@AdobeXMPCommon@@@Z 0000000180067774 f i ArrayNodeImpl.obj
 0001:00066790       ?removeQualifier@INode_I@AdobeXMPCore_Int@@$R2EA@CA@PPPPPPPM@DI@EAAPEAVINode_v1@AdobeXMPCore@@PEBD_K01AEAPEBVIError_v1@AdobeXMPCommon@@@Z 0000000180067790 f i ArrayNodeImpl.obj
 0001:000667ac       ?AcknowledgeChanges@NodeImpl@AdobeXMPCore_Int@@$R4EA@DE@PPPPPPPM@KI@EBAXXZ 00000001800677ac f i ArrayNodeImpl.obj
 0001:000667c8       ?IsThreadSafe@ThreadSafeImpl@AdobeXMPCore_Int@@$R2DA@DA@PPPPPPPM@CA@EBA_NXZ 00000001800677c8 f i ArrayNodeImpl.obj
 0001:000667e4       ?getQualifier@INode_I@AdobeXMPCore_Int@@$R2KA@BM@PPPPPPPM@DI@EAAPEAVINode_v1@AdobeXMPCore@@PEBD_K01AEAPEBVIError_v1@AdobeXMPCommon@@@Z 00000001800677e4 f i ArrayNodeImpl.obj
 0001:00066800       ?getName@INode_I@AdobeXMPCore_Int@@$R2KA@BM@PPPPPPPM@DI@EBAPEBVIUTF8String_v1@AdobeXMPCommon@@AEAPEBVIError_v1@4@@Z 0000000180067800 f i ArrayNodeImpl.obj
 0001:0006681c       ?ConvertToArrayNode@NodeImpl@AdobeXMPCore_Int@@$4PPPPPPPM@A@EAA?AV?$shared_ptr@VIArrayNode_v1@AdobeXMPCore@@@std@@XZ 000000018006781c f i ArrayNodeImpl.obj
 0001:0006681c       ?ConvertToMetadata@NodeImpl@AdobeXMPCore_Int@@$4PPPPPPPM@A@EAA?AV?$shared_ptr@VIMetadata_v1@AdobeXMPCore@@@std@@XZ 000000018006781c f i ArrayNodeImpl.obj
 0001:0006681c       ?ConvertToSimpleNode@NodeImpl@AdobeXMPCore_Int@@$4PPPPPPPM@A@EAA?AV?$shared_ptr@VISimpleNode_v1@AdobeXMPCore@@@std@@XZ 000000018006781c f i ArrayNodeImpl.obj
 0001:0006681c       ?ConvertToStructureNode@NodeImpl@AdobeXMPCore_Int@@$4PPPPPPPM@A@EAA?AV?$shared_ptr@VIStructureNode_v1@AdobeXMPCore@@@std@@XZ 000000018006781c f i ArrayNodeImpl.obj
 0001:0006681c       ?GetParent@MetadataImpl@AdobeXMPCore_Int@@$2PPPPPPPM@A@EAA?AV?$shared_ptr@VINode_v1@AdobeXMPCore@@@std@@XZ 000000018006781c f i MetadataImpl.obj
 0001:0006681c       ?SerializeInternal@ClientDOMSerializerWrapperImpl@AdobeXMPCore_Int@@$4PPPPPPPM@A@EBA?AV?$shared_ptr@VIUTF8String_v1@AdobeXMPCommon@@@std@@AEBV?$shared_ptr@VINode_v1@AdobeXMPCore@@@4@K_KPEBD21AEBV?$shared_ptr@$$CBVINameSpacePrefixMap_v1@AdobeXMPCore@@@4@@Z 000000018006781c f i ClientDOMSerializerWrapperImpl.obj
 0001:00066828       ?DisableThreadSafety@ThreadSafeImpl@AdobeXMPCore_Int@@$R2JA@CI@PPPPPPPM@CA@EBAXXZ 0000000180067828 f i ArrayNodeImpl.obj
 0001:00066844       ?Release@SharedObjectImpl@AdobeXMPCore_Int@@$4PPPPPPPM@A@EBAXXZ 0000000180067844 f i ArrayNodeImpl.obj
 0001:00066850       ?appendNode@ICompositeNode_I@AdobeXMPCore_Int@@$R2FA@CI@PPPPPPPM@EI@EAAXPEAVINode_v1@AdobeXMPCore@@AEAPEBVIError_v1@AdobeXMPCommon@@@Z 0000000180067850 f i ArrayNodeImpl.obj
 0001:0006686c       ?GetActualINode@INode_I@AdobeXMPCore_Int@@$R4DA@CA@PPPPPPPM@DI@EAAPEAVINode_v1@AdobeXMPCore@@XZ 000000018006786c f i ArrayNodeImpl.obj
 0001:00066888       ??_EIArrayNode_v1@AdobeXMPCore@@O7EAAPEAXI@Z 0000000180067888 f i ArrayNodeImpl.obj
 0001:00066894       ?clone@INode_I@AdobeXMPCore_Int@@$R2GA@CE@PPPPPPPM@DI@EBAPEAVINode_v1@AdobeXMPCore@@KKAEAPEBVIError_v1@AdobeXMPCommon@@@Z 0000000180067894 f i ArrayNodeImpl.obj
 0001:000668b0       ?SetNameSpace@NodeImpl@AdobeXMPCore_Int@@$R4GA@DM@PPPPPPPM@KI@EAAXPEBD_K@Z 00000001800678b0 f i ArrayNodeImpl.obj
 0001:000668cc       ?ChangeParent@NodeImpl@AdobeXMPCore_Int@@$R4KA@DE@PPPPPPPM@PA@EAAXPEAVINode_v1@AdobeXMPCore@@@Z 00000001800678cc f i ArrayNodeImpl.obj
 0001:000668e8       ?getQualifier@INode_I@AdobeXMPCore_Int@@$R2EA@CA@PPPPPPPM@DI@EAAPEAVINode_v1@AdobeXMPCore@@PEBD_K01AEAPEBVIError_v1@AdobeXMPCommon@@@Z 00000001800678e8 f i ArrayNodeImpl.obj
 0001:00066904       ?getName@INode_I@AdobeXMPCore_Int@@$R2EA@CA@PPPPPPPM@DI@EBAPEBVIUTF8String_v1@AdobeXMPCommon@@AEAPEBVIError_v1@4@@Z 0000000180067904 f i ArrayNodeImpl.obj
 0001:00066920       ?QualifiersCount@NodeImpl@AdobeXMPCore_Int@@$R4EA@DE@PPPPPPPM@KI@EBA_KXZ 0000000180067920 f i ArrayNodeImpl.obj
 0001:0006693c       ?isArrayItem@INode_I@AdobeXMPCore_Int@@$R2KA@BM@PPPPPPPM@DI@EBAKAEAPEBVIError_v1@AdobeXMPCommon@@@Z 000000018006793c f i ArrayNodeImpl.obj
 0001:00066958       ?InsertQualifier@NodeImpl@AdobeXMPCore_Int@@$4PPPPPPPM@A@EAAXAEBV?$shared_ptr@VINode_v1@AdobeXMPCore@@@std@@@Z 0000000180067958 f i ArrayNodeImpl.obj
 0001:00066964       ??_ENodeImpl@AdobeXMPCore_Int@@$2PPPPPPPM@BA@EAAPEAXI@Z 0000000180067964 f i ArrayNodeImpl.obj
 0001:00066974       ?setNameSpace@INode_I@AdobeXMPCore_Int@@$R2DI@CE@PPPPPPPM@DI@EAAXPEBD_KAEAPEBVIError_v1@AdobeXMPCommon@@@Z 0000000180067974 f i ArrayNodeImpl.obj
 0001:0006698c       ?convertToArrayNode@INode_I@AdobeXMPCore_Int@@$2PPPPPPPM@A@EAAPEAVIArrayNode_v1@AdobeXMPCore@@AEAPEBVIError_v1@AdobeXMPCommon@@@Z 000000018006798c f i ArrayNodeImpl.obj
 0001:00066998       ?removeQualifier@INode_I@AdobeXMPCore_Int@@$2PPPPPPPM@A@EAAPEAVINode_v1@AdobeXMPCore@@PEBD_K01AEAPEBVIError_v1@AdobeXMPCommon@@@Z 0000000180067998 f i ArrayNodeImpl.obj
 0001:000669a4       ?getInterfacePointer@INode_I@AdobeXMPCore_Int@@$2PPPPPPPM@A@EAAPEAX_KKAEAPEBVIError_v1@AdobeXMPCommon@@@Z 00000001800679a4 f i ArrayNodeImpl.obj
 0001:000669b0       ?ShareMutex@ThreadSafeImpl@AdobeXMPCore_Int@@$R2MA@DI@PPPPPPPM@DA@EAAXAEBV?$shared_ptr@VISharedMutex@AdobeXMPCore_Int@@@std@@@Z 00000001800679b0 f i ArrayNodeImpl.obj
 0001:000669d0       ?convertToMetadata@INode_I@AdobeXMPCore_Int@@$R2GA@CE@PPPPPPPM@DI@EAAPEAVIMetadata_v1@AdobeXMPCore@@AEAPEBVIError_v1@AdobeXMPCommon@@@Z 00000001800679d0 f i ArrayNodeImpl.obj
 0001:000669ec       ?GetQualifier@NodeImpl@AdobeXMPCore_Int@@$R4KA@DE@PPPPPPPM@PA@EAA?AV?$shared_ptr@VINode_v1@AdobeXMPCore@@@std@@AEBV?$shared_ptr@$$CBVIUTF8String_v1@AdobeXMPCommon@@@4@0@Z 00000001800679ec f i ArrayNodeImpl.obj
 0001:00066a08       ?isArrayItem@INode_I@AdobeXMPCore_Int@@$R2EA@CA@PPPPPPPM@DI@EBAKAEAPEBVIError_v1@AdobeXMPCommon@@@Z 0000000180067a08 f i ArrayNodeImpl.obj
 0001:00066a24       ?GetQualifierNodeType@NodeImpl@AdobeXMPCore_Int@@$R4EA@DE@PPPPPPPM@KI@EBA?AW4eNodeType@INode_v1@AdobeXMPCore@@PEBD_K01@Z 0000000180067a24 f i ArrayNodeImpl.obj
 0001:00066a40       ?ShareMutex@ThreadSafeImpl@AdobeXMPCore_Int@@$R2NA@CI@PPPPPPPM@DA@EAAXAEBV?$shared_ptr@VISharedMutex@AdobeXMPCore_Int@@@std@@@Z 0000000180067a40 f i ArrayNodeImpl.obj
 0001:00066a60       ?GetINode_I@INode_I@AdobeXMPCore_Int@@$R4DI@CE@PPPPPPPM@DI@EAAPEAV12@XZ 0000000180067a60 f i ArrayNodeImpl.obj
 0001:00066a78       ?getQualifier@INode_I@AdobeXMPCore_Int@@$2PPPPPPPM@A@EAAPEAVINode_v1@AdobeXMPCore@@PEBD_K01AEAPEBVIError_v1@AdobeXMPCommon@@@Z 0000000180067a78 f i ArrayNodeImpl.obj
 0001:00066a84       ?getName@INode_I@AdobeXMPCore_Int@@$2PPPPPPPM@A@EBAPEBVIUTF8String_v1@AdobeXMPCommon@@AEAPEBVIError_v1@4@@Z 0000000180067a84 f i ArrayNodeImpl.obj
 0001:00066a90       ?ChangeParent@NodeImpl@AdobeXMPCore_Int@@$R4NI@DM@PPPPPPPM@PA@EAAXPEAVINode_v1@AdobeXMPCore@@@Z 0000000180067a90 f i ArrayNodeImpl.obj
 0001:00066aac       ?getArrayForm@IArrayNode_I@AdobeXMPCore_Int@@$R2JA@CM@PPPPPPPM@GI@EBAKAEAPEBVIError_v1@AdobeXMPCommon@@@Z 0000000180067aac f i ArrayNodeImpl.obj
 0001:00066ac8       ?convertToSimpleNode@INode_I@AdobeXMPCore_Int@@$R2GA@CE@PPPPPPPM@DI@EAAPEAVISimpleNode_v1@AdobeXMPCore@@AEAPEBVIError_v1@AdobeXMPCommon@@@Z 0000000180067ac8 f i ArrayNodeImpl.obj
 0001:00066ae4       ?ReplaceQualifier@NodeImpl@AdobeXMPCore_Int@@$R4GA@DM@PPPPPPPM@KI@EAA?AV?$shared_ptr@VINode_v1@AdobeXMPCore@@@std@@AEBV34@@Z 0000000180067ae4 f i ArrayNodeImpl.obj
 0001:00066b00       ?SetQualifiers@NodeImpl@AdobeXMPCore_Int@@$R4KA@DE@PPPPPPPM@PA@EAAXAEBV?$shared_ptr@VIStructureNode_v1@AdobeXMPCore@@@std@@@Z 0000000180067b00 f i ArrayNodeImpl.obj
 0001:00066b1c       ?IsArrayItem@NodeImpl@AdobeXMPCore_Int@@$R4EA@DE@PPPPPPPM@KI@EBA_NXZ 0000000180067b1c f i ArrayNodeImpl.obj
 0001:00066b38       ?getNodeType@INodeIterator_I@AdobeXMPCore_Int@@$2PPPPPPPM@A@EBAKAEAPEBVIError_v1@AdobeXMPCommon@@@Z 0000000180067b38 f i ArrayNodeImpl.obj
 0001:00066b44       ?replaceNodeAtIndex@IArrayNode_I@AdobeXMPCore_Int@@$2PPPPPPPM@A@EAAPEAVINode_v1@AdobeXMPCore@@PEAV34@_KAEAPEBVIError_v1@AdobeXMPCommon@@@Z 0000000180067b44 f i ArrayNodeImpl.obj
 0001:00066b50       ?convertToStructureNode@INode_I@AdobeXMPCore_Int@@$R2DA@CA@PPPPPPPM@DI@EAAPEAVIStructureNode_v1@AdobeXMPCore@@AEAPEBVIError_v1@AdobeXMPCommon@@@Z 0000000180067b50 f i ArrayNodeImpl.obj
 0001:00066b6c       ?hasChanged@INode_I@AdobeXMPCore_Int@@$R2DA@CA@PPPPPPPM@DI@EBAKAEAPEBVIError_v1@AdobeXMPCommon@@@Z 0000000180067b6c f i ArrayNodeImpl.obj
 0001:00066b88       ?isArrayItem@INode_I@AdobeXMPCore_Int@@$2PPPPPPPM@A@EBAKAEAPEBVIError_v1@AdobeXMPCommon@@@Z 0000000180067b88 f i ArrayNodeImpl.obj
 0001:00066b94       ?GetQualifier@NodeImpl@AdobeXMPCore_Int@@$R4NI@DM@PPPPPPPM@PA@EAA?AV?$shared_ptr@VINode_v1@AdobeXMPCore@@@std@@AEBV?$shared_ptr@$$CBVIUTF8String_v1@AdobeXMPCommon@@@4@0@Z 0000000180067b94 f i ArrayNodeImpl.obj
 0001:00066bb0       ?GetIArrayNode_I@IArrayNode_I@AdobeXMPCore_Int@@$R4JA@CM@PPPPPPPM@GI@EAAPEAV12@XZ 0000000180067bb0 f i ArrayNodeImpl.obj
 0001:00066bcc       ?GetICompositeNode_I@ICompositeNode_I@AdobeXMPCore_Int@@$R4HI@CI@PPPPPPPM@EI@EAAPEAV12@XZ 0000000180067bcc f i ArrayNodeImpl.obj
 0001:00066be8       ?Clear@NodeImpl@AdobeXMPCore_Int@@$R4GA@DM@PPPPPPPM@KI@EAAX_N0@Z 0000000180067be8 f i ArrayNodeImpl.obj
 0001:00066c04       ?IsQualifierNode@NodeImpl@AdobeXMPCore_Int@@$R4GA@DM@PPPPPPPM@KI@EBA_NXZ 0000000180067c04 f i ArrayNodeImpl.obj
 0001:00066c20       ?GetIThreadSafe_I@IThreadSafe_I@AdobeXMPCommon_Int@@$R4FA@CA@PPPPPPPM@BA@EAAPEAV12@XZ 0000000180067c20 f i ArrayNodeImpl.obj
 0001:00066c3c       ?ValidateNameOrNameSpaceChangeForAChild@NodeImpl@AdobeXMPCore_Int@@$R4KA@DE@PPPPPPPM@PA@EAA_NAEBV?$shared_ptr@$$CBVIUTF8String_v1@AdobeXMPCommon@@@std@@000@Z 0000000180067c3c f i ArrayNodeImpl.obj
 0001:00066c58       ?appendNode@ICompositeNode_I@AdobeXMPCore_Int@@$R2FI@CE@PPPPPPPM@EI@EAAXPEAVINode_v1@AdobeXMPCore@@AEAPEBVIError_v1@AdobeXMPCommon@@@Z 0000000180067c58 f i ArrayNodeImpl.obj
 0001:00066c74       ?ReplaceNodeAtPath@CompositeNodeImpl@AdobeXMPCore_Int@@$4PPPPPPPM@A@EAA?AV?$shared_ptr@VINode_v1@AdobeXMPCore@@@std@@AEBV34@AEBV?$shared_ptr@$$CBVIPath_v1@AdobeXMPCore@@@4@@Z 0000000180067c74 f i ArrayNodeImpl.obj
 0001:00066c80       ?setNameSpace@INode_I@AdobeXMPCore_Int@@$R2KA@BM@PPPPPPPM@DI@EAAXPEBD_KAEAPEBVIError_v1@AdobeXMPCommon@@@Z 0000000180067c80 f i ArrayNodeImpl.obj
 0001:00066c9c       ?GetActualICompositeNode@ICompositeNode_I@AdobeXMPCore_Int@@$R4FA@CI@PPPPPPPM@EI@EAAPEAVICompositeNode_v1@AdobeXMPCore@@XZ 0000000180067c9c f i ArrayNodeImpl.obj
 0001:00066cb8       ?isEmpty@INode_I@AdobeXMPCore_Int@@$R2DI@CE@PPPPPPPM@DI@EBAKAEAPEBVIError_v1@AdobeXMPCommon@@@Z 0000000180067cb8 f i ArrayNodeImpl.obj
 0001:00066cd0       ?getParent@INode_I@AdobeXMPCore_Int@@$R2DI@CE@PPPPPPPM@DI@EAAPEAVINode_v1@AdobeXMPCore@@AEAPEBVIError_v1@AdobeXMPCommon@@@Z 0000000180067cd0 f i ArrayNodeImpl.obj
 0001:00066ce8       ?GetIThreadSafe_I@IThreadSafe_I@AdobeXMPCommon_Int@@WPPPPPPKI@EAAPEAV12@XZ 0000000180067ce8 f i ArrayNodeImpl.obj
 0001:00066cf4       ?getNodeType@INodeIterator_I@AdobeXMPCore_Int@@$R2EA@BE@PPPPPPPM@CI@EBAKAEAPEBVIError_v1@AdobeXMPCommon@@@Z 0000000180067cf4 f i ArrayNodeImpl.obj
 0001:00066d10       ?SetQualifiers@NodeImpl@AdobeXMPCore_Int@@$R4NI@DM@PPPPPPPM@PA@EAAXAEBV?$shared_ptr@VIStructureNode_v1@AdobeXMPCore@@@std@@@Z 0000000180067d10 f i ArrayNodeImpl.obj
 0001:00066d2c       ?convertToArrayNode@INode_I@AdobeXMPCore_Int@@$R2GA@CE@PPPPPPPM@DI@EAAPEAVIArrayNode_v1@AdobeXMPCore@@AEAPEBVIError_v1@AdobeXMPCommon@@@Z 0000000180067d2c f i ArrayNodeImpl.obj
 0001:00066d48       ?removeQualifier@INode_I@AdobeXMPCore_Int@@$R2GA@CE@PPPPPPPM@DI@EAAPEAVINode_v1@AdobeXMPCore@@PEBD_K01AEAPEBVIError_v1@AdobeXMPCommon@@@Z 0000000180067d48 f i ArrayNodeImpl.obj
 0001:00066d64       ?Clone@NodeImpl@AdobeXMPCore_Int@@$R4GA@DM@PPPPPPPM@KI@EBA?AV?$shared_ptr@VINode_v1@AdobeXMPCore@@@std@@_N0@Z 0000000180067d64 f i ArrayNodeImpl.obj
 0001:00066d80       ?IsEmpty@NodeImpl@AdobeXMPCore_Int@@$R4GA@DM@PPPPPPPM@KI@EBA_NXZ 0000000180067d80 f i ArrayNodeImpl.obj
 0001:00066d9c       ?RemoveQualifier@NodeImpl@AdobeXMPCore_Int@@$R4GA@DM@PPPPPPPM@KI@EAA?AV?$shared_ptr@VINode_v1@AdobeXMPCore@@@std@@PEBD_K01@Z 0000000180067d9c f i ArrayNodeImpl.obj
 0001:00066db8       ?GetPath@NodeImpl@AdobeXMPCore_Int@@$R4GA@DM@PPPPPPPM@KI@EBA?AV?$shared_ptr@VIPath_v1@AdobeXMPCore@@@std@@XZ 0000000180067db8 f i ArrayNodeImpl.obj
 0001:00066dd4       ?setNameSpace@INode_I@AdobeXMPCore_Int@@$R2EA@CA@PPPPPPPM@DI@EAAXPEBD_KAEAPEBVIError_v1@AdobeXMPCommon@@@Z 0000000180067dd4 f i ArrayNodeImpl.obj
 0001:00066df0       ?DisableThreadSafety@ThreadSafeImpl@AdobeXMPCore_Int@@$R2DA@DA@PPPPPPPM@CA@EBAXXZ 0000000180067df0 f i ArrayNodeImpl.obj
 0001:00066e0c       ?GetRawParentPointer@NodeImpl@AdobeXMPCore_Int@@$4PPPPPPPM@A@EAAPEAVINode_v1@AdobeXMPCore@@XZ 0000000180067e0c f i ArrayNodeImpl.obj
 0001:00066e18       ?GetINode_I@INode_I@AdobeXMPCore_Int@@$R4KA@BM@PPPPPPPM@DI@EAAPEAV12@XZ 0000000180067e18 f i ArrayNodeImpl.obj
 0001:00066e34       ?HasQualifiers@NodeImpl@AdobeXMPCore_Int@@$4PPPPPPPM@A@EBA_NXZ 0000000180067e34 f i ArrayNodeImpl.obj
 0001:00066e40       ?getInterfacePointer@INode_I@AdobeXMPCore_Int@@$R2IA@BM@PPPPPPPM@CA@EAAPEAX_KKAEAPEBVIError_v1@AdobeXMPCommon@@@Z 0000000180067e40 f i ArrayNodeImpl.obj
 0001:00066e5c       ?isThreadSafe@IThreadSafe_I@AdobeXMPCommon_Int@@$R4CA@7PPPPPPPM@BA@EBAKXZ 0000000180067e5c f i ArrayNodeImpl.obj
 0001:00066e78       ?removeNodeAtPath@ICompositeNode_I@AdobeXMPCore_Int@@$R2FA@CI@PPPPPPPM@EI@EAAPEAVINode_v1@AdobeXMPCore@@PEBVIPath_v1@4@AEAPEBVIError_v1@AdobeXMPCommon@@@Z 0000000180067e78 f i ArrayNodeImpl.obj
 0001:00066e94       ?setName@INode_I@AdobeXMPCore_Int@@$R2DI@CE@PPPPPPPM@DI@EAAXPEBD_KAEAPEBVIError_v1@AdobeXMPCommon@@@Z 0000000180067e94 f i ArrayNodeImpl.obj
 0001:00066eac       ?replaceNodeAtPath@ICompositeNode_I@AdobeXMPCore_Int@@$2PPPPPPPM@A@EAAPEAVINode_v1@AdobeXMPCore@@PEAV34@PEBVIPath_v1@4@AEAPEBVIError_v1@AdobeXMPCommon@@@Z 0000000180067eac f i ArrayNodeImpl.obj
 0001:00066eb8       ?getPath@INode_I@AdobeXMPCore_Int@@$R2DA@CA@PPPPPPPM@DI@EBAPEAVIPath_v1@AdobeXMPCore@@AEAPEBVIError_v1@AdobeXMPCommon@@@Z 0000000180067eb8 f i ArrayNodeImpl.obj
 0001:00066ed4       ?ValidateNameOrNameSpaceChangeForAChild@NodeImpl@AdobeXMPCore_Int@@$R4NI@DM@PPPPPPPM@PA@EAA_NAEBV?$shared_ptr@$$CBVIUTF8String_v1@AdobeXMPCommon@@@std@@000@Z 0000000180067ed4 f i ArrayNodeImpl.obj
 0001:00066ef0       ?getQualifier@INode_I@AdobeXMPCore_Int@@$R2GA@CE@PPPPPPPM@DI@EAAPEAVINode_v1@AdobeXMPCore@@PEBD_K01AEAPEBVIError_v1@AdobeXMPCommon@@@Z 0000000180067ef0 f i ArrayNodeImpl.obj
 0001:00066f0c       ?getName@INode_I@AdobeXMPCore_Int@@$R2GA@CE@PPPPPPPM@DI@EBAPEBVIUTF8String_v1@AdobeXMPCommon@@AEAPEBVIError_v1@4@@Z 0000000180067f0c f i ArrayNodeImpl.obj
 0001:00066f28       ?GetISharedObject_I@IArrayNode_I@AdobeXMPCore_Int@@$R4DA@CM@PPPPPPPM@BA@EAAPEAVISharedObject_I@AdobeXMPCommon_Int@@XZ 0000000180067f28 f i ArrayNodeImpl.obj
 0001:00066f44       ?GetINode_I@INode_I@AdobeXMPCore_Int@@$R4EA@CA@PPPPPPPM@DI@EAAPEAV12@XZ 0000000180067f44 f i ArrayNodeImpl.obj
 0001:00066f60       ??_ECompositeNodeImpl@AdobeXMPCore_Int@@$2PPPPPPPM@A@EAAPEAXI@Z 0000000180067f60 f i ArrayNodeImpl.obj
 0001:00066f6c       ?EnableThreadSafety@ThreadSafeImpl@AdobeXMPCore_Int@@$2PPPPPPPM@A@EBAXXZ 0000000180067f6c f i ArrayNodeImpl.obj
 0001:00066f78       ?next@INodeIterator_I@AdobeXMPCore_Int@@$2PPPPPPPM@A@EAAPEAVINodeIterator_v1@AdobeXMPCore@@AEAPEBVIError_v1@AdobeXMPCommon@@@Z 0000000180067f78 f i ArrayNodeImpl.obj
 0001:00066f84       ?hasContent@INode_I@AdobeXMPCore_Int@@$R2DI@CE@PPPPPPPM@DI@EBAKAEAPEBVIError_v1@AdobeXMPCommon@@@Z 0000000180067f84 f i ArrayNodeImpl.obj
 0001:00066f9c       ?getIndex@INode_I@AdobeXMPCore_Int@@$R2DI@CE@PPPPPPPM@DI@EBA_KAEAPEBVIError_v1@AdobeXMPCommon@@@Z 0000000180067f9c f i ArrayNodeImpl.obj
 0001:00066fb4       ?hasQualifiers@INode_I@AdobeXMPCore_Int@@$R2DA@CA@PPPPPPPM@DI@EBAKAEAPEBVIError_v1@AdobeXMPCommon@@@Z 0000000180067fb4 f i ArrayNodeImpl.obj
 0001:00066fd0       ?isQualifierNode@INode_I@AdobeXMPCore_Int@@$R2DA@CA@PPPPPPPM@DI@EBAKAEAPEBVIError_v1@AdobeXMPCommon@@@Z 0000000180067fd0 f i ArrayNodeImpl.obj
 0001:00066fec       ?getParentNodeType@INode_I@AdobeXMPCore_Int@@$R2DA@CA@PPPPPPPM@DI@EBAKAEAPEBVIError_v1@AdobeXMPCommon@@@Z 0000000180067fec f i ArrayNodeImpl.obj
 0001:00067008       ?setNameSpace@INode_I@AdobeXMPCore_Int@@$2PPPPPPPM@A@EAAXPEBD_KAEAPEBVIError_v1@AdobeXMPCommon@@@Z 0000000180068008 f i ArrayNodeImpl.obj
 0001:00067014       ?ReplaceNodeAtPath@CompositeNodeImpl@AdobeXMPCore_Int@@$R4HI@EA@PPPPPPPM@GA@EAA?AV?$shared_ptr@VINode_v1@AdobeXMPCore@@@std@@AEBV34@AEBV?$shared_ptr@$$CBVIPath_v1@AdobeXMPCore@@@4@@Z 0000000180068014 f i ArrayNodeImpl.obj
 0001:00067030       ?isArrayItem@INode_I@AdobeXMPCore_Int@@$R2GA@CE@PPPPPPPM@DI@EBAKAEAPEBVIError_v1@AdobeXMPCommon@@@Z 0000000180068030 f i ArrayNodeImpl.obj
 0001:0006704c       ?UnRegisterChange@NodeImpl@AdobeXMPCore_Int@@$R4KA@DE@PPPPPPPM@PA@EAAXXZ 000000018006804c f i ArrayNodeImpl.obj
 0001:00067068       ?UnShareMutex@ThreadSafeImpl@AdobeXMPCore_Int@@$R2II@DA@PPPPPPPM@DA@EAAXXZ 0000000180068068 f i ArrayNodeImpl.obj
 0001:00067084       ??_ECompositeNodeImpl@AdobeXMPCore_Int@@$2PPPPPPPM@CA@EAAPEAXI@Z 0000000180068084 f i ArrayNodeImpl.obj
 0001:00067094       ?isEmpty@INode_I@AdobeXMPCore_Int@@$R2KA@BM@PPPPPPPM@DI@EBAKAEAPEBVIError_v1@AdobeXMPCommon@@@Z 0000000180068094 f i ArrayNodeImpl.obj
 0001:000670b0       ?getParent@INode_I@AdobeXMPCore_Int@@$R2KA@BM@PPPPPPPM@DI@EAAPEAVINode_v1@AdobeXMPCore@@AEAPEBVIError_v1@AdobeXMPCommon@@@Z 00000001800680b0 f i ArrayNodeImpl.obj
 0001:000670cc       ?EnableThreadSafety@ThreadSafeImpl@AdobeXMPCore_Int@@$R2JA@CI@PPPPPPPM@CA@EBAXXZ 00000001800680cc f i ArrayNodeImpl.obj
 0001:000670e8       ??_ESharedObjectImpl@AdobeXMPCore_Int@@$2PPPPPPPM@A@EAAPEAXI@Z 00000001800680e8 f i ArrayNodeImpl.obj
 0001:000670f4       ?GetIDOMImplementationRegistry_I@IDOMImplementationRegistry_I@AdobeXMPCore_Int@@$4PPPPPPPM@A@EAAPEAV12@XZ 00000001800680f4 f i DOMImplementationRegistryImpl.obj
 0001:000670f4       ?GetINameSpacePrefixMap_I@INameSpacePrefixMap_I@AdobeXMPCore_Int@@$4PPPPPPPM@A@EAAPEAV12@XZ 00000001800680f4 f i NameSpacePrefixMapImpl.obj
 0001:000670f4       ?GetINode_I@INode_I@AdobeXMPCore_Int@@$4PPPPPPPM@A@EAAPEAV12@XZ 00000001800680f4 f i ArrayNodeImpl.obj
 0001:00067100       ?next@INodeIterator_I@AdobeXMPCore_Int@@$R2EA@BE@PPPPPPPM@CI@EAAPEAVINodeIterator_v1@AdobeXMPCore@@AEAPEBVIError_v1@AdobeXMPCommon@@@Z 0000000180068100 f i ArrayNodeImpl.obj
 0001:0006711c       ?ChildCount@ArrayNodeImpl@AdobeXMPCore_Int@@$4PPPPPPPM@A@EBA_KXZ 000000018006811c f i ArrayNodeImpl.obj
 0001:00067128       ?GetNameSpace@NodeImpl@AdobeXMPCore_Int@@$R4GA@DM@PPPPPPPM@KI@EBA?AV?$shared_ptr@$$CBVIUTF8String_v1@AdobeXMPCommon@@@std@@XZ 0000000180068128 f i ArrayNodeImpl.obj
 0001:00067144       ?SetName@NodeImpl@AdobeXMPCore_Int@@$R4GA@DM@PPPPPPPM@KI@EAAXPEBD_K@Z 0000000180068144 f i ArrayNodeImpl.obj
 0001:00067160       ?RegisterChange@NodeImpl@AdobeXMPCore_Int@@$R4KA@DE@PPPPPPPM@PA@EAAXXZ 0000000180068160 f i ArrayNodeImpl.obj
 0001:0006717c       ?SetIndex@NodeImpl@AdobeXMPCore_Int@@$R4KA@DE@PPPPPPPM@PA@EAAX_K@Z 000000018006817c f i ArrayNodeImpl.obj
 0001:00067198       ?GetActualICompositeNode@ICompositeNode_I@AdobeXMPCore_Int@@$R4FI@CE@PPPPPPPM@EI@EAAPEAVICompositeNode_v1@AdobeXMPCore@@XZ 0000000180068198 f i ArrayNodeImpl.obj
 0001:000671b4       ?GetNodeTypeAtPath@CompositeNodeImpl@AdobeXMPCore_Int@@$4PPPPPPPM@A@EBA?AW4eNodeType@INode_v1@AdobeXMPCore@@AEBV?$shared_ptr@$$CBVIPath_v1@AdobeXMPCore@@@std@@@Z 00000001800681b4 f i ArrayNodeImpl.obj
 0001:000671c0       ?isEmpty@INode_I@AdobeXMPCore_Int@@$R2EA@CA@PPPPPPPM@DI@EBAKAEAPEBVIError_v1@AdobeXMPCommon@@@Z 00000001800681c0 f i ArrayNodeImpl.obj
 0001:000671dc       ?getParent@INode_I@AdobeXMPCore_Int@@$R2EA@CA@PPPPPPPM@DI@EAAPEAVINode_v1@AdobeXMPCore@@AEAPEBVIError_v1@AdobeXMPCommon@@@Z 00000001800681dc f i ArrayNodeImpl.obj
 0001:000671f8       ?InsertQualifier@NodeImpl@AdobeXMPCore_Int@@$R4EA@DE@PPPPPPPM@KI@EAAXAEBV?$shared_ptr@VINode_v1@AdobeXMPCore@@@std@@@Z 00000001800681f8 f i ArrayNodeImpl.obj
 0001:00067214       ?setName@INode_I@AdobeXMPCore_Int@@$R2KA@BM@PPPPPPPM@DI@EAAXPEBD_KAEAPEBVIError_v1@AdobeXMPCommon@@@Z 0000000180068214 f i ArrayNodeImpl.obj
 0001:00067230       ?AcquireInternal@SharedObjectImpl@AdobeXMPCore_Int@@$4PPPPPPPM@A@EBAXXZ 0000000180068230 f i ArrayNodeImpl.obj
 0001:0006723c       ?GetActualIConfigurationManager@IConfigurationManager_I@AdobeXMPCore_Int@@$4PPPPPPPM@A@EAAPEAVIConfigurationManager_v1@AdobeXMPCommon@@XZ 000000018006823c f i CoreConfigurationManagerImpl.obj
 0001:0006723c       ?GetActualINodeIterator@INodeIterator_I@AdobeXMPCore_Int@@$4PPPPPPPM@A@EAAPEAVINodeIterator_v1@AdobeXMPCore@@XZ 000000018006823c f i ArrayNodeImpl.obj
 0001:0006723c       ?GetActualIPath@IPath_I@AdobeXMPCore_Int@@$4PPPPPPPM@A@EAAPEAVIPath_v1@AdobeXMPCore@@XZ 000000018006823c f i PathImpl.obj
 0001:0006723c       ?GetActualIUTF8String@IUTF8String_I@AdobeXMPCore_Int@@$4PPPPPPPM@A@EAAPEAVIUTF8String_v1@AdobeXMPCommon@@XZ 000000018006823c f i UTF8StringImpl.obj
 0001:00067248       ?clear@INode_I@AdobeXMPCore_Int@@$R2DI@CE@PPPPPPPM@DI@EAAXKKAEAPEBVIError_v1@AdobeXMPCommon@@@Z 0000000180068248 f i ArrayNodeImpl.obj
 0001:00067260       ?getNodeAtPath@ICompositeNode_I@AdobeXMPCore_Int@@$2PPPPPPPM@A@EAAPEAVINode_v1@AdobeXMPCore@@PEBVIPath_v1@4@AEAPEBVIError_v1@AdobeXMPCommon@@@Z 0000000180068260 f i ArrayNodeImpl.obj
 0001:0006726c       ?getNodeType@INode_I@AdobeXMPCore_Int@@$R2DA@CA@PPPPPPPM@DI@EBAKAEAPEBVIError_v1@AdobeXMPCommon@@@Z 000000018006826c f i ArrayNodeImpl.obj
 0001:00067288       ?replaceQualifier@INode_I@AdobeXMPCore_Int@@$R2DA@CA@PPPPPPPM@DI@EAAPEAVINode_v1@AdobeXMPCore@@PEAV34@AEAPEBVIError_v1@AdobeXMPCommon@@@Z 0000000180068288 f i ArrayNodeImpl.obj
 0001:000672a4       ??_EICompositeNode_I@AdobeXMPCore_Int@@OBI@EAAPEAXI@Z 00000001800682a4 f i ArrayNodeImpl.obj
 0001:000672b0       ?GetInterfacePointer@ICompositeNode_I@AdobeXMPCore_Int@@$4PPPPPPPM@A@EAAPEAX_KK@Z 00000001800682b0 f i ArrayNodeImpl.obj
 0001:000672bc       ?isThreadSafe@IThreadSafe_I@AdobeXMPCommon_Int@@WPPPPPPMA@EBAKXZ 00000001800682bc f i ArrayNodeImpl.obj
 0001:000672c8       ??_EINode_I@AdobeXMPCore_Int@@OBI@EAAPEAXI@Z 00000001800682c8 f i ArrayNodeImpl.obj
 0001:000672d4       ??_EIArrayNode_v1@AdobeXMPCore@@OBA@EAAPEAXI@Z 00000001800682d4 f i ArrayNodeImpl.obj
 0001:000672e0       ?CheckSuitabilityToBeUsedAsChildNode@ArrayNodeImpl@AdobeXMPCore_Int@@$4PPPPPPPM@A@EBA_NAEBV?$shared_ptr@$$CBVINode_v1@AdobeXMPCore@@@std@@@Z 00000001800682e0 f i ArrayNodeImpl.obj
 0001:000672ec       ?UnRegisterChange@NodeImpl@AdobeXMPCore_Int@@$R4NI@DM@PPPPPPPM@PA@EAAXXZ 00000001800682ec f i ArrayNodeImpl.obj
 0001:00067308       ?UnShareMutex@ThreadSafeImpl@AdobeXMPCore_Int@@$R2MA@DI@PPPPPPPM@DA@EAAXXZ 0000000180068308 f i ArrayNodeImpl.obj
 0001:00067328       ?removeNodeAtIndex@IArrayNode_I@AdobeXMPCore_Int@@$R2JA@CM@PPPPPPPM@GI@EAAPEAVINode_v1@AdobeXMPCore@@_KAEAPEBVIError_v1@AdobeXMPCommon@@@Z 0000000180068328 f i ArrayNodeImpl.obj
 0001:00067344       ?appendNode@ICompositeNode_I@AdobeXMPCore_Int@@$R2HI@CI@PPPPPPPM@EI@EAAXPEAVINode_v1@AdobeXMPCore@@AEAPEBVIError_v1@AdobeXMPCommon@@@Z 0000000180068344 f i ArrayNodeImpl.obj
 0001:00067360       ?AcknowledgeChanges@NodeImpl@AdobeXMPCore_Int@@$R4GA@DM@PPPPPPPM@KI@EBAXXZ 0000000180068360 f i ArrayNodeImpl.obj
 0001:0006737c       ?IsThreadSafe@ThreadSafeImpl@AdobeXMPCore_Int@@$R2FA@DI@PPPPPPPM@CA@EBA_NXZ 000000018006837c f i ArrayNodeImpl.obj
 0001:00067398       ??_EArrayNodeImpl@AdobeXMPCore_Int@@$2PPPPPPPM@A@EAAPEAXI@Z 0000000180068398 f i ArrayNodeImpl.obj
 0001:000673a4       ?RemoveQualifier@NodeImpl@AdobeXMPCore_Int@@$R4KA@DE@PPPPPPPM@PA@EAA?AV?$shared_ptr@VINode_v1@AdobeXMPCore@@@std@@AEBV?$shared_ptr@$$CBVIUTF8String_v1@AdobeXMPCommon@@@4@0@Z 00000001800683a4 f i ArrayNodeImpl.obj
 0001:000673c0       ?removeNodeAtPath@ICompositeNode_I@AdobeXMPCore_Int@@$R2FI@CE@PPPPPPPM@EI@EAAPEAVINode_v1@AdobeXMPCore@@PEBVIPath_v1@4@AEAPEBVIError_v1@AdobeXMPCommon@@@Z 00000001800683c0 f i ArrayNodeImpl.obj
 0001:000673dc       ?setName@INode_I@AdobeXMPCore_Int@@$R2EA@CA@PPPPPPPM@DI@EAAXPEBD_KAEAPEBVIError_v1@AdobeXMPCommon@@@Z 00000001800683dc f i ArrayNodeImpl.obj
 0001:000673f8       ?GetInterfacePointer@ICompositeNode_I@AdobeXMPCore_Int@@$R4CA@CE@PPPPPPPM@BI@EAAPEAX_KK@Z 00000001800683f8 f i ArrayNodeImpl.obj
 0001:00067414       ?UnShareMutex@ThreadSafeImpl@AdobeXMPCore_Int@@$R2NA@CI@PPPPPPPM@DA@EAAXXZ 0000000180068414 f i ArrayNodeImpl.obj
 0001:00067434       ?hasContent@INode_I@AdobeXMPCore_Int@@$R2KA@BM@PPPPPPPM@DI@EBAKAEAPEBVIError_v1@AdobeXMPCommon@@@Z 0000000180068434 f i ArrayNodeImpl.obj
 0001:00067450       ?getIndex@INode_I@AdobeXMPCore_Int@@$R2KA@BM@PPPPPPPM@DI@EBA_KAEAPEBVIError_v1@AdobeXMPCommon@@@Z 0000000180068450 f i ArrayNodeImpl.obj
 0001:0006746c       ?GetIndex@NodeImpl@AdobeXMPCore_Int@@$4PPPPPPPM@A@EBA_KXZ 000000018006846c f i ArrayNodeImpl.obj
 0001:00067478       ?isThreadSafe@IThreadSafe_I@AdobeXMPCommon_Int@@$R4JA@BI@PPPPPPPM@BA@EBAKXZ 0000000180068478 f i ArrayNodeImpl.obj
 0001:00067494       ?insertNodeAtPath@ICompositeNode_I@AdobeXMPCore_Int@@$2PPPPPPPM@A@EAAXPEAVINode_v1@AdobeXMPCore@@PEBVIPath_v1@4@AEAPEBVIError_v1@AdobeXMPCommon@@@Z 0000000180068494 f i ArrayNodeImpl.obj
 0001:000674a0       ?getNodeTypeAtPath@ICompositeNode_I@AdobeXMPCore_Int@@$2PPPPPPPM@A@EBAKPEBVIPath_v1@AdobeXMPCore@@AEAPEBVIError_v1@AdobeXMPCommon@@@Z 00000001800684a0 f i ArrayNodeImpl.obj
 0001:000674ac       ?insertQualifier@INode_I@AdobeXMPCore_Int@@$R2DA@CA@PPPPPPPM@DI@EAAXPEAVINode_v1@AdobeXMPCore@@AEAPEBVIError_v1@AdobeXMPCommon@@@Z 00000001800684ac f i ArrayNodeImpl.obj
 0001:000674c8       ?isEmpty@INode_I@AdobeXMPCore_Int@@$2PPPPPPPM@A@EBAKAEAPEBVIError_v1@AdobeXMPCommon@@@Z 00000001800684c8 f i ArrayNodeImpl.obj
 0001:000674d4       ?getParent@INode_I@AdobeXMPCore_Int@@$2PPPPPPPM@A@EAAPEAVINode_v1@AdobeXMPCore@@AEAPEBVIError_v1@AdobeXMPCommon@@@Z 00000001800684d4 f i ArrayNodeImpl.obj
 0001:000674e0       ?GetActualINodeIterator@INodeIterator_I@AdobeXMPCore_Int@@$R4EA@BE@PPPPPPPM@CI@EAAPEAVINodeIterator_v1@AdobeXMPCore@@XZ 00000001800684e0 f i ArrayNodeImpl.obj
 0001:000674fc       ?CloneContents@ArrayNodeImpl@AdobeXMPCore_Int@@$4PPPPPPPM@A@EBA?AV?$shared_ptr@VINode_v1@AdobeXMPCore@@@std@@_N0_K@Z 00000001800684fc f i ArrayNodeImpl.obj
 0001:00067508       ?RegisterChange@NodeImpl@AdobeXMPCore_Int@@$R4NI@DM@PPPPPPPM@PA@EAAXXZ 0000000180068508 f i ArrayNodeImpl.obj
 0001:00067524       ?SetIndex@NodeImpl@AdobeXMPCore_Int@@$R4NI@DM@PPPPPPPM@PA@EAAX_K@Z 0000000180068524 f i ArrayNodeImpl.obj
 0001:00067540       ?setNameSpace@INode_I@AdobeXMPCore_Int@@$R2GA@CE@PPPPPPPM@DI@EAAXPEBD_KAEAPEBVIError_v1@AdobeXMPCommon@@@Z 0000000180068540 f i ArrayNodeImpl.obj
 0001:0006755c       ?QualifiersCount@NodeImpl@AdobeXMPCore_Int@@$R4GA@DM@PPPPPPPM@KI@EBA_KXZ 000000018006855c f i ArrayNodeImpl.obj
 0001:00067578       ??_EArrayNodeImpl@AdobeXMPCore_Int@@$2PPPPPPPM@CA@EAAPEAXI@Z 0000000180068578 f i ArrayNodeImpl.obj
 0001:00067588       ?SetIsQualifierNode@NodeImpl@AdobeXMPCore_Int@@$R4KA@DE@PPPPPPPM@PA@EAAX_N@Z 0000000180068588 f i ArrayNodeImpl.obj
 0001:000675a4       ?hasContent@INode_I@AdobeXMPCore_Int@@$R2EA@CA@PPPPPPPM@DI@EBAKAEAPEBVIError_v1@AdobeXMPCommon@@@Z 00000001800685a4 f i ArrayNodeImpl.obj
 0001:000675c0       ?getIndex@INode_I@AdobeXMPCore_Int@@$R2EA@CA@PPPPPPPM@DI@EBA_KAEAPEBVIError_v1@AdobeXMPCommon@@@Z 00000001800685c0 f i ArrayNodeImpl.obj
 0001:000675dc       ?isThreadSafe@IThreadSafe_I@AdobeXMPCommon_Int@@$R4DA@BM@PPPPPPPM@BA@EBAKXZ 00000001800685dc f i ArrayNodeImpl.obj
 0001:000675f8       ?GetParentNodeType@NodeImpl@AdobeXMPCore_Int@@$4PPPPPPPM@A@EBA?AW4eNodeType@INode_v1@AdobeXMPCore@@XZ 00000001800685f8 f i ArrayNodeImpl.obj
 0001:00067604       ??_EThreadSafeImpl@AdobeXMPCore_Int@@$2PPPPPPPM@A@EAAPEAXI@Z 0000000180068604 f i ArrayNodeImpl.obj
 0001:00067610       ?GetInterfacePointer@IArrayNode_I@AdobeXMPCore_Int@@$4PPPPPPPM@A@EAAPEAX_KK@Z 0000000180068610 f i ArrayNodeImpl.obj
 0001:0006761c       ?getNameSpace@INode_I@AdobeXMPCore_Int@@$R2DA@CA@PPPPPPPM@DI@EBAPEBVIUTF8String_v1@AdobeXMPCommon@@AEAPEBVIError_v1@4@@Z 000000018006861c f i ArrayNodeImpl.obj
 0001:00067638       ?setName@INode_I@AdobeXMPCore_Int@@$2PPPPPPPM@A@EAAXPEBD_KAEAPEBVIError_v1@AdobeXMPCommon@@@Z 0000000180068638 f i ArrayNodeImpl.obj
 0001:00067644       ?GetISharedObject_I@ISharedObject_I@AdobeXMPCommon_Int@@WPPPPPPLI@EAAPEAV12@XZ 0000000180068644 f i ArrayNodeImpl.obj
 0001:00067644       ?GetIThreadSafe_I@IThreadSafe_I@AdobeXMPCommon_Int@@WPPPPPPLI@EAAPEAV12@XZ 0000000180068644 f i NameSpacePrefixMapImpl.obj
 0001:00067650       ?RemoveQualifier@NodeImpl@AdobeXMPCore_Int@@$R4NI@DM@PPPPPPPM@PA@EAA?AV?$shared_ptr@VINode_v1@AdobeXMPCore@@@std@@AEBV?$shared_ptr@$$CBVIUTF8String_v1@AdobeXMPCommon@@@4@0@Z 0000000180068650 f i ArrayNodeImpl.obj
 0001:0006766c       ?getNodeAtIndex@IArrayNode_I@AdobeXMPCore_Int@@$R2JA@CM@PPPPPPPM@GI@EAAPEAVINode_v1@AdobeXMPCore@@_KAEAPEBVIError_v1@AdobeXMPCommon@@@Z 000000018006866c f i ArrayNodeImpl.obj
 0001:00067688       ?GetNodeTypeAtPath@CompositeNodeImpl@AdobeXMPCore_Int@@$R4HI@EA@PPPPPPPM@GA@EBA?AW4eNodeType@INode_v1@AdobeXMPCore@@AEBV?$shared_ptr@$$CBVIPath_v1@AdobeXMPCore@@@std@@@Z 0000000180068688 f i ArrayNodeImpl.obj
 0001:000676a4       ?GetINode_I@INode_I@AdobeXMPCore_Int@@$R4GA@CE@PPPPPPPM@DI@EAAPEAV12@XZ 00000001800686a4 f i ArrayNodeImpl.obj
 0001:000676c0       ?ConvertToArrayNode@ArrayNodeImpl@AdobeXMPCore_Int@@$4PPPPPPPM@A@EAA?AV?$shared_ptr@VIArrayNode_v1@AdobeXMPCore@@@std@@XZ 00000001800686c0 f i ArrayNodeImpl.obj
 0001:000676cc       ?GetQualifierNodeType@NodeImpl@AdobeXMPCore_Int@@$R4GA@DM@PPPPPPPM@KI@EBA?AW4eNodeType@INode_v1@AdobeXMPCore@@PEBD_K01@Z 00000001800686cc f i ArrayNodeImpl.obj
 0001:000676e8       ?clear@INode_I@AdobeXMPCore_Int@@$R2KA@BM@PPPPPPPM@DI@EAAXKKAEAPEBVIError_v1@AdobeXMPCommon@@@Z 00000001800686e8 f i ArrayNodeImpl.obj
 0001:00067704       ?getQualifierNodeType@INode_I@AdobeXMPCore_Int@@$R2DI@CE@PPPPPPPM@DI@EBAKPEBD_K01AEAPEBVIError_v1@AdobeXMPCommon@@@Z 0000000180068704 f i ArrayNodeImpl.obj
 0001:0006771c       ?qualifiersIterator@INode_I@AdobeXMPCore_Int@@$R2DI@CE@PPPPPPPM@DI@EAAPEAVINodeIterator_v1@AdobeXMPCore@@AEAPEBVIError_v1@AdobeXMPCommon@@@Z 000000018006871c f i ArrayNodeImpl.obj
 0001:00067734       ?GetIThreadSafe_I@IThreadSafe_I@AdobeXMPCommon_Int@@WPPPPPPJA@EAAPEAV12@XZ 0000000180068734 f i ArrayNodeImpl.obj
 0001:00067740       ?clone@INode_I@AdobeXMPCore_Int@@$R2DA@CA@PPPPPPPM@DI@EBAPEAVINode_v1@AdobeXMPCore@@KKAEAPEBVIError_v1@AdobeXMPCommon@@@Z 0000000180068740 f i ArrayNodeImpl.obj
 0001:0006775c       ?hasContent@INode_I@AdobeXMPCore_Int@@$2PPPPPPPM@A@EBAKAEAPEBVIError_v1@AdobeXMPCommon@@@Z 000000018006875c f i ArrayNodeImpl.obj
 0001:00067768       ?getIndex@INode_I@AdobeXMPCore_Int@@$2PPPPPPPM@A@EBA_KAEAPEBVIError_v1@AdobeXMPCommon@@@Z 0000000180068768 f i ArrayNodeImpl.obj
 0001:00067774       ??_E?$TNodeIteratorImpl@V?$_Vector_iterator@V?$_Vector_val@U?$_Simple_types@V?$shared_ptr@VINode_v1@AdobeXMPCore@@@std@@@std@@@std@@@std@@@AdobeXMPCore_Int@@$2PPPPPPPM@A@EAAPEAXI@Z 0000000180068774 f i ArrayNodeImpl.obj
 0001:00067780       ?SetIsQualifierNode@NodeImpl@AdobeXMPCore_Int@@$R4NI@DM@PPPPPPPM@PA@EAAX_N@Z 0000000180068780 f i ArrayNodeImpl.obj
 0001:0006779c       ?getChildNodeType@IArrayNode_I@AdobeXMPCore_Int@@$R2JA@CM@PPPPPPPM@GI@EBAKAEAPEBVIError_v1@AdobeXMPCommon@@@Z 000000018006879c f i ArrayNodeImpl.obj
 0001:000677b8       ?IsArrayItem@NodeImpl@AdobeXMPCore_Int@@$R4GA@DM@PPPPPPPM@KI@EBA_NXZ 00000001800687b8 f i ArrayNodeImpl.obj
 0001:000677d4       ?getInterfacePointer@IArrayNode_I@AdobeXMPCore_Int@@$R2EA@CM@PPPPPPPM@CA@EAAPEAX_KKAEAPEBVIError_v1@AdobeXMPCommon@@@Z 00000001800687d4 f i ArrayNodeImpl.obj
 0001:000677f0       ?clear@INode_I@AdobeXMPCore_Int@@$R2EA@CA@PPPPPPPM@DI@EAAXKKAEAPEBVIError_v1@AdobeXMPCommon@@@Z 00000001800687f0 f i ArrayNodeImpl.obj
 0001:0006780c       ?HasQualifiers@NodeImpl@AdobeXMPCore_Int@@$R4EA@DE@PPPPPPPM@KI@EBA_NXZ 000000018006880c f i ArrayNodeImpl.obj
 0001:00067828       ?EnableThreadSafety@ThreadSafeImpl@AdobeXMPCore_Int@@$R2DA@DA@PPPPPPPM@CA@EBAXXZ 0000000180068828 f i ArrayNodeImpl.obj
 0001:00067844       ?ChangeParent@NodeImpl@AdobeXMPCore_Int@@$4PPPPPPPM@A@EAAXPEAVINode_v1@AdobeXMPCore@@@Z 0000000180068844 f i ArrayNodeImpl.obj
 0001:00067850       ?Release@NodeImpl@AdobeXMPCore_Int@@$4PPPPPPPM@A@EBAXXZ 0000000180068850 f i ArrayNodeImpl.obj
 0001:0006785c       ??_EINodeIterator_I@AdobeXMPCore_Int@@$2PPPPPPPM@BA@EAAPEAXI@Z 000000018006885c f i ArrayNodeImpl.obj
 0001:0006786c       ?insertNodeAtIndex@IArrayNode_I@AdobeXMPCore_Int@@$2PPPPPPPM@A@EAAXPEAVINode_v1@AdobeXMPCore@@_KAEAPEBVIError_v1@AdobeXMPCommon@@@Z 000000018006886c f i ArrayNodeImpl.obj
 0001:00067878       ?GetActualINode@INode_I@AdobeXMPCore_Int@@$R4DI@CE@PPPPPPPM@DI@EAAPEAVINode_v1@AdobeXMPCore@@XZ 0000000180068878 f i ArrayNodeImpl.obj
 0001:00067890       ?convertToMetadata@INode_I@AdobeXMPCore_Int@@$R2DA@CA@PPPPPPPM@DI@EAAPEAVIMetadata_v1@AdobeXMPCore@@AEAPEBVIError_v1@AdobeXMPCommon@@@Z 0000000180068890 f i ArrayNodeImpl.obj
 0001:000678ac       ?RemoveNodeAtIndex@ArrayNodeImpl@AdobeXMPCore_Int@@$4PPPPPPPM@A@EAA?AV?$shared_ptr@VINode_v1@AdobeXMPCore@@@std@@_K@Z 00000001800688ac f i ArrayNodeImpl.obj
 0001:000678b8       ?ReplaceNodeAtIndex@ArrayNodeImpl@AdobeXMPCore_Int@@$4PPPPPPPM@A@EAA?AV?$shared_ptr@VINode_v1@AdobeXMPCore@@@std@@AEBV34@_K@Z 00000001800688b8 f i ArrayNodeImpl.obj
 0001:000678c4       ?GetChildNodeType@ArrayNodeImpl@AdobeXMPCore_Int@@$4PPPPPPPM@A@EBA?AW4eNodeType@INode_v1@AdobeXMPCore@@XZ 00000001800688c4 f i ArrayNodeImpl.obj
 0001:000678d0       ?GetActualICompositeNode@ICompositeNode_I@AdobeXMPCore_Int@@$R4HI@CI@PPPPPPPM@EI@EAAPEAVICompositeNode_v1@AdobeXMPCore@@XZ 00000001800688d0 f i ArrayNodeImpl.obj
 0001:000678ec       ?isEmpty@INode_I@AdobeXMPCore_Int@@$R2GA@CE@PPPPPPPM@DI@EBAKAEAPEBVIError_v1@AdobeXMPCommon@@@Z 00000001800688ec f i ArrayNodeImpl.obj
 0001:00067908       ?getParent@INode_I@AdobeXMPCore_Int@@$R2GA@CE@PPPPPPPM@DI@EAAPEAVINode_v1@AdobeXMPCore@@AEAPEBVIError_v1@AdobeXMPCommon@@@Z 0000000180068908 f i ArrayNodeImpl.obj
 0001:00067924       ?GetNodeAtPath@CompositeNodeImpl@AdobeXMPCore_Int@@$4PPPPPPPM@A@EAA?AV?$shared_ptr@VINode_v1@AdobeXMPCore@@@std@@AEBV?$shared_ptr@$$CBVIPath_v1@AdobeXMPCore@@@4@@Z 0000000180068924 f i ArrayNodeImpl.obj
 0001:00067930       ?GetQualifier@NodeImpl@AdobeXMPCore_Int@@$4PPPPPPPM@A@EAA?AV?$shared_ptr@VINode_v1@AdobeXMPCore@@@std@@AEBV?$shared_ptr@$$CBVIUTF8String_v1@AdobeXMPCommon@@@4@0@Z 0000000180068930 f i ArrayNodeImpl.obj
 0001:0006793c       ?GetQualifier@NodeImpl@AdobeXMPCore_Int@@$4PPPPPPPM@A@EAA?AV?$shared_ptr@VINode_v1@AdobeXMPCore@@@std@@PEBD_K01@Z 000000018006893c f i ArrayNodeImpl.obj
 0001:00067948       ?getNode@INodeIterator_I@AdobeXMPCore_Int@@$2PPPPPPPM@A@EAAPEAVINode_v1@AdobeXMPCore@@AEAPEBVIError_v1@AdobeXMPCommon@@@Z 0000000180068948 f i ArrayNodeImpl.obj
 0001:00067954       ?GetActualIArrayNode@IArrayNode_I@AdobeXMPCore_Int@@$4PPPPPPPM@A@EAAPEAVIArrayNode_v1@AdobeXMPCore@@XZ 0000000180068954 f i ArrayNodeImpl.obj
 0001:00067960       ?replaceNodeAtPath@ICompositeNode_I@AdobeXMPCore_Int@@$R2FA@CI@PPPPPPPM@EI@EAAPEAVINode_v1@AdobeXMPCore@@PEAV34@PEBVIPath_v1@4@AEAPEBVIError_v1@AdobeXMPCommon@@@Z 0000000180068960 f i ArrayNodeImpl.obj
 0001:0006797c       ?iterator@ICompositeNode_I@AdobeXMPCore_Int@@$2PPPPPPPM@A@EAAPEAVINodeIterator_v1@AdobeXMPCore@@AEAPEBVIError_v1@AdobeXMPCommon@@@Z 000000018006897c f i ArrayNodeImpl.obj
 0001:00067988       ?convertToSimpleNode@INode_I@AdobeXMPCore_Int@@$R2DA@CA@PPPPPPPM@DI@EAAPEAVISimpleNode_v1@AdobeXMPCore@@AEAPEBVIError_v1@AdobeXMPCommon@@@Z 0000000180068988 f i ArrayNodeImpl.obj
 0001:000679a4       ?clear@INode_I@AdobeXMPCore_Int@@$2PPPPPPPM@A@EAAXKKAEAPEBVIError_v1@AdobeXMPCommon@@@Z 00000001800689a4 f i ArrayNodeImpl.obj
 0001:000679b0       ?removeNodeAtPath@ICompositeNode_I@AdobeXMPCore_Int@@$R2HI@CI@PPPPPPPM@EI@EAAPEAVINode_v1@AdobeXMPCore@@PEBVIPath_v1@4@AEAPEBVIError_v1@AdobeXMPCommon@@@Z 00000001800689b0 f i ArrayNodeImpl.obj
 0001:000679cc       ?AppendNode@ArrayNodeImpl@AdobeXMPCore_Int@@$4PPPPPPPM@A@EAAXAEBV?$shared_ptr@VINode_v1@AdobeXMPCore@@@std@@@Z 00000001800689cc f i ArrayNodeImpl.obj
 0001:000679d8       ?setName@INode_I@AdobeXMPCore_Int@@$R2GA@CE@PPPPPPPM@DI@EAAXPEBD_KAEAPEBVIError_v1@AdobeXMPCommon@@@Z 00000001800689d8 f i ArrayNodeImpl.obj
 0001:000679f4       ?DisableThreadSafety@ThreadSafeImpl@AdobeXMPCore_Int@@$R2FA@DI@PPPPPPPM@CA@EBAXXZ 00000001800689f4 f i ArrayNodeImpl.obj
 0001:00067a10       ?SetQualifiers@NodeImpl@AdobeXMPCore_Int@@$4PPPPPPPM@A@EAAXAEBV?$shared_ptr@VIStructureNode_v1@AdobeXMPCore@@@std@@@Z 0000000180068a10 f i ArrayNodeImpl.obj
 0001:00067a1c       ?getQualifierNodeType@INode_I@AdobeXMPCore_Int@@$R2KA@BM@PPPPPPPM@DI@EBAKPEBD_K01AEAPEBVIError_v1@AdobeXMPCommon@@@Z 0000000180068a1c f i ArrayNodeImpl.obj
 0001:00067a38       ?qualifiersIterator@INode_I@AdobeXMPCore_Int@@$R2KA@BM@PPPPPPPM@DI@EAAPEAVINodeIterator_v1@AdobeXMPCore@@AEAPEBVIError_v1@AdobeXMPCommon@@@Z 0000000180068a38 f i ArrayNodeImpl.obj
 0001:00067a54       ?GetName@NodeImpl@AdobeXMPCore_Int@@$4PPPPPPPM@A@EBA?AV?$shared_ptr@$$CBVIUTF8String_v1@AdobeXMPCommon@@@std@@XZ 0000000180068a54 f i ArrayNodeImpl.obj
 0001:00067a60       ?GetParent@NodeImpl@AdobeXMPCore_Int@@$4PPPPPPPM@A@EAA?AV?$shared_ptr@VINode_v1@AdobeXMPCore@@@std@@XZ 0000000180068a60 f i ArrayNodeImpl.obj
 0001:00067a6c       ?GetISharedObject_I@ISharedObject_I@AdobeXMPCommon_Int@@$R4HA@BE@PPPPPPPM@BA@EAAPEAV12@XZ 0000000180068a6c f i ArrayNodeImpl.obj
 0001:00067a88       ?ShareMutex@ThreadSafeImpl@AdobeXMPCore_Int@@$2PPPPPPPM@A@EAAXAEBV?$shared_ptr@VISharedMutex@AdobeXMPCore_Int@@@std@@@Z 0000000180068a88 f i ArrayNodeImpl.obj
 0001:00067a94       ?AcquireInternal@SharedObjectImpl@AdobeXMPCore_Int@@$R4FI@BI@PPPPPPPM@DA@EBAXXZ 0000000180068a94 f i ArrayNodeImpl.obj
 0001:00067ab0       ?getNode@INodeIterator_I@AdobeXMPCore_Int@@$R2EA@BE@PPPPPPPM@CI@EAAPEAVINode_v1@AdobeXMPCore@@AEAPEBVIError_v1@AdobeXMPCommon@@@Z 0000000180068ab0 f i ArrayNodeImpl.obj
 0001:00067acc       ?GetNode@?$TNodeIteratorImpl@V?$_Vector_iterator@V?$_Vector_val@U?$_Simple_types@V?$shared_ptr@VINode_v1@AdobeXMPCore@@@std@@@std@@@std@@@std@@@AdobeXMPCore_Int@@$4PPPPPPPM@A@EAA?AV?$shared_ptr@VINode_v1@AdobeXMPCore@@@std@@XZ 0000000180068acc f i ArrayNodeImpl.obj
 0001:00067ad8       ?hasContent@INode_I@AdobeXMPCore_Int@@$R2GA@CE@PPPPPPPM@DI@EBAKAEAPEBVIError_v1@AdobeXMPCommon@@@Z 0000000180068ad8 f i ArrayNodeImpl.obj
 0001:00067af4       ?getIndex@INode_I@AdobeXMPCore_Int@@$R2GA@CE@PPPPPPPM@DI@EBA_KAEAPEBVIError_v1@AdobeXMPCommon@@@Z 0000000180068af4 f i ArrayNodeImpl.obj
 0001:00067b10       ?isThreadSafe@IThreadSafe_I@AdobeXMPCommon_Int@@$R4FA@CA@PPPPPPPM@BA@EBAKXZ 0000000180068b10 f i ArrayNodeImpl.obj
 0001:00067b2c       ?RemoveNodeAtPath@CompositeNodeImpl@AdobeXMPCore_Int@@$4PPPPPPPM@A@EAA?AV?$shared_ptr@VINode_v1@AdobeXMPCore@@@std@@AEBV?$shared_ptr@$$CBVIPath_v1@AdobeXMPCore@@@4@@Z 0000000180068b2c f i ArrayNodeImpl.obj
 0001:00067b38       ?getQualifierNodeType@INode_I@AdobeXMPCore_Int@@$R2EA@CA@PPPPPPPM@DI@EBAKPEBD_K01AEAPEBVIError_v1@AdobeXMPCommon@@@Z 0000000180068b38 f i ArrayNodeImpl.obj
 0001:00067b54       ?qualifiersIterator@INode_I@AdobeXMPCore_Int@@$R2EA@CA@PPPPPPPM@DI@EAAPEAVINodeIterator_v1@AdobeXMPCore@@AEAPEBVIError_v1@AdobeXMPCommon@@@Z 0000000180068b54 f i ArrayNodeImpl.obj
 0001:00067b70       ?GetISharedObject_I@ISharedObject_I@AdobeXMPCommon_Int@@$R4BA@BI@PPPPPPPM@BA@EAAPEAV12@XZ 0000000180068b70 f i ArrayNodeImpl.obj
 0001:00067b88       ?ValidateNameOrNameSpaceChangeForAChild@NodeImpl@AdobeXMPCore_Int@@$4PPPPPPPM@A@EAA_NAEBV?$shared_ptr@$$CBVIUTF8String_v1@AdobeXMPCommon@@@std@@000@Z 0000000180068b88 f i ArrayNodeImpl.obj
 0001:00067b94       ?GetActualINode@INode_I@AdobeXMPCore_Int@@$R4KA@BM@PPPPPPPM@DI@EAAPEAVINode_v1@AdobeXMPCore@@XZ 0000000180068b94 f i ArrayNodeImpl.obj
 0001:00067bb0       ?HasChanged@NodeImpl@AdobeXMPCore_Int@@$4PPPPPPPM@A@EBA_NXZ 0000000180068bb0 f i ArrayNodeImpl.obj
 0001:00067bbc       ?QualifiersIterator@NodeImpl@AdobeXMPCore_Int@@$4PPPPPPPM@A@EAA?AV?$shared_ptr@VINodeIterator_v1@AdobeXMPCore@@@std@@XZ 0000000180068bbc f i ArrayNodeImpl.obj
 0001:00067bc8       ?Acquire@NodeImpl@AdobeXMPCore_Int@@$4PPPPPPPM@A@EBAXXZ 0000000180068bc8 f i ArrayNodeImpl.obj
 0001:00067bd4       ?GetISharedObject_I@ISharedObject_I@AdobeXMPCommon_Int@@$R4CA@7PPPPPPPM@BA@EAAPEAV12@XZ 0000000180068bd4 f i ArrayNodeImpl.obj
 0001:00067bd4       ?GetIThreadSafe_I@IThreadSafe_I@AdobeXMPCommon_Int@@$R4CA@7PPPPPPPM@BA@EAAPEAV12@XZ 0000000180068bd4 f i ArrayNodeImpl.obj
 0001:00067bf0       ?convertToStructureNode@INode_I@AdobeXMPCore_Int@@$R2DI@CE@PPPPPPPM@DI@EAAPEAVIStructureNode_v1@AdobeXMPCore@@AEAPEBVIError_v1@AdobeXMPCommon@@@Z 0000000180068bf0 f i ArrayNodeImpl.obj
 0001:00067c08       ?hasChanged@INode_I@AdobeXMPCore_Int@@$R2DI@CE@PPPPPPPM@DI@EBAKAEAPEBVIError_v1@AdobeXMPCommon@@@Z 0000000180068c08 f i ArrayNodeImpl.obj
 0001:00067c20       ??_EIArrayNode_I@AdobeXMPCore_Int@@$2PPPPPPPM@BA@EAAPEAXI@Z 0000000180068c20 f i ArrayNodeImpl.obj
 0001:00067c30       ?convertToArrayNode@INode_I@AdobeXMPCore_Int@@$R2DA@CA@PPPPPPPM@DI@EAAPEAVIArrayNode_v1@AdobeXMPCore@@AEAPEBVIError_v1@AdobeXMPCommon@@@Z 0000000180068c30 f i ArrayNodeImpl.obj
 0001:00067c4c       ?removeQualifier@INode_I@AdobeXMPCore_Int@@$R2DA@CA@PPPPPPPM@DI@EAAPEAVINode_v1@AdobeXMPCore@@PEBD_K01AEAPEBVIError_v1@AdobeXMPCommon@@@Z 0000000180068c4c f i ArrayNodeImpl.obj
 0001:00067c68       ?isThreadSafe@IThreadSafe_I@AdobeXMPCommon_Int@@WPPPPPPKI@EBAKXZ 0000000180068c68 f i ArrayNodeImpl.obj
 0001:00067c74       ?Acquire@SharedObjectImpl@AdobeXMPCore_Int@@$R4CA@BI@PPPPPPPM@CA@EBAXXZ 0000000180068c74 f i ArrayNodeImpl.obj
 0001:00067c8c       ?resetChangesForChildren@ArrayNodeImpl@AdobeXMPCore_Int@@$2PPPPPPPM@A@EBAXXZ 0000000180068c8c f i ArrayNodeImpl.obj
 0001:00067c98       ?GetNodeAtPath@CompositeNodeImpl@AdobeXMPCore_Int@@$R4HI@EA@PPPPPPPM@GA@EAA?AV?$shared_ptr@VINode_v1@AdobeXMPCore@@@std@@AEBV?$shared_ptr@$$CBVIPath_v1@AdobeXMPCore@@@4@@Z 0000000180068c98 f i ArrayNodeImpl.obj
 0001:00067cb4       ?HasContent@ArrayNodeImpl@AdobeXMPCore_Int@@$4PPPPPPPM@A@EBA_NXZ 0000000180068cb4 f i ArrayNodeImpl.obj
 0001:00067cc0       ?AcquireInternal@NodeImpl@AdobeXMPCore_Int@@$R4HA@DE@PPPPPPPM@MA@EBAXXZ 0000000180068cc0 f i ArrayNodeImpl.obj
 0001:00067cdc       ?GetActualINode@INode_I@AdobeXMPCore_Int@@$R4EA@CA@PPPPPPPM@DI@EAAPEAVINode_v1@AdobeXMPCore@@XZ 0000000180068cdc f i ArrayNodeImpl.obj
 0001:00067cf8       ?GetIndex@NodeImpl@AdobeXMPCore_Int@@$R4EA@DE@PPPPPPPM@KI@EBA_KXZ 0000000180068cf8 f i ArrayNodeImpl.obj
 0001:00067d14       ?Release@NodeImpl@AdobeXMPCore_Int@@$R4BA@DE@PPPPPPPM@HI@EBAXXZ 0000000180068d14 f i ArrayNodeImpl.obj
 0001:00067d30       ?SetNameSpace@NodeImpl@AdobeXMPCore_Int@@$4PPPPPPPM@A@EAAXPEBD_K@Z 0000000180068d30 f i ArrayNodeImpl.obj
 0001:00067d3c       ??_ENodeImpl@AdobeXMPCore_Int@@$2PPPPPPPM@A@EAAPEAXI@Z 0000000180068d3c f i ArrayNodeImpl.obj
 0001:00067d48       ?getNodeAtPath@ICompositeNode_I@AdobeXMPCore_Int@@$R2FA@CI@PPPPPPPM@EI@EAAPEAVINode_v1@AdobeXMPCore@@PEBVIPath_v1@4@AEAPEBVIError_v1@AdobeXMPCommon@@@Z 0000000180068d48 f i ArrayNodeImpl.obj
 0001:00067d64       ?getQualifier@INode_I@AdobeXMPCore_Int@@$R2DA@CA@PPPPPPPM@DI@EAAPEAVINode_v1@AdobeXMPCore@@PEBD_K01AEAPEBVIError_v1@AdobeXMPCommon@@@Z 0000000180068d64 f i ArrayNodeImpl.obj
 0001:00067d80       ?getName@INode_I@AdobeXMPCore_Int@@$R2DA@CA@PPPPPPPM@DI@EBAPEBVIUTF8String_v1@AdobeXMPCommon@@AEAPEBVIError_v1@4@@Z 0000000180068d80 f i ArrayNodeImpl.obj
 0001:00067d9c       ?getQualifierNodeType@INode_I@AdobeXMPCore_Int@@$2PPPPPPPM@A@EBAKPEBD_K01AEAPEBVIError_v1@AdobeXMPCommon@@@Z 0000000180068d9c f i ArrayNodeImpl.obj
 0001:00067da8       ?qualifiersIterator@INode_I@AdobeXMPCore_Int@@$2PPPPPPPM@A@EAAPEAVINodeIterator_v1@AdobeXMPCore@@AEAPEBVIError_v1@AdobeXMPCommon@@@Z 0000000180068da8 f i ArrayNodeImpl.obj
 0001:00067db4       ?clear@INode_I@AdobeXMPCore_Int@@$R2GA@CE@PPPPPPPM@DI@EAAXKKAEAPEBVIError_v1@AdobeXMPCommon@@@Z 0000000180068db4 f i ArrayNodeImpl.obj
 0001:00067dd0       ?InsertQualifier@NodeImpl@AdobeXMPCore_Int@@$R4GA@DM@PPPPPPPM@KI@EAAXAEBV?$shared_ptr@VINode_v1@AdobeXMPCore@@@std@@@Z 0000000180068dd0 f i ArrayNodeImpl.obj
 0001:00067dec       ?GetNodeType@ArrayNodeImpl@AdobeXMPCore_Int@@$4PPPPPPPM@A@EBA?AW4eNodeType@INode_v1@AdobeXMPCore@@XZ 0000000180068dec f i ArrayNodeImpl.obj
 0001:00067df8       ?replaceNodeAtPath@ICompositeNode_I@AdobeXMPCore_Int@@$R2FI@CE@PPPPPPPM@EI@EAAPEAVINode_v1@AdobeXMPCore@@PEAV34@PEBVIPath_v1@4@AEAPEBVIError_v1@AdobeXMPCommon@@@Z 0000000180068df8 f i ArrayNodeImpl.obj
 0001:00067e14       ?GetParentNodeType@NodeImpl@AdobeXMPCore_Int@@$R4EA@DE@PPPPPPPM@KI@EBA?AW4eNodeType@INode_v1@AdobeXMPCore@@XZ 0000000180068e14 f i ArrayNodeImpl.obj
 0001:00067e30       ??_ENodeImpl@AdobeXMPCore_Int@@$2PPPPPPPM@CA@EAAPEAXI@Z 0000000180068e30 f i ArrayNodeImpl.obj
 0001:00067e40       ?insertNodeAtPath@ICompositeNode_I@AdobeXMPCore_Int@@$R2FA@CI@PPPPPPPM@EI@EAAXPEAVINode_v1@AdobeXMPCore@@PEBVIPath_v1@4@AEAPEBVIError_v1@AdobeXMPCommon@@@Z 0000000180068e40 f i ArrayNodeImpl.obj
 0001:00067e5c       ?getNodeTypeAtPath@ICompositeNode_I@AdobeXMPCore_Int@@$R2FA@CI@PPPPPPPM@EI@EBAKPEBVIPath_v1@AdobeXMPCore@@AEAPEBVIError_v1@AdobeXMPCommon@@@Z 0000000180068e5c f i ArrayNodeImpl.obj
 0001:00067e78       ?getPath@INode_I@AdobeXMPCore_Int@@$R2DI@CE@PPPPPPPM@DI@EBAPEAVIPath_v1@AdobeXMPCore@@AEAPEBVIError_v1@AdobeXMPCommon@@@Z 0000000180068e78 f i ArrayNodeImpl.obj
 0001:00067e90       ?isArrayItem@INode_I@AdobeXMPCore_Int@@$R2DA@CA@PPPPPPPM@DI@EBAKAEAPEBVIError_v1@AdobeXMPCommon@@@Z 0000000180068e90 f i ArrayNodeImpl.obj
 0001:00067eac       ?GetISharedObject_I@ISharedObject_I@AdobeXMPCommon_Int@@WPPPPPPKA@EAAPEAV12@XZ 0000000180068eac f i ArrayNodeImpl.obj
 0001:00067eb8       ?GetActualINameSpacePrefixMap@INameSpacePrefixMap_I@AdobeXMPCore_Int@@$4PPPPPPPM@A@EAAPEAVINameSpacePrefixMap_v1@AdobeXMPCore@@XZ 0000000180068eb8 f i NameSpacePrefixMapImpl.obj
 0001:00067eb8       ?GetActualINode@INode_I@AdobeXMPCore_Int@@$4PPPPPPPM@A@EAAPEAVINode_v1@AdobeXMPCore@@XZ 0000000180068eb8 f i ArrayNodeImpl.obj
 0001:00067ec4       ?AcquireInternal@NodeImpl@AdobeXMPCore_Int@@$R4KI@DM@PPPPPPPM@MA@EBAXXZ 0000000180068ec4 f i ArrayNodeImpl.obj
 0001:00067ee0       ?replaceNodeAtIndex@IArrayNode_I@AdobeXMPCore_Int@@$R2JA@CM@PPPPPPPM@GI@EAAPEAVINode_v1@AdobeXMPCore@@PEAV34@_KAEAPEBVIError_v1@AdobeXMPCommon@@@Z 0000000180068ee0 f i ArrayNodeImpl.obj
 0001:00067efc       ?RemoveNodeAtPath@CompositeNodeImpl@AdobeXMPCore_Int@@$R4HI@EA@PPPPPPPM@GA@EAA?AV?$shared_ptr@VINode_v1@AdobeXMPCore@@@std@@AEBV?$shared_ptr@$$CBVIPath_v1@AdobeXMPCore@@@4@@Z 0000000180068efc f i ArrayNodeImpl.obj
 0001:00067f18       ?UnRegisterChange@NodeImpl@AdobeXMPCore_Int@@$4PPPPPPPM@A@EAAXXZ 0000000180068f18 f i ArrayNodeImpl.obj
 0001:00067f24       ?convertToStructureNode@INode_I@AdobeXMPCore_Int@@$R2KA@BM@PPPPPPPM@DI@EAAPEAVIStructureNode_v1@AdobeXMPCore@@AEAPEBVIError_v1@AdobeXMPCommon@@@Z 0000000180068f24 f i ArrayNodeImpl.obj
 0001:00067f40       ?hasChanged@INode_I@AdobeXMPCore_Int@@$R2KA@BM@PPPPPPPM@DI@EBAKAEAPEBVIError_v1@AdobeXMPCommon@@@Z 0000000180068f40 f i ArrayNodeImpl.obj
 0001:00067f5c       ?ReplaceQualifier@NodeImpl@AdobeXMPCore_Int@@$4PPPPPPPM@A@EAA?AV?$shared_ptr@VINode_v1@AdobeXMPCore@@@std@@AEBV34@@Z 0000000180068f5c f i ArrayNodeImpl.obj
 0001:00067f68       ?hasQualifiers@INode_I@AdobeXMPCore_Int@@$R2DI@CE@PPPPPPPM@DI@EBAKAEAPEBVIError_v1@AdobeXMPCommon@@@Z 0000000180068f68 f i ArrayNodeImpl.obj
 0001:00067f80       ?isQualifierNode@INode_I@AdobeXMPCore_Int@@$R2DI@CE@PPPPPPPM@DI@EBAKAEAPEBVIError_v1@AdobeXMPCommon@@@Z 0000000180068f80 f i ArrayNodeImpl.obj
 0001:00067f98       ?getParentNodeType@INode_I@AdobeXMPCore_Int@@$R2DI@CE@PPPPPPPM@DI@EBAKAEAPEBVIError_v1@AdobeXMPCommon@@@Z 0000000180068f98 f i ArrayNodeImpl.obj
 0001:00067fb0       ?GetICompositeNode_I@ICompositeNode_I@AdobeXMPCore_Int@@$4PPPPPPPM@A@EAAPEAV12@XZ 0000000180068fb0 f i ArrayNodeImpl.obj
 0001:00067fb0       ?GetICoreConfigurationManager_I@ICoreConfigurationManager_I@AdobeXMPCore_Int@@$4PPPPPPPM@A@EAAPEAV12@XZ 0000000180068fb0 f i CoreConfigurationManagerImpl.obj
 0001:00067fb0       ?GetIDOMParser_I@IDOMParser_I@AdobeXMPCore_Int@@$4PPPPPPPM@A@EAAPEAV12@XZ 0000000180068fb0 f i ClientDOMParserWrapperImpl.obj
 0001:00067fb0       ?GetIDOMSerializer_I@IDOMSerializer_I@AdobeXMPCore_Int@@$4PPPPPPPM@A@EAAPEAV12@XZ 0000000180068fb0 f i ClientDOMSerializerWrapperImpl.obj
 0001:00067fb0       ?GetISimpleNode_I@ISimpleNode_I@AdobeXMPCore_Int@@$4PPPPPPPM@A@EAAPEAV12@XZ 0000000180068fb0 f i SimpleNodeImpl.obj
 0001:00067fbc       ??_EICompositeNode_v1@AdobeXMPCore@@O7EAAPEAXI@Z 0000000180068fbc f i ArrayNodeImpl.obj
 0001:00067fc8       ?GetNodeType@?$TNodeIteratorImpl@V?$_Vector_iterator@V?$_Vector_val@U?$_Simple_types@V?$shared_ptr@VINode_v1@AdobeXMPCore@@@std@@@std@@@std@@@std@@@AdobeXMPCore_Int@@$4PPPPPPPM@A@EBA?AW4eNodeType@INode_v1@AdobeXMPCore@@XZ 0000000180068fc8 f i ArrayNodeImpl.obj
 0001:00067fd4       ?Iterator@ArrayNodeImpl@AdobeXMPCore_Int@@$4PPPPPPPM@A@EAA?AV?$shared_ptr@VINodeIterator_v1@AdobeXMPCore@@@std@@XZ 0000000180068fd4 f i ArrayNodeImpl.obj
 0001:00067fe0       ?convertToStructureNode@INode_I@AdobeXMPCore_Int@@$R2EA@CA@PPPPPPPM@DI@EAAPEAVIStructureNode_v1@AdobeXMPCore@@AEAPEBVIError_v1@AdobeXMPCommon@@@Z 0000000180068fe0 f i ArrayNodeImpl.obj
 0001:00067ffc       ?hasChanged@INode_I@AdobeXMPCore_Int@@$R2EA@CA@PPPPPPPM@DI@EBAKAEAPEBVIError_v1@AdobeXMPCommon@@@Z 0000000180068ffc f i ArrayNodeImpl.obj
 0001:00068018       ?Acquire@NodeImpl@AdobeXMPCore_Int@@$R4BA@DE@PPPPPPPM@HI@EBAXXZ 0000000180069018 f i ArrayNodeImpl.obj
 0001:00068034       ?RegisterChange@NodeImpl@AdobeXMPCore_Int@@$4PPPPPPPM@A@EAAXXZ 0000000180069034 f i ArrayNodeImpl.obj
 0001:00068040       ?SetIndex@NodeImpl@AdobeXMPCore_Int@@$4PPPPPPPM@A@EAAX_K@Z 0000000180069040 f i ArrayNodeImpl.obj
 0001:0006804c       ?Clear@NodeImpl@AdobeXMPCore_Int@@$4PPPPPPPM@A@EAAX_N0@Z 000000018006904c f i ArrayNodeImpl.obj
 0001:00068058       ?IsQualifierNode@NodeImpl@AdobeXMPCore_Int@@$4PPPPPPPM@A@EBA_NXZ 0000000180069058 f i ArrayNodeImpl.obj
 0001:00068064       ?Acquire@SharedObjectImpl@AdobeXMPCore_Int@@$4PPPPPPPM@A@EBAXXZ 0000000180069064 f i ArrayNodeImpl.obj
 0001:00068070       ?getArrayForm@IArrayNode_I@AdobeXMPCore_Int@@$2PPPPPPPM@A@EBAKAEAPEBVIError_v1@AdobeXMPCommon@@@Z 0000000180069070 f i ArrayNodeImpl.obj
 0001:0006807c       ?GetInterfacePointer@INode_I@AdobeXMPCore_Int@@$4PPPPPPPM@A@EAAPEAX_KK@Z 000000018006907c f i ArrayNodeImpl.obj
 0001:00068088       ?getQualifierNodeType@INode_I@AdobeXMPCore_Int@@$R2GA@CE@PPPPPPPM@DI@EBAKPEBD_K01AEAPEBVIError_v1@AdobeXMPCommon@@@Z 0000000180069088 f i ArrayNodeImpl.obj
 0001:000680a4       ?qualifiersIterator@INode_I@AdobeXMPCore_Int@@$R2GA@CE@PPPPPPPM@DI@EAAPEAVINodeIterator_v1@AdobeXMPCore@@AEAPEBVIError_v1@AdobeXMPCommon@@@Z 00000001800690a4 f i ArrayNodeImpl.obj
 0001:000680c0       ?getNodeAtPath@ICompositeNode_I@AdobeXMPCore_Int@@$R2FI@CE@PPPPPPPM@EI@EAAPEAVINode_v1@AdobeXMPCore@@PEBVIPath_v1@4@AEAPEBVIError_v1@AdobeXMPCommon@@@Z 00000001800690c0 f i ArrayNodeImpl.obj
 0001:000680dc       ?GetQualifier@NodeImpl@AdobeXMPCore_Int@@$R4EA@DE@PPPPPPPM@KI@EAA?AV?$shared_ptr@VINode_v1@AdobeXMPCore@@@std@@PEBD_K01@Z 00000001800690dc f i ArrayNodeImpl.obj
 0001:000680f8       ?RemoveQualifier@NodeImpl@AdobeXMPCore_Int@@$4PPPPPPPM@A@EAA?AV?$shared_ptr@VINode_v1@AdobeXMPCore@@@std@@AEBV?$shared_ptr@$$CBVIUTF8String_v1@AdobeXMPCommon@@@4@0@Z 00000001800690f8 f i ArrayNodeImpl.obj
 0001:00068104       ?getPath@INode_I@AdobeXMPCore_Int@@$R2KA@BM@PPPPPPPM@DI@EBAPEAVIPath_v1@AdobeXMPCore@@AEAPEBVIError_v1@AdobeXMPCommon@@@Z 0000000180069104 f i ArrayNodeImpl.obj
 0001:00068120       ?Clone@NodeImpl@AdobeXMPCore_Int@@$4PPPPPPPM@A@EBA?AV?$shared_ptr@VINode_v1@AdobeXMPCore@@@std@@_N0@Z 0000000180069120 f i ArrayNodeImpl.obj
 0001:0006812c       ?IsEmpty@NodeImpl@AdobeXMPCore_Int@@$4PPPPPPPM@A@EBA_NXZ 000000018006912c f i ArrayNodeImpl.obj
 0001:00068138       ?RemoveQualifier@NodeImpl@AdobeXMPCore_Int@@$4PPPPPPPM@A@EAA?AV?$shared_ptr@VINode_v1@AdobeXMPCore@@@std@@PEBD_K01@Z 0000000180069138 f i ArrayNodeImpl.obj
 0001:00068144       ?GetPath@NodeImpl@AdobeXMPCore_Int@@$4PPPPPPPM@A@EBA?AV?$shared_ptr@VIPath_v1@AdobeXMPCore@@@std@@XZ 0000000180069144 f i ArrayNodeImpl.obj
 0001:00068150       ?GetIArrayNode_I@IArrayNode_I@AdobeXMPCore_Int@@$4PPPPPPPM@A@EAAPEAV12@XZ 0000000180069150 f i ArrayNodeImpl.obj
 0001:00068150       ?GetIStructureNode_I@IStructureNode_I@AdobeXMPCore_Int@@$4PPPPPPPM@A@EAAPEAV12@XZ 0000000180069150 f i MetadataImpl.obj
 0001:0006815c       ?getNodeType@INode_I@AdobeXMPCore_Int@@$R2DI@CE@PPPPPPPM@DI@EBAKAEAPEBVIError_v1@AdobeXMPCommon@@@Z 000000018006915c f i ArrayNodeImpl.obj
 0001:00068174       ?replaceQualifier@INode_I@AdobeXMPCore_Int@@$R2DI@CE@PPPPPPPM@DI@EAAPEAVINode_v1@AdobeXMPCore@@PEAV34@AEAPEBVIError_v1@AdobeXMPCommon@@@Z 0000000180069174 f i ArrayNodeImpl.obj
 0001:0006818c       ?GetISharedObject_I@IArrayNode_I@AdobeXMPCore_Int@@$4PPPPPPPM@A@EAAPEAVISharedObject_I@AdobeXMPCommon_Int@@XZ 000000018006918c f i ArrayNodeImpl.obj
 0001:00068198       ?setNameSpace@INode_I@AdobeXMPCore_Int@@$R2DA@CA@PPPPPPPM@DI@EAAXPEBD_KAEAPEBVIError_v1@AdobeXMPCommon@@@Z 0000000180069198 f i ArrayNodeImpl.obj
 0001:000681b4       ?convertToStructureNode@INode_I@AdobeXMPCore_Int@@$2PPPPPPPM@A@EAAPEAVIStructureNode_v1@AdobeXMPCore@@AEAPEBVIError_v1@AdobeXMPCommon@@@Z 00000001800691b4 f i ArrayNodeImpl.obj
 0001:000681c0       ?hasChanged@INode_I@AdobeXMPCore_Int@@$2PPPPPPPM@A@EBAKAEAPEBVIError_v1@AdobeXMPCommon@@@Z 00000001800691c0 f i ArrayNodeImpl.obj
 0001:000681cc       ?GetActualINode@INode_I@AdobeXMPCore_Int@@$R4GA@CE@PPPPPPPM@DI@EAAPEAVINode_v1@AdobeXMPCore@@XZ 00000001800691cc f i ArrayNodeImpl.obj
 0001:000681e8       ?HasQualifiers@NodeImpl@AdobeXMPCore_Int@@$R4GA@DM@PPPPPPPM@KI@EBA_NXZ 00000001800691e8 f i ArrayNodeImpl.obj
 0001:00068204       ?EnableThreadSafety@ThreadSafeImpl@AdobeXMPCore_Int@@$R2FA@DI@PPPPPPPM@CA@EBAXXZ 0000000180069204 f i ArrayNodeImpl.obj
 0001:00068220       ?insertNodeAtPath@ICompositeNode_I@AdobeXMPCore_Int@@$R2FI@CE@PPPPPPPM@EI@EAAXPEAVINode_v1@AdobeXMPCore@@PEBVIPath_v1@4@AEAPEBVIError_v1@AdobeXMPCommon@@@Z 0000000180069220 f i ArrayNodeImpl.obj
 0001:0006823c       ?getNodeTypeAtPath@ICompositeNode_I@AdobeXMPCore_Int@@$R2FI@CE@PPPPPPPM@EI@EBAKPEBVIPath_v1@AdobeXMPCore@@AEAPEBVIError_v1@AdobeXMPCommon@@@Z 000000018006923c f i ArrayNodeImpl.obj
 0001:00068258       ?InsertNodeAtPath@CompositeNodeImpl@AdobeXMPCore_Int@@$4PPPPPPPM@A@EAAXAEBV?$shared_ptr@VINode_v1@AdobeXMPCore@@@std@@AEBV?$shared_ptr@$$CBVIPath_v1@AdobeXMPCore@@@4@@Z 0000000180069258 f i ArrayNodeImpl.obj
 0001:00068264       ?getPath@INode_I@AdobeXMPCore_Int@@$R2EA@CA@PPPPPPPM@DI@EBAPEAVIPath_v1@AdobeXMPCore@@AEAPEBVIError_v1@AdobeXMPCommon@@@Z 0000000180069264 f i ArrayNodeImpl.obj
 0001:00068280       ?GetName@NodeImpl@AdobeXMPCore_Int@@$R4EA@DE@PPPPPPPM@KI@EBA?AV?$shared_ptr@$$CBVIUTF8String_v1@AdobeXMPCommon@@@std@@XZ 0000000180069280 f i ArrayNodeImpl.obj
 0001:0006829c       ?GetParent@NodeImpl@AdobeXMPCore_Int@@$R4EA@DE@PPPPPPPM@KI@EAA?AV?$shared_ptr@VINode_v1@AdobeXMPCore@@@std@@XZ 000000018006929c f i ArrayNodeImpl.obj
 0001:000682b8       ?SetIsQualifierNode@NodeImpl@AdobeXMPCore_Int@@$4PPPPPPPM@A@EAAX_N@Z 00000001800692b8 f i ArrayNodeImpl.obj
 0001:000682c4       ?hasQualifiers@INode_I@AdobeXMPCore_Int@@$R2KA@BM@PPPPPPPM@DI@EBAKAEAPEBVIError_v1@AdobeXMPCommon@@@Z 00000001800692c4 f i ArrayNodeImpl.obj
 0001:000682e0       ?isQualifierNode@INode_I@AdobeXMPCore_Int@@$R2KA@BM@PPPPPPPM@DI@EBAKAEAPEBVIError_v1@AdobeXMPCommon@@@Z 00000001800692e0 f i ArrayNodeImpl.obj
 0001:000682fc       ?getParentNodeType@INode_I@AdobeXMPCore_Int@@$R2KA@BM@PPPPPPPM@DI@EBAKAEAPEBVIError_v1@AdobeXMPCommon@@@Z 00000001800692fc f i ArrayNodeImpl.obj
 0001:00068318       ?UnShareMutex@ThreadSafeImpl@AdobeXMPCore_Int@@$2PPPPPPPM@A@EAAXXZ 0000000180069318 f i ArrayNodeImpl.obj
 0001:00068324       ?iterator@ICompositeNode_I@AdobeXMPCore_Int@@$R2FA@CI@PPPPPPPM@EI@EAAPEAVINodeIterator_v1@AdobeXMPCore@@AEAPEBVIError_v1@AdobeXMPCommon@@@Z 0000000180069324 f i ArrayNodeImpl.obj
 0001:00068340       ?insertQualifier@INode_I@AdobeXMPCore_Int@@$R2DI@CE@PPPPPPPM@DI@EAAXPEAVINode_v1@AdobeXMPCore@@AEAPEBVIError_v1@AdobeXMPCommon@@@Z 0000000180069340 f i ArrayNodeImpl.obj
 0001:00068358       ?GetINode_I@INode_I@AdobeXMPCore_Int@@$R4DA@CA@PPPPPPPM@DI@EAAPEAV12@XZ 0000000180069358 f i ArrayNodeImpl.obj
 0001:00068374       ?getInterfacePointer@ICompositeNode_I@AdobeXMPCore_Int@@$2PPPPPPPM@A@EAAPEAX_KKAEAPEBVIError_v1@AdobeXMPCommon@@@Z 0000000180069374 f i ArrayNodeImpl.obj
 0001:00068380       ??_EINode_v1@AdobeXMPCore@@O7EAAPEAXI@Z 0000000180069380 f i ArrayNodeImpl.obj
 0001:0006838c       ?Next@?$TNodeIteratorImpl@V?$_Vector_iterator@V?$_Vector_val@U?$_Simple_types@V?$shared_ptr@VINode_v1@AdobeXMPCore@@@std@@@std@@@std@@@std@@@AdobeXMPCore_Int@@$4PPPPPPPM@A@EAA?AV?$shared_ptr@VINodeIterator_v1@AdobeXMPCore@@@std@@XZ 000000018006938c f i ArrayNodeImpl.obj
 0001:00068398       ?replaceNodeAtPath@ICompositeNode_I@AdobeXMPCore_Int@@$R2HI@CI@PPPPPPPM@EI@EAAPEAVINode_v1@AdobeXMPCore@@PEAV34@PEBVIPath_v1@4@AEAPEBVIError_v1@AdobeXMPCommon@@@Z 0000000180069398 f i ArrayNodeImpl.obj
 0001:000683b4       ?hasQualifiers@INode_I@AdobeXMPCore_Int@@$R2EA@CA@PPPPPPPM@DI@EBAKAEAPEBVIError_v1@AdobeXMPCommon@@@Z 00000001800693b4 f i ArrayNodeImpl.obj
 0001:000683d0       ?isQualifierNode@INode_I@AdobeXMPCore_Int@@$R2EA@CA@PPPPPPPM@DI@EBAKAEAPEBVIError_v1@AdobeXMPCommon@@@Z 00000001800693d0 f i ArrayNodeImpl.obj
 0001:000683ec       ?getParentNodeType@INode_I@AdobeXMPCore_Int@@$R2EA@CA@PPPPPPPM@DI@EBAKAEAPEBVIError_v1@AdobeXMPCommon@@@Z 00000001800693ec f i ArrayNodeImpl.obj
 0001:00068408       ?HasChanged@NodeImpl@AdobeXMPCore_Int@@$R4EA@DE@PPPPPPPM@KI@EBA_NXZ 0000000180069408 f i ArrayNodeImpl.obj
 0001:00068424       ?QualifiersIterator@NodeImpl@AdobeXMPCore_Int@@$R4EA@DE@PPPPPPPM@KI@EAA?AV?$shared_ptr@VINodeIterator_v1@AdobeXMPCore@@@std@@XZ 0000000180069424 f i ArrayNodeImpl.obj
 0001:00068440       ?getInterfacePointer@ICompositeNode_I@AdobeXMPCore_Int@@$R2CA@CE@PPPPPPPM@BI@EAAPEAX_KKAEAPEBVIError_v1@AdobeXMPCommon@@@Z 0000000180069440 f i ArrayNodeImpl.obj
 0001:0006845c       ??_ECompositeNodeImpl@AdobeXMPCore_Int@@$2PPPPPPPM@BA@EAAPEAXI@Z 000000018006945c f i ArrayNodeImpl.obj
 0001:0006846c       ?getNameSpace@INode_I@AdobeXMPCore_Int@@$R2DI@CE@PPPPPPPM@DI@EBAPEBVIUTF8String_v1@AdobeXMPCommon@@AEAPEBVIError_v1@4@@Z 000000018006946c f i ArrayNodeImpl.obj
 0001:00068484       ?isThreadSafe@IThreadSafe_I@AdobeXMPCommon_Int@@WPPPPPPJA@EBAKXZ 0000000180069484 f i ArrayNodeImpl.obj
 0001:00068490       ?getPath@INode_I@AdobeXMPCore_Int@@$2PPPPPPPM@A@EBAPEAVIPath_v1@AdobeXMPCore@@AEAPEBVIError_v1@AdobeXMPCommon@@@Z 0000000180069490 f i ArrayNodeImpl.obj
 0001:0006849c       ?GetISharedObject_I@ISharedObject_I@AdobeXMPCommon_Int@@$R4CA@BA@PPPPPPPM@BA@EAAPEAV12@XZ 000000018006949c f i ArrayNodeImpl.obj
 0001:000684b8       ?SetNameSpace@NodeImpl@AdobeXMPCore_Int@@$R4EA@DE@PPPPPPPM@KI@EAAXPEBD_K@Z 00000001800694b8 f i ArrayNodeImpl.obj
 0001:000684d4       ?getNodeType@INode_I@AdobeXMPCore_Int@@$R2KA@BM@PPPPPPPM@DI@EBAKAEAPEBVIError_v1@AdobeXMPCommon@@@Z 00000001800694d4 f i ArrayNodeImpl.obj
 0001:000684f0       ?replaceQualifier@INode_I@AdobeXMPCore_Int@@$R2KA@BM@PPPPPPPM@DI@EAAPEAVINode_v1@AdobeXMPCore@@PEAV34@AEAPEBVIError_v1@AdobeXMPCommon@@@Z 00000001800694f0 f i ArrayNodeImpl.obj
 0001:0006850c       ?GetNameSpace@NodeImpl@AdobeXMPCore_Int@@$4PPPPPPPM@A@EBA?AV?$shared_ptr@$$CBVIUTF8String_v1@AdobeXMPCommon@@@std@@XZ 000000018006950c f i ArrayNodeImpl.obj
 0001:00068518       ?SetName@NodeImpl@AdobeXMPCore_Int@@$4PPPPPPPM@A@EAAXPEBD_K@Z 0000000180069518 f i ArrayNodeImpl.obj
 0001:00068524       ?GetInterfacePointer@INode_I@AdobeXMPCore_Int@@$R4IA@BM@PPPPPPPM@CA@EAAPEAX_KK@Z 0000000180069524 f i ArrayNodeImpl.obj
 0001:00068540       ?GetInterfacePointer@INodeIterator_I@AdobeXMPCore_Int@@$4PPPPPPPM@A@EAAPEAX_KK@Z 0000000180069540 f i ArrayNodeImpl.obj
 0001:0006854c       ?clone@INode_I@AdobeXMPCore_Int@@$R2DI@CE@PPPPPPPM@DI@EBAPEAVINode_v1@AdobeXMPCore@@KKAEAPEBVIError_v1@AdobeXMPCommon@@@Z 000000018006954c f i ArrayNodeImpl.obj
 0001:00068564       ?appendNode@ICompositeNode_I@AdobeXMPCore_Int@@$2PPPPPPPM@A@EAAXPEAVINode_v1@AdobeXMPCore@@AEAPEBVIError_v1@AdobeXMPCommon@@@Z 0000000180069564 f i ArrayNodeImpl.obj
 0001:00068570       ?isEmpty@INode_I@AdobeXMPCore_Int@@$R2DA@CA@PPPPPPPM@DI@EBAKAEAPEBVIError_v1@AdobeXMPCommon@@@Z 0000000180069570 f i ArrayNodeImpl.obj
 0001:0006858c       ?getParent@INode_I@AdobeXMPCore_Int@@$R2DA@CA@PPPPPPPM@DI@EAAPEAVINode_v1@AdobeXMPCore@@AEAPEBVIError_v1@AdobeXMPCommon@@@Z 000000018006958c f i ArrayNodeImpl.obj
 0001:000685a8       ?hasQualifiers@INode_I@AdobeXMPCore_Int@@$2PPPPPPPM@A@EBAKAEAPEBVIError_v1@AdobeXMPCommon@@@Z 00000001800695a8 f i ArrayNodeImpl.obj
 0001:000685b4       ?isQualifierNode@INode_I@AdobeXMPCore_Int@@$2PPPPPPPM@A@EBAKAEAPEBVIError_v1@AdobeXMPCommon@@@Z 00000001800695b4 f i ArrayNodeImpl.obj
 0001:000685c0       ?getParentNodeType@INode_I@AdobeXMPCore_Int@@$2PPPPPPPM@A@EBAKAEAPEBVIError_v1@AdobeXMPCommon@@@Z 00000001800695c0 f i ArrayNodeImpl.obj
 0001:000685cc       ??_EINodeIterator_v1@AdobeXMPCore@@O7EAAPEAXI@Z 00000001800695cc f i ArrayNodeImpl.obj
 0001:000685d8       ?GetInterfacePointer@INodeIterator_I@AdobeXMPCore_Int@@$R4DA@BE@PPPPPPPM@BI@EAAPEAX_KK@Z 00000001800695d8 f i ArrayNodeImpl.obj
 0001:000685f4       ?InsertNodeAtIndex@ArrayNodeImpl@AdobeXMPCore_Int@@$4PPPPPPPM@A@EAAXAEBV?$shared_ptr@VINode_v1@AdobeXMPCore@@@std@@_K@Z 00000001800695f4 f i ArrayNodeImpl.obj
 0001:00068600       ?InsertNodeAtPath@CompositeNodeImpl@AdobeXMPCore_Int@@$R4HI@EA@PPPPPPPM@GA@EAAXAEBV?$shared_ptr@VINode_v1@AdobeXMPCore@@@std@@AEBV?$shared_ptr@$$CBVIPath_v1@AdobeXMPCore@@@4@@Z 0000000180069600 f i ArrayNodeImpl.obj
 0001:0006861c       ?convertToStructureNode@INode_I@AdobeXMPCore_Int@@$R2GA@CE@PPPPPPPM@DI@EAAPEAVIStructureNode_v1@AdobeXMPCore@@AEAPEBVIError_v1@AdobeXMPCommon@@@Z 000000018006961c f i ArrayNodeImpl.obj
 0001:00068638       ?hasChanged@INode_I@AdobeXMPCore_Int@@$R2GA@CE@PPPPPPPM@DI@EBAKAEAPEBVIError_v1@AdobeXMPCommon@@@Z 0000000180069638 f i ArrayNodeImpl.obj
 0001:00068654       ?getNodeType@INode_I@AdobeXMPCore_Int@@$R2EA@CA@PPPPPPPM@DI@EBAKAEAPEBVIError_v1@AdobeXMPCommon@@@Z 0000000180069654 f i ArrayNodeImpl.obj
 0001:00068670       ?replaceQualifier@INode_I@AdobeXMPCore_Int@@$R2EA@CA@PPPPPPPM@DI@EAAPEAVINode_v1@AdobeXMPCore@@PEAV34@AEAPEBVIError_v1@AdobeXMPCommon@@@Z 0000000180069670 f i ArrayNodeImpl.obj
 0001:0006868c       ?insertQualifier@INode_I@AdobeXMPCore_Int@@$R2KA@BM@PPPPPPPM@DI@EAAXPEAVINode_v1@AdobeXMPCore@@AEAPEBVIError_v1@AdobeXMPCommon@@@Z 000000018006968c f i ArrayNodeImpl.obj
 0001:000686a8       ?AcknowledgeChanges@NodeImpl@AdobeXMPCore_Int@@$4PPPPPPPM@A@EBAXXZ 00000001800696a8 f i ArrayNodeImpl.obj
 0001:000686b4       ?convertToMetadata@INode_I@AdobeXMPCore_Int@@$R2DI@CE@PPPPPPPM@DI@EAAPEAVIMetadata_v1@AdobeXMPCore@@AEAPEBVIError_v1@AdobeXMPCommon@@@Z 00000001800696b4 f i ArrayNodeImpl.obj
 0001:000686cc       ??_EIArrayNode_I@AdobeXMPCore_Int@@OBI@EAAPEAXI@Z 00000001800696cc f i ArrayNodeImpl.obj
 0001:000686d8       ?setName@INode_I@AdobeXMPCore_Int@@$R2DA@CA@PPPPPPPM@DI@EAAXPEBD_KAEAPEBVIError_v1@AdobeXMPCommon@@@Z 00000001800696d8 f i ArrayNodeImpl.obj
 0001:000686f4       ?ClearContents@ArrayNodeImpl@AdobeXMPCore_Int@@$4PPPPPPPM@A@EAAXXZ 00000001800696f4 f i ArrayNodeImpl.obj
 0001:00068700       ?getNodeAtPath@ICompositeNode_I@AdobeXMPCore_Int@@$R2HI@CI@PPPPPPPM@EI@EAAPEAVINode_v1@AdobeXMPCore@@PEBVIPath_v1@4@AEAPEBVIError_v1@AdobeXMPCommon@@@Z 0000000180069700 f i ArrayNodeImpl.obj
 0001:0006871c       ?GetIndex@NodeImpl@AdobeXMPCore_Int@@$R4GA@DM@PPPPPPPM@KI@EBA_KXZ 000000018006971c f i ArrayNodeImpl.obj
 0001:00068738       ??_EArrayNodeImpl@AdobeXMPCore_Int@@$2PPPPPPPM@BA@EAAPEAXI@Z 0000000180069738 f i ArrayNodeImpl.obj
 0001:00068748       ?Release@NodeImpl@AdobeXMPCore_Int@@$R4DA@DM@PPPPPPPM@HI@EBAXXZ 0000000180069748 f i ArrayNodeImpl.obj
 0001:00068764       ?GetRawParentPointer@NodeImpl@AdobeXMPCore_Int@@$R4KA@DE@PPPPPPPM@PA@EAAPEAVINode_v1@AdobeXMPCore@@XZ 0000000180069764 f i ArrayNodeImpl.obj
 0001:00068780       ?iterator@ICompositeNode_I@AdobeXMPCore_Int@@$R2FI@CE@PPPPPPPM@EI@EAAPEAVINodeIterator_v1@AdobeXMPCore@@AEAPEBVIError_v1@AdobeXMPCommon@@@Z 0000000180069780 f i ArrayNodeImpl.obj
 0001:0006879c       ?insertQualifier@INode_I@AdobeXMPCore_Int@@$R2EA@CA@PPPPPPPM@DI@EAAXPEAVINode_v1@AdobeXMPCore@@AEAPEBVIError_v1@AdobeXMPCommon@@@Z 000000018006979c f i ArrayNodeImpl.obj
 0001:000687b8       ?ReplaceQualifier@NodeImpl@AdobeXMPCore_Int@@$R4EA@DE@PPPPPPPM@KI@EAA?AV?$shared_ptr@VINode_v1@AdobeXMPCore@@@std@@AEBV34@@Z 00000001800697b8 f i ArrayNodeImpl.obj
 0001:000687d4       ?getNameSpace@INode_I@AdobeXMPCore_Int@@$R2KA@BM@PPPPPPPM@DI@EBAPEBVIUTF8String_v1@AdobeXMPCommon@@AEAPEBVIError_v1@4@@Z 00000001800697d4 f i ArrayNodeImpl.obj
 0001:000687f0       ?QualifiersCount@NodeImpl@AdobeXMPCore_Int@@$4PPPPPPPM@A@EBA_KXZ 00000001800697f0 f i ArrayNodeImpl.obj
 0001:000687fc       ?IsThreadSafe@ThreadSafeImpl@AdobeXMPCore_Int@@$2PPPPPPPM@A@EBA_NXZ 00000001800697fc f i ArrayNodeImpl.obj
 0001:00068808       ?removeNodeAtIndex@IArrayNode_I@AdobeXMPCore_Int@@$2PPPPPPPM@A@EAAPEAVINode_v1@AdobeXMPCore@@_KAEAPEBVIError_v1@AdobeXMPCommon@@@Z 0000000180069808 f i ArrayNodeImpl.obj
 0001:00068814       ?convertToSimpleNode@INode_I@AdobeXMPCore_Int@@$R2DI@CE@PPPPPPPM@DI@EAAPEAVISimpleNode_v1@AdobeXMPCore@@AEAPEBVIError_v1@AdobeXMPCommon@@@Z 0000000180069814 f i ArrayNodeImpl.obj
 0001:0006882c       ?getInterfacePointer@IArrayNode_I@AdobeXMPCore_Int@@$2PPPPPPPM@A@EAAPEAX_KKAEAPEBVIError_v1@AdobeXMPCommon@@@Z 000000018006982c f i ArrayNodeImpl.obj
 0001:00068838       ?hasContent@INode_I@AdobeXMPCore_Int@@$R2DA@CA@PPPPPPPM@DI@EBAKAEAPEBVIError_v1@AdobeXMPCommon@@@Z 0000000180069838 f i ArrayNodeImpl.obj
 0001:00068854       ?getIndex@INode_I@AdobeXMPCore_Int@@$R2DA@CA@PPPPPPPM@DI@EBA_KAEAPEBVIError_v1@AdobeXMPCommon@@@Z 0000000180069854 f i ArrayNodeImpl.obj
 0001:00068870       ?getNodeType@INode_I@AdobeXMPCore_Int@@$2PPPPPPPM@A@EBAKAEAPEBVIError_v1@AdobeXMPCommon@@@Z 0000000180069870 f i ArrayNodeImpl.obj
 0001:0006887c       ?replaceQualifier@INode_I@AdobeXMPCore_Int@@$2PPPPPPPM@A@EAAPEAVINode_v1@AdobeXMPCore@@PEAV34@AEAPEBVIError_v1@AdobeXMPCommon@@@Z 000000018006987c f i ArrayNodeImpl.obj
 0001:00068888       ??1IConfigurable@AdobeXMPCommon@@MEAA@XZ 0000000180069888 f i ClientDOMParserWrapperImpl.obj
 0001:00068894       ??_EIConfigurable@AdobeXMPCommon@@MEAAPEAXI@Z 0000000180069894 f i * CIL library *:* CIL module *
 0001:00068894       ??_GIConfigurable@AdobeXMPCommon@@MEAAPEAXI@Z 0000000180069894 f i ClientDOMParserWrapperImpl.obj
 0001:000688c0       ??1IDOMParser_v1@AdobeXMPCore@@MEAA@XZ 00000001800698c0 f i ClientDOMParserWrapperImpl.obj
 0001:00068908       ??_EIDOMParser_v1@AdobeXMPCore@@MEAAPEAXI@Z 0000000180069908 f i * CIL library *:* CIL module *
 0001:00068908       ??_GIDOMParser_v1@AdobeXMPCore@@MEAAPEAXI@Z 0000000180069908 f i ClientDOMParserWrapperImpl.obj
 0001:00068978       ?ModifyKey@IConfigurable_I@AdobeXMPCore_Int@@UEBA_KAEB_K@Z 0000000180069978 f i ClientDOMParserWrapperImpl.obj
 0001:0006897c       ??1IConfigurable_I@AdobeXMPCore_Int@@MEAA@XZ 000000018006997c f i ClientDOMParserWrapperImpl.obj
 0001:000689b0       ??_EIConfigurable_I@AdobeXMPCore_Int@@MEAAPEAXI@Z 00000001800699b0 f i * CIL library *:* CIL module *
 0001:000689b0       ??_GIConfigurable_I@AdobeXMPCore_Int@@MEAAPEAXI@Z 00000001800699b0 f i ClientDOMParserWrapperImpl.obj
 0001:00068a04       ?GetActualIDOMParser@IDOMParser_I@AdobeXMPCore_Int@@UEAAPEAVIDOMParser_v1@AdobeXMPCore@@XZ 0000000180069a04 f i ClientDOMParserWrapperImpl.obj
 0001:00068a04       ?GetActualIDOMSerializer@IDOMSerializer_I@AdobeXMPCore_Int@@UEAAPEAVIDOMSerializer_v1@AdobeXMPCore@@XZ 0000000180069a04 f i ClientDOMSerializerWrapperImpl.obj
 0001:00068a24       ?GetISharedObject_I@IDOMParser_I@AdobeXMPCore_Int@@UEAAPEAVISharedObject_I@AdobeXMPCommon_Int@@XZ 0000000180069a24 f i ClientDOMParserWrapperImpl.obj
 0001:00068a24       ?GetISharedObject_I@IDOMSerializer_I@AdobeXMPCore_Int@@UEAAPEAVISharedObject_I@AdobeXMPCommon_Int@@XZ 0000000180069a24 f i ClientDOMSerializerWrapperImpl.obj
 0001:00068a44       ??1IDOMParser_I@AdobeXMPCore_Int@@MEAA@XZ 0000000180069a44 f i ClientDOMParserWrapperImpl.obj
 0001:00068b0c       ??_EIDOMParser_I@AdobeXMPCore_Int@@MEAAPEAXI@Z 0000000180069b0c f i * CIL library *:* CIL module *
 0001:00068b0c       ??_GIDOMParser_I@AdobeXMPCore_Int@@MEAAPEAXI@Z 0000000180069b0c f i ClientDOMParserWrapperImpl.obj
 0001:00068b44       ??0ConfigurableImpl@AdobeXMPCore_Int@@QEAA@XZ 0000000180069b44 f i ClientDOMParserWrapperImpl.obj
 0001:00068bf4       ??_EConfigurableImpl@AdobeXMPCore_Int@@UEAAPEAXI@Z 0000000180069bf4 f i * CIL library *:* CIL module *
 0001:00068bf4       ??_GConfigurableImpl@AdobeXMPCore_Int@@UEAAPEAXI@Z 0000000180069bf4 f i ClientDOMParserWrapperImpl.obj
 0001:00068c2c       ??1DOMParserImpl@AdobeXMPCore_Int@@MEAA@XZ 0000000180069c2c f i ClientDOMParserWrapperImpl.obj
 0001:00068d7c       ??_EDOMParserImpl@AdobeXMPCore_Int@@MEAAPEAXI@Z 0000000180069d7c f i * CIL library *:* CIL module *
 0001:00068d7c       ??_GDOMParserImpl@AdobeXMPCore_Int@@MEAAPEAXI@Z 0000000180069d7c f i ClientDOMParserWrapperImpl.obj
 0001:00068ddc       ?MakeShared@IError_v1@AdobeXMPCommon@@SA?AV?$shared_ptr@$$CBVIError_v1@AdobeXMPCommon@@@std@@PEBV12@@Z 0000000180069ddc f i ClientDOMParserWrapperImpl.obj
 0001:00068e54       ??0ClientDOMParserWrapperImpl@AdobeXMPCore_Int@@QEAA@PEAVIClientDOMParser_v1@AdobeXMPCore@@@Z 0000000180069e54 f   ClientDOMParserWrapperImpl.obj
 0001:000693c8       ??_EClientDOMParserWrapperImpl@AdobeXMPCore_Int@@MEAAPEAXI@Z 000000018006a3c8 f i * CIL library *:* CIL module *
 0001:000693c8       ??_GClientDOMParserWrapperImpl@AdobeXMPCore_Int@@MEAAPEAXI@Z 000000018006a3c8 f i ClientDOMParserWrapperImpl.obj
 0001:00069548       ?ParseAsNode@ClientDOMParserWrapperImpl@AdobeXMPCore_Int@@UEAA?AV?$shared_ptr@VINode_v1@AdobeXMPCore@@@std@@PEBD_K@Z 000000018006a548 f   ClientDOMParserWrapperImpl.obj
 0001:0006973c       ??1ClientDOMParserWrapperImpl@AdobeXMPCore_Int@@MEAA@XZ 000000018006a73c f   ClientDOMParserWrapperImpl.obj
 0001:00069880       ?ValidateValue@ClientDOMParserWrapperImpl@AdobeXMPCore_Int@@UEBA?AW4eConfigurableErrorCode@AdobeXMPCommon@@AEB_KW4eDataType@IConfigurable@4@AEBTCombinedDataValue@64@@Z 000000018006a880 f   ClientDOMParserWrapperImpl.obj
 0001:000699f4       ?clone@ClientDOMParserWrapperImpl@AdobeXMPCore_Int@@UEBAPEAVDOMParserImpl@2@XZ 000000018006a9f4 f   ClientDOMParserWrapperImpl.obj
 0001:00069a54       ??1?$_Tree@V?$_Tmap_traits@_KU?$pair@W4eDataType@IConfigurable@AdobeXMPCommon@@TCombinedDataValue@23@@std@@U?$less@_K@2@V?$TAllocator@U?$pair@$$CB_KU?$pair@W4eDataType@IConfigurable@AdobeXMPCommon@@TCombinedDataValue@23@@std@@@std@@@AdobeXMPCore_Int@@$0A@@std@@@std@@QEAA@XZ 000000018006aa54 f i ClientDOMParserWrapperImpl.obj
 0001:00069a54       ??1?$_Tree@V?$_Tmap_traits@_KW4eDataType@IConfigurable@AdobeXMPCommon@@U?$less@_K@std@@V?$TAllocator@U?$pair@$$CB_KW4eDataType@IConfigurable@AdobeXMPCommon@@@std@@@AdobeXMPCore_Int@@$0A@@std@@@std@@QEAA@XZ 000000018006aa54 f i DOMParserImpl.obj
 0001:00069a54       ??1?$_Tree@V?$_Tset_traits@_KU?$less@_K@std@@V?$TAllocator@_K@AdobeXMPCore_Int@@$0A@@std@@@std@@QEAA@XZ 000000018006aa54 f i DOMParserImpl.obj
 0001:00069acc       ??$_Erase_tree@V?$TAllocator@U?$_Tree_node@U?$pair@$$CB_KU?$pair@W4eDataType@IConfigurable@AdobeXMPCommon@@TCombinedDataValue@23@@std@@@std@@PEAX@std@@@AdobeXMPCore_Int@@@?$_Tree_val@U?$_Tree_simple_types@U?$pair@$$CB_KU?$pair@W4eDataType@IConfigurable@AdobeXMPCommon@@TCombinedDataValue@23@@std@@@std@@@std@@@std@@QEAAXAEAV?$TAllocator@U?$_Tree_node@U?$pair@$$CB_KU?$pair@W4eDataType@IConfigurable@AdobeXMPCommon@@TCombinedDataValue@23@@std@@@std@@PEAX@std@@@AdobeXMPCore_Int@@PEAU?$_Tree_node@U?$pair@$$CB_KU?$pair@W4eDataType@IConfigurable@AdobeXMPCommon@@TCombinedDataValue@23@@std@@@std@@PEAX@1@@Z 000000018006aacc f i ClientDOMParserWrapperImpl.obj
 0001:00069acc       ??$_Erase_tree@V?$TAllocator@U?$_Tree_node@U?$pair@$$CB_KW4eDataType@IConfigurable@AdobeXMPCommon@@@std@@PEAX@std@@@AdobeXMPCore_Int@@@?$_Tree_val@U?$_Tree_simple_types@U?$pair@$$CB_KW4eDataType@IConfigurable@AdobeXMPCommon@@@std@@@std@@@std@@QEAAXAEAV?$TAllocator@U?$_Tree_node@U?$pair@$$CB_KW4eDataType@IConfigurable@AdobeXMPCommon@@@std@@PEAX@std@@@AdobeXMPCore_Int@@PEAU?$_Tree_node@U?$pair@$$CB_KW4eDataType@IConfigurable@AdobeXMPCommon@@@std@@PEAX@1@@Z 000000018006aacc f i DOMParserImpl.obj
 0001:00069acc       ??$_Erase_tree@V?$TAllocator@U?$_Tree_node@_KPEAX@std@@@AdobeXMPCore_Int@@@?$_Tree_val@U?$_Tree_simple_types@_K@std@@@std@@QEAAXAEAV?$TAllocator@U?$_Tree_node@_KPEAX@std@@@AdobeXMPCore_Int@@PEAU?$_Tree_node@_KPEAX@1@@Z 000000018006aacc f i DOMParserImpl.obj
 0001:00069b34       ?parseWithSpecificAction@IDOMParser_I@AdobeXMPCore_Int@@$R2FI@BM@PPPPPPPM@EI@EAAXPEBD_KKPEAVINode_v1@AdobeXMPCore@@AEAPEBVIError_v1@AdobeXMPCommon@@@Z 000000018006ab34 f i ClientDOMParserWrapperImpl.obj
 0001:00069b50       ?SetParameter@IConfigurable_I@AdobeXMPCore_Int@@$4PPPPPPPM@A@EAAXAEB_K_N@Z 000000018006ab50 f i ClientDOMParserWrapperImpl.obj
 0001:00069b5c       ?SetParameter@IConfigurable_I@AdobeXMPCore_Int@@$4PPPPPPPM@A@EAAXAEB_K_K@Z 000000018006ab5c f i ClientDOMParserWrapperImpl.obj
 0001:00069b68       ?SetParameter@IConfigurable_I@AdobeXMPCore_Int@@$4PPPPPPPM@A@EAAXAEB_K_J@Z 000000018006ab68 f i ClientDOMParserWrapperImpl.obj
 0001:00069b74       ?SetParameter@IConfigurable_I@AdobeXMPCore_Int@@$4PPPPPPPM@A@EAAXAEB_KN@Z 000000018006ab74 f i ClientDOMParserWrapperImpl.obj
 0001:00069b80       ?SetParameter@IConfigurable_I@AdobeXMPCore_Int@@$4PPPPPPPM@A@EAAXAEB_KD@Z 000000018006ab80 f i ClientDOMParserWrapperImpl.obj
 0001:00069b8c       ?SetParameter@IConfigurable_I@AdobeXMPCore_Int@@$4PPPPPPPM@A@EAAXAEB_KPEBD@Z 000000018006ab8c f i ClientDOMParserWrapperImpl.obj
 0001:00069b98       ?SetParameter@IConfigurable_I@AdobeXMPCore_Int@@$4PPPPPPPM@A@EAAXAEB_KPEBX@Z 000000018006ab98 f i ClientDOMParserWrapperImpl.obj
 0001:00069ba4       ?SetParameter@IConfigurable_I@AdobeXMPCore_Int@@$R4BA@BE@PPPPPPPM@BI@EAAXAEB_K_N@Z 000000018006aba4 f i ClientDOMParserWrapperImpl.obj
 0001:00069bc0       ?SetParameter@IConfigurable_I@AdobeXMPCore_Int@@$R4BA@BE@PPPPPPPM@BI@EAAXAEB_K_K@Z 000000018006abc0 f i ClientDOMParserWrapperImpl.obj
 0001:00069bdc       ?SetParameter@IConfigurable_I@AdobeXMPCore_Int@@$R4BA@BE@PPPPPPPM@BI@EAAXAEB_K_J@Z 000000018006abdc f i ClientDOMParserWrapperImpl.obj
 0001:00069bf8       ?SetParameter@IConfigurable_I@AdobeXMPCore_Int@@$R4BA@BE@PPPPPPPM@BI@EAAXAEB_KN@Z 000000018006abf8 f i ClientDOMParserWrapperImpl.obj
 0001:00069c14       ?SetParameter@IConfigurable_I@AdobeXMPCore_Int@@$R4BA@BE@PPPPPPPM@BI@EAAXAEB_KD@Z 000000018006ac14 f i ClientDOMParserWrapperImpl.obj
 0001:00069c30       ?SetParameter@IConfigurable_I@AdobeXMPCore_Int@@$R4BA@BE@PPPPPPPM@BI@EAAXAEB_KPEBD@Z 000000018006ac30 f i ClientDOMParserWrapperImpl.obj
 0001:00069c4c       ?SetParameter@IConfigurable_I@AdobeXMPCore_Int@@$R4BA@BE@PPPPPPPM@BI@EAAXAEB_KPEBX@Z 000000018006ac4c f i ClientDOMParserWrapperImpl.obj
 0001:00069c68       ??_EClientDOMParserWrapperImpl@AdobeXMPCore_Int@@$2PPPPPPPM@A@EAAPEAXI@Z 000000018006ac68 f i ClientDOMParserWrapperImpl.obj
 0001:00069c74       ?setParameter@IConfigurable_I@AdobeXMPCore_Int@@$R2BI@BE@PPPPPPPM@BI@EAAXAEB_KKAEBTCombinedDataValue@IConfigurable@AdobeXMPCommon@@AEAPEBVIError_v1@5@@Z 000000018006ac74 f i ClientDOMParserWrapperImpl.obj
 0001:00069c8c       ?GetIDOMParser_I@IDOMParser_I@AdobeXMPCore_Int@@$R4FI@BM@PPPPPPPM@EI@EAAPEAV12@XZ 000000018006ac8c f i ClientDOMParserWrapperImpl.obj
 0001:00069ca8       ?GetISharedObject_I@IDOMParser_I@AdobeXMPCore_Int@@$R4DI@BM@PPPPPPPM@CI@EAAPEAVISharedObject_I@AdobeXMPCommon_Int@@XZ 000000018006aca8 f i ClientDOMParserWrapperImpl.obj
 0001:00069cc4       ??_EDOMParserImpl@AdobeXMPCore_Int@@$2PPPPPPPM@A@EAAPEAXI@Z 000000018006acc4 f i ClientDOMParserWrapperImpl.obj
 0001:00069cd0       ?getDataType@IConfigurable_I@AdobeXMPCore_Int@@$R2CI@BE@PPPPPPPM@BI@EBAKAEB_KAEAPEBVIError_v1@AdobeXMPCommon@@@Z 000000018006acd0 f i ClientDOMParserWrapperImpl.obj
 0001:00069cec       ?removeParameter@IConfigurable_I@AdobeXMPCore_Int@@$R2DI@7PPPPPPPM@BI@EAAKAEB_KAEAPEBVIError_v1@AdobeXMPCommon@@@Z 000000018006acec f i ClientDOMParserWrapperImpl.obj
 0001:00069d08       ??_EIDOMParser_v1@AdobeXMPCore@@O7EAAPEAXI@Z 000000018006ad08 f i ClientDOMParserWrapperImpl.obj
 0001:00069d14       ?SetParameter@ConfigurableImpl@AdobeXMPCore_Int@@$R4GA@CA@PPPPPPPM@EI@EAAXAEB_KW4eDataType@IConfigurable@AdobeXMPCommon@@AEBTCombinedDataValue@45@@Z 000000018006ad14 f i ClientDOMParserWrapperImpl.obj
 0001:00069d30       ??_EClientDOMParserWrapperImpl@AdobeXMPCore_Int@@$2PPPPPPPM@CA@EAAPEAXI@Z 000000018006ad30 f i ClientDOMParserWrapperImpl.obj
 0001:00069d40       ??_EDOMParserImpl@AdobeXMPCore_Int@@$2PPPPPPPM@CA@EAAPEAXI@Z 000000018006ad40 f i ClientDOMParserWrapperImpl.obj
 0001:00069d50       ?GetParentNodeType@MetadataImpl@AdobeXMPCore_Int@@$2PPPPPPPM@A@EBA?AW4eNodeType@INode_v1@AdobeXMPCore@@XZ 000000018006ad50 f i MetadataImpl.obj
 0001:00069d50       ?Lock@SharedMutexImpl@AdobeXMPCore_Int@@$4PPPPPPPM@A@EAA?AW4eMultiThreadingErrorCode@AdobeXMPCommon_Int@@XZ 000000018006ad50 f i SharedMutexImpl.obj
 0001:00069d50       ?LockShared@SharedMutexImpl@AdobeXMPCore_Int@@$4PPPPPPPM@A@EAA?AW4eMultiThreadingErrorCode@AdobeXMPCommon_Int@@XZ 000000018006ad50 f i SharedMutexImpl.obj
 0001:00069d50       ?TryLock@SharedMutexImpl@AdobeXMPCore_Int@@$4PPPPPPPM@A@EAA?AW4eMultiThreadingErrorCode@AdobeXMPCommon_Int@@XZ 000000018006ad50 f i SharedMutexImpl.obj
 0001:00069d50       ?TryLockShared@SharedMutexImpl@AdobeXMPCore_Int@@$4PPPPPPPM@A@EAA?AW4eMultiThreadingErrorCode@AdobeXMPCommon_Int@@XZ 000000018006ad50 f i SharedMutexImpl.obj
 0001:00069d50       ?Unlock@SharedMutexImpl@AdobeXMPCore_Int@@$4PPPPPPPM@A@EAA?AW4eMultiThreadingErrorCode@AdobeXMPCommon_Int@@XZ 000000018006ad50 f i SharedMutexImpl.obj
 0001:00069d50       ?UnlockShared@SharedMutexImpl@AdobeXMPCore_Int@@$4PPPPPPPM@A@EAA?AW4eMultiThreadingErrorCode@AdobeXMPCommon_Int@@XZ 000000018006ad50 f i SharedMutexImpl.obj
 0001:00069d50       ?ValidateValue@ConfigurableImpl@AdobeXMPCore_Int@@$4PPPPPPPM@A@EBA?AW4eConfigurableErrorCode@AdobeXMPCommon@@AEB_KW4eDataType@IConfigurable@4@AEBTCombinedDataValue@64@@Z 000000018006ad50 f i ClientDOMParserWrapperImpl.obj
 0001:00069d50       ?ValidateValue@RDFDOMParserImpl@AdobeXMPCore_Int@@$4PPPPPPPM@A@EBA?AW4eConfigurableErrorCode@AdobeXMPCommon@@AEB_KW4eDataType@IConfigurable@4@AEBTCombinedDataValue@64@@Z 000000018006ad50 f i DOMImplementationRegistryImpl.obj
 0001:00069d5c       ?AcquireInternal@SharedObjectImpl@AdobeXMPCore_Int@@$R4HI@CE@PPPPPPPM@DA@EBAXXZ 000000018006ad5c f i ClientDOMParserWrapperImpl.obj
 0001:00069d78       ?getParameter@IConfigurable_I@AdobeXMPCore_Int@@$R2BI@BE@PPPPPPPM@BI@EBAKAEB_KKAEATCombinedDataValue@IConfigurable@AdobeXMPCommon@@AEAPEBVIError_v1@5@@Z 000000018006ad78 f i ClientDOMParserWrapperImpl.obj
 0001:00069d90       ?ValidateValue@ConfigurableImpl@AdobeXMPCore_Int@@$R4HA@CA@PPPPPPPM@EI@EBA?AW4eConfigurableErrorCode@AdobeXMPCommon@@AEB_KW4eDataType@IConfigurable@4@AEBTCombinedDataValue@64@@Z 000000018006ad90 f i ClientDOMParserWrapperImpl.obj
 0001:00069dac       ?GetParameter@IConfigurable_I@AdobeXMPCore_Int@@$R4DI@7PPPPPPPM@BI@EBA_NAEB_KAEA_N@Z 000000018006adac f i ClientDOMParserWrapperImpl.obj
 0001:00069dc8       ?GetParameter@IConfigurable_I@AdobeXMPCore_Int@@$R4DI@7PPPPPPPM@BI@EBA_NAEB_KAEA_K@Z 000000018006adc8 f i ClientDOMParserWrapperImpl.obj
 0001:00069de4       ?GetParameter@IConfigurable_I@AdobeXMPCore_Int@@$R4DI@7PPPPPPPM@BI@EBA_NAEB_KAEA_J@Z 000000018006ade4 f i ClientDOMParserWrapperImpl.obj
 0001:00069e00       ?GetParameter@IConfigurable_I@AdobeXMPCore_Int@@$R4DI@7PPPPPPPM@BI@EBA_NAEB_KAEAN@Z 000000018006ae00 f i ClientDOMParserWrapperImpl.obj
 0001:00069e1c       ?GetParameter@IConfigurable_I@AdobeXMPCore_Int@@$R4DI@7PPPPPPPM@BI@EBA_NAEB_KAEAD@Z 000000018006ae1c f i ClientDOMParserWrapperImpl.obj
 0001:00069e38       ?GetParameter@IConfigurable_I@AdobeXMPCore_Int@@$R4DI@7PPPPPPPM@BI@EBA_NAEB_KAEAPEBD@Z 000000018006ae38 f i ClientDOMParserWrapperImpl.obj
 0001:00069e54       ?GetParameter@IConfigurable_I@AdobeXMPCore_Int@@$R4DI@7PPPPPPPM@BI@EBA_NAEB_KAEAPEBX@Z 000000018006ae54 f i ClientDOMParserWrapperImpl.obj
 0001:00069e70       ?getInterfacePointer@IDOMParser_I@AdobeXMPCore_Int@@$2PPPPPPPM@A@EAAPEAX_KKAEAPEBVIError_v1@AdobeXMPCommon@@@Z 000000018006ae70 f i ClientDOMParserWrapperImpl.obj
 0001:00069e7c       ?TreatKeyAsCaseInsensitive@ConfigurableImpl@AdobeXMPCore_Int@@$R4GA@CA@PPPPPPPM@EI@EAAX_N@Z 000000018006ae7c f i ClientDOMParserWrapperImpl.obj
 0001:00069e98       ?removeParameter@IConfigurable_I@AdobeXMPCore_Int@@$2PPPPPPPM@A@EAAKAEB_KAEAPEBVIError_v1@AdobeXMPCommon@@@Z 000000018006ae98 f i ClientDOMParserWrapperImpl.obj
 0001:00069ea4       ?removeParameter@IConfigurable_I@AdobeXMPCore_Int@@$R2BA@BE@PPPPPPPM@BI@EAAKAEB_KAEAPEBVIError_v1@AdobeXMPCommon@@@Z 000000018006aea4 f i ClientDOMParserWrapperImpl.obj
 0001:00069ec0       ?getDataType@IConfigurable_I@AdobeXMPCore_Int@@$R2DI@7PPPPPPPM@BI@EBAKAEB_KAEAPEBVIError_v1@AdobeXMPCommon@@@Z 000000018006aec0 f i ClientDOMParserWrapperImpl.obj
 0001:00069edc       ?ValidateValue@ClientDOMParserWrapperImpl@AdobeXMPCore_Int@@$4PPPPPPPM@A@EBA?AW4eConfigurableErrorCode@AdobeXMPCommon@@AEB_KW4eDataType@IConfigurable@4@AEBTCombinedDataValue@64@@Z 000000018006aedc f i ClientDOMParserWrapperImpl.obj
 0001:00069ee8       ?getAllParameters@IConfigurable_I@AdobeXMPCore_Int@@$R2BI@BE@PPPPPPPM@BI@EBAXPEA_K_K@Z 000000018006aee8 f i ClientDOMParserWrapperImpl.obj
 0001:00069f00       ?getInterfacePointer@IDOMParser_I@AdobeXMPCore_Int@@$R2EI@BM@PPPPPPPM@DI@EAAPEAX_KKAEAPEBVIError_v1@AdobeXMPCommon@@@Z 000000018006af00 f i ClientDOMParserWrapperImpl.obj
 0001:00069f1c       ?GetParameter@IConfigurable_I@AdobeXMPCore_Int@@$4PPPPPPPM@A@EBA_NAEB_KAEA_N@Z 000000018006af1c f i ClientDOMParserWrapperImpl.obj
 0001:00069f28       ?GetParameter@IConfigurable_I@AdobeXMPCore_Int@@$4PPPPPPPM@A@EBA_NAEB_KAEA_K@Z 000000018006af28 f i ClientDOMParserWrapperImpl.obj
 0001:00069f34       ?GetParameter@IConfigurable_I@AdobeXMPCore_Int@@$4PPPPPPPM@A@EBA_NAEB_KAEA_J@Z 000000018006af34 f i ClientDOMParserWrapperImpl.obj
 0001:00069f40       ?GetParameter@IConfigurable_I@AdobeXMPCore_Int@@$4PPPPPPPM@A@EBA_NAEB_KAEAN@Z 000000018006af40 f i ClientDOMParserWrapperImpl.obj
 0001:00069f4c       ?GetParameter@IConfigurable_I@AdobeXMPCore_Int@@$4PPPPPPPM@A@EBA_NAEB_KAEAD@Z 000000018006af4c f i ClientDOMParserWrapperImpl.obj
 0001:00069f58       ?GetParameter@IConfigurable_I@AdobeXMPCore_Int@@$4PPPPPPPM@A@EBA_NAEB_KAEAPEBD@Z 000000018006af58 f i ClientDOMParserWrapperImpl.obj
 0001:00069f64       ?GetParameter@IConfigurable_I@AdobeXMPCore_Int@@$4PPPPPPPM@A@EBA_NAEB_KAEAPEBX@Z 000000018006af64 f i ClientDOMParserWrapperImpl.obj
 0001:00069f70       ?GetParameter@IConfigurable_I@AdobeXMPCore_Int@@$R4BA@BE@PPPPPPPM@BI@EBA_NAEB_KAEA_N@Z 000000018006af70 f i ClientDOMParserWrapperImpl.obj
 0001:00069f8c       ?GetParameter@IConfigurable_I@AdobeXMPCore_Int@@$R4BA@BE@PPPPPPPM@BI@EBA_NAEB_KAEA_K@Z 000000018006af8c f i ClientDOMParserWrapperImpl.obj
 0001:00069fa8       ?GetParameter@IConfigurable_I@AdobeXMPCore_Int@@$R4BA@BE@PPPPPPPM@BI@EBA_NAEB_KAEA_J@Z 000000018006afa8 f i ClientDOMParserWrapperImpl.obj
 0001:00069fc4       ?GetParameter@IConfigurable_I@AdobeXMPCore_Int@@$R4BA@BE@PPPPPPPM@BI@EBA_NAEB_KAEAN@Z 000000018006afc4 f i ClientDOMParserWrapperImpl.obj
 0001:00069fe0       ?GetParameter@IConfigurable_I@AdobeXMPCore_Int@@$R4BA@BE@PPPPPPPM@BI@EBA_NAEB_KAEAD@Z 000000018006afe0 f i ClientDOMParserWrapperImpl.obj
 0001:00069ffc       ?GetParameter@IConfigurable_I@AdobeXMPCore_Int@@$R4BA@BE@PPPPPPPM@BI@EBA_NAEB_KAEAPEBD@Z 000000018006affc f i ClientDOMParserWrapperImpl.obj
 0001:0006a018       ?GetParameter@IConfigurable_I@AdobeXMPCore_Int@@$R4BA@BE@PPPPPPPM@BI@EBA_NAEB_KAEAPEBX@Z 000000018006b018 f i ClientDOMParserWrapperImpl.obj
 0001:0006a034       ?SetAllowedValueTypesForKeys@ConfigurableImpl@AdobeXMPCore_Int@@$R4GA@CA@PPPPPPPM@EI@EAAXPEAU?$pair@$$CB_KW4eDataType@IConfigurable@AdobeXMPCommon@@@std@@_K@Z 000000018006b034 f i ClientDOMParserWrapperImpl.obj
 0001:0006a050       ?AllowDifferentValueTypesForExistingEntries@ConfigurableImpl@AdobeXMPCore_Int@@$R4GA@CA@PPPPPPPM@EI@EAAX_N@Z 000000018006b050 f i ClientDOMParserWrapperImpl.obj
 0001:0006a06c       ?Clone@DOMParserImpl@AdobeXMPCore_Int@@$R4EI@CM@PPPPPPPM@GA@EBA?AV?$shared_ptr@VIDOMParser_v1@AdobeXMPCore@@@std@@XZ 000000018006b06c f i ClientDOMParserWrapperImpl.obj
 0001:0006a088       ?Release@SharedObjectImpl@AdobeXMPCore_Int@@$R4DI@CE@PPPPPPPM@CA@EBAXXZ 000000018006b088 f i ClientDOMParserWrapperImpl.obj
 0001:0006a0a4       ?SetAllowedKeys@ConfigurableImpl@AdobeXMPCore_Int@@$4PPPPPPPM@A@EAAXPEA_K_K@Z 000000018006b0a4 f i ClientDOMParserWrapperImpl.obj
 0001:0006a0b0       ?RemoveParameter@ConfigurableImpl@AdobeXMPCore_Int@@$4PPPPPPPM@A@EAA_NAEB_K@Z 000000018006b0b0 f i ClientDOMParserWrapperImpl.obj
 0001:0006a0bc       ?clone@IDOMParser_I@AdobeXMPCore_Int@@$2PPPPPPPM@A@EBAPEAVIDOMParser_v1@AdobeXMPCore@@AEAPEBVIError_v1@AdobeXMPCommon@@@Z 000000018006b0bc f i ClientDOMParserWrapperImpl.obj
 0001:0006a0c8       ?SetAllowedKeys@ConfigurableImpl@AdobeXMPCore_Int@@$R4HA@CA@PPPPPPPM@EI@EAAXPEA_K_K@Z 000000018006b0c8 f i ClientDOMParserWrapperImpl.obj
 0001:0006a0e4       ?GetDataType@ConfigurableImpl@AdobeXMPCore_Int@@$4PPPPPPPM@A@EBA?AW4eDataType@IConfigurable@AdobeXMPCommon@@AEB_K@Z 000000018006b0e4 f i ClientDOMParserWrapperImpl.obj
 0001:0006a0f0       ?GetAllParameters@ConfigurableImpl@AdobeXMPCore_Int@@$4PPPPPPPM@A@EBA?AV?$vector@_KV?$allocator@_K@std@@@std@@XZ 000000018006b0f0 f i ClientDOMParserWrapperImpl.obj
 0001:0006a0fc       ?getDataType@IConfigurable_I@AdobeXMPCore_Int@@$2PPPPPPPM@A@EBAKAEB_KAEAPEBVIError_v1@AdobeXMPCommon@@@Z 000000018006b0fc f i ClientDOMParserWrapperImpl.obj
 0001:0006a108       ?getDataType@IConfigurable_I@AdobeXMPCore_Int@@$R2BA@BE@PPPPPPPM@BI@EBAKAEB_KAEAPEBVIError_v1@AdobeXMPCommon@@@Z 000000018006b108 f i ClientDOMParserWrapperImpl.obj
 0001:0006a124       ?SetParameter@IConfigurable_I@AdobeXMPCore_Int@@$R4BI@BE@PPPPPPPM@BI@EAAXAEB_K_N@Z 000000018006b124 f i ClientDOMParserWrapperImpl.obj
 0001:0006a13c       ?SetParameter@IConfigurable_I@AdobeXMPCore_Int@@$R4BI@BE@PPPPPPPM@BI@EAAXAEB_K_K@Z 000000018006b13c f i ClientDOMParserWrapperImpl.obj
 0001:0006a154       ?SetParameter@IConfigurable_I@AdobeXMPCore_Int@@$R4BI@BE@PPPPPPPM@BI@EAAXAEB_K_J@Z 000000018006b154 f i ClientDOMParserWrapperImpl.obj
 0001:0006a16c       ?SetParameter@IConfigurable_I@AdobeXMPCore_Int@@$R4BI@BE@PPPPPPPM@BI@EAAXAEB_KN@Z 000000018006b16c f i ClientDOMParserWrapperImpl.obj
 0001:0006a184       ?SetParameter@IConfigurable_I@AdobeXMPCore_Int@@$R4BI@BE@PPPPPPPM@BI@EAAXAEB_KD@Z 000000018006b184 f i ClientDOMParserWrapperImpl.obj
 0001:0006a19c       ?SetParameter@IConfigurable_I@AdobeXMPCore_Int@@$R4BI@BE@PPPPPPPM@BI@EAAXAEB_KPEBD@Z 000000018006b19c f i ClientDOMParserWrapperImpl.obj
 0001:0006a1b4       ?SetParameter@IConfigurable_I@AdobeXMPCore_Int@@$R4BI@BE@PPPPPPPM@BI@EAAXAEB_KPEBX@Z 000000018006b1b4 f i ClientDOMParserWrapperImpl.obj
 0001:0006a1cc       ?Clone@DOMParserImpl@AdobeXMPCore_Int@@$4PPPPPPPM@A@EBA?AV?$shared_ptr@VIDOMParser_v1@AdobeXMPCore@@@std@@XZ 000000018006b1cc f i ClientDOMParserWrapperImpl.obj
 0001:0006a1d8       ??_EIDOMParser_v1@AdobeXMPCore@@OBA@EAAPEAXI@Z 000000018006b1d8 f i ClientDOMParserWrapperImpl.obj
 0001:0006a1e4       ?GetParameter@ConfigurableImpl@AdobeXMPCore_Int@@$4PPPPPPPM@A@EBA_NAEB_KW4eDataType@IConfigurable@AdobeXMPCommon@@AEATCombinedDataValue@45@@Z 000000018006b1e4 f i ClientDOMParserWrapperImpl.obj
 0001:0006a1f0       ?parse@IDOMParser_I@AdobeXMPCore_Int@@$R2EI@BM@PPPPPPPM@EI@EAAPEAVIMetadata_v1@AdobeXMPCore@@PEBD_KAEAPEBVIError_v1@AdobeXMPCommon@@@Z 000000018006b1f0 f i ClientDOMParserWrapperImpl.obj
 0001:0006a208       ?Acquire@SharedObjectImpl@AdobeXMPCore_Int@@$R4CI@CE@PPPPPPPM@CA@EBAXXZ 000000018006b208 f i ClientDOMParserWrapperImpl.obj
 0001:0006a224       ?GetParameter@ConfigurableImpl@AdobeXMPCore_Int@@$R4HA@CA@PPPPPPPM@EI@EBA_NAEB_KW4eDataType@IConfigurable@AdobeXMPCommon@@AEATCombinedDataValue@45@@Z 000000018006b224 f i ClientDOMParserWrapperImpl.obj
 0001:0006a240       ?clone@IDOMParser_I@AdobeXMPCore_Int@@$R2FI@BM@PPPPPPPM@EI@EBAPEAVIDOMParser_v1@AdobeXMPCore@@AEAPEBVIError_v1@AdobeXMPCommon@@@Z 000000018006b240 f i ClientDOMParserWrapperImpl.obj
 0001:0006a25c       ?GetActualIDOMParser@IDOMParser_I@AdobeXMPCore_Int@@$4PPPPPPPM@A@EAAPEAVIDOMParser_v1@AdobeXMPCore@@XZ 000000018006b25c f i ClientDOMParserWrapperImpl.obj
 0001:0006a25c       ?GetActualIDOMSerializer@IDOMSerializer_I@AdobeXMPCore_Int@@$4PPPPPPPM@A@EAAPEAVIDOMSerializer_v1@AdobeXMPCore@@XZ 000000018006b25c f i ClientDOMSerializerWrapperImpl.obj
 0001:0006a268       ??_EIDOMParser_I@AdobeXMPCore_Int@@$2PPPPPPPM@A@EAAPEAXI@Z 000000018006b268 f i ClientDOMParserWrapperImpl.obj
 0001:0006a274       ??_EIDOMParser_I@AdobeXMPCore_Int@@$2PPPPPPPM@CA@EAAPEAXI@Z 000000018006b274 f i ClientDOMParserWrapperImpl.obj
 0001:0006a284       ?GetInterfacePointer@IDOMParser_I@AdobeXMPCore_Int@@$R4DI@BM@PPPPPPPM@DI@EAAPEAX_KK@Z 000000018006b284 f i ClientDOMParserWrapperImpl.obj
 0001:0006a29c       ?removeParameter@IConfigurable_I@AdobeXMPCore_Int@@$R2BI@BE@PPPPPPPM@BI@EAAKAEB_KAEAPEBVIError_v1@AdobeXMPCommon@@@Z 000000018006b29c f i ClientDOMParserWrapperImpl.obj
 0001:0006a2b4       ?RemoveParameter@ConfigurableImpl@AdobeXMPCore_Int@@$R4CI@CA@PPPPPPPM@DI@EAA_NAEB_K@Z 000000018006b2b4 f i ClientDOMParserWrapperImpl.obj
 0001:0006a2d0       ?GetMutex@DOMParserImpl@AdobeXMPCore_Int@@$4PPPPPPPM@A@EBA?AV?$shared_ptr@VISharedMutex@AdobeXMPCore_Int@@@std@@XZ 000000018006b2d0 f i ClientDOMParserWrapperImpl.obj
 0001:0006a2d0       ?GetNameSpace@PathSegmentImpl@AdobeXMPCore_Int@@$4PPPPPPPM@A@EBA?AV?$shared_ptr@$$CBVIUTF8String_v1@AdobeXMPCommon@@@std@@XZ 000000018006b2d0 f i PathSegmentImpl.obj
 0001:0006a2dc       ?GetDataType@ConfigurableImpl@AdobeXMPCore_Int@@$R4CI@CA@PPPPPPPM@DI@EBA?AW4eDataType@IConfigurable@AdobeXMPCommon@@AEB_K@Z 000000018006b2dc f i ClientDOMParserWrapperImpl.obj
 0001:0006a2f8       ?GetAllParameters@ConfigurableImpl@AdobeXMPCore_Int@@$R4CI@CA@PPPPPPPM@DI@EBA?AV?$vector@_KV?$allocator@_K@std@@@std@@XZ 000000018006b2f8 f i ClientDOMParserWrapperImpl.obj
 0001:0006a314       ?Size@ConfigurableImpl@AdobeXMPCore_Int@@$R4BI@CA@PPPPPPPM@DI@EBA_KXZ 000000018006b314 f i ClientDOMParserWrapperImpl.obj
 0001:0006a330       ?GetParameter@IConfigurable_I@AdobeXMPCore_Int@@$R4BI@BE@PPPPPPPM@BI@EBA_NAEB_KAEA_N@Z 000000018006b330 f i ClientDOMParserWrapperImpl.obj
 0001:0006a348       ?GetParameter@IConfigurable_I@AdobeXMPCore_Int@@$R4BI@BE@PPPPPPPM@BI@EBA_NAEB_KAEA_K@Z 000000018006b348 f i ClientDOMParserWrapperImpl.obj
 0001:0006a360       ?GetParameter@IConfigurable_I@AdobeXMPCore_Int@@$R4BI@BE@PPPPPPPM@BI@EBA_NAEB_KAEA_J@Z 000000018006b360 f i ClientDOMParserWrapperImpl.obj
 0001:0006a378       ?GetParameter@IConfigurable_I@AdobeXMPCore_Int@@$R4BI@BE@PPPPPPPM@BI@EBA_NAEB_KAEAN@Z 000000018006b378 f i ClientDOMParserWrapperImpl.obj
 0001:0006a390       ?GetParameter@IConfigurable_I@AdobeXMPCore_Int@@$R4BI@BE@PPPPPPPM@BI@EBA_NAEB_KAEAD@Z 000000018006b390 f i ClientDOMParserWrapperImpl.obj
 0001:0006a3a8       ?GetParameter@IConfigurable_I@AdobeXMPCore_Int@@$R4BI@BE@PPPPPPPM@BI@EBA_NAEB_KAEAPEBD@Z 000000018006b3a8 f i ClientDOMParserWrapperImpl.obj
 0001:0006a3c0       ?GetParameter@IConfigurable_I@AdobeXMPCore_Int@@$R4BI@BE@PPPPPPPM@BI@EBA_NAEB_KAEAPEBX@Z 000000018006b3c0 f i ClientDOMParserWrapperImpl.obj
 0001:0006a3d8       ?GetActualIDOMParser@IDOMParser_I@AdobeXMPCore_Int@@$R4FI@BM@PPPPPPPM@EI@EAAPEAVIDOMParser_v1@AdobeXMPCore@@XZ 000000018006b3d8 f i ClientDOMParserWrapperImpl.obj
 0001:0006a3f4       ?SetErrorCallback@DOMParserImpl@AdobeXMPCore_Int@@$R4JA@CM@PPPPPPPM@KI@EAAXPEAVErrorCallbackInfo@XMPMeta@@@Z 000000018006b3f4 f i ClientDOMParserWrapperImpl.obj
 0001:0006a410       ?parseWithSpecificAction@IDOMParser_I@AdobeXMPCore_Int@@$R2EI@BM@PPPPPPPM@EI@EAAXPEBD_KKPEAVINode_v1@AdobeXMPCore@@AEAPEBVIError_v1@AdobeXMPCommon@@@Z 000000018006b410 f i ClientDOMParserWrapperImpl.obj
 0001:0006a428       ?setParameter@IConfigurable_I@AdobeXMPCore_Int@@$R2CI@BE@PPPPPPPM@BI@EAAXAEB_KKAEBTCombinedDataValue@IConfigurable@AdobeXMPCommon@@AEAPEBVIError_v1@5@@Z 000000018006b428 f i ClientDOMParserWrapperImpl.obj
 0001:0006a444       ?SetParameter@ConfigurableImpl@AdobeXMPCore_Int@@$4PPPPPPPM@A@EAAXAEB_KW4eDataType@IConfigurable@AdobeXMPCommon@@AEBTCombinedDataValue@45@@Z 000000018006b444 f i ClientDOMParserWrapperImpl.obj
 0001:0006a450       ?GetICoreConfigurationManager_I@ICoreConfigurationManager_I@AdobeXMPCore_Int@@$R4EI@BM@PPPPPPPM@EI@EAAPEAV12@XZ 000000018006b450 f i CoreConfigurationManagerImpl.obj
 0001:0006a450       ?GetIDOMParser_I@IDOMParser_I@AdobeXMPCore_Int@@$R4EI@BM@PPPPPPPM@EI@EAAPEAV12@XZ 000000018006b450 f i ClientDOMParserWrapperImpl.obj
 0001:0006a450       ?GetIDOMSerializer_I@IDOMSerializer_I@AdobeXMPCore_Int@@$R4EI@BM@PPPPPPPM@EI@EAAPEAV12@XZ 000000018006b450 f i ClientDOMSerializerWrapperImpl.obj
 0001:0006a468       ??_EClientDOMParserWrapperImpl@AdobeXMPCore_Int@@$2PPPPPPPM@BA@EAAPEAXI@Z 000000018006b468 f i ClientDOMParserWrapperImpl.obj
 0001:0006a478       ?GetISharedObject_I@IDOMParser_I@AdobeXMPCore_Int@@$R4CI@BM@PPPPPPPM@CI@EAAPEAVISharedObject_I@AdobeXMPCommon_Int@@XZ 000000018006b478 f i ClientDOMParserWrapperImpl.obj
 0001:0006a478       ?GetISharedObject_I@IDOMSerializer_I@AdobeXMPCore_Int@@$R4CI@BM@PPPPPPPM@CI@EAAPEAVISharedObject_I@AdobeXMPCommon_Int@@XZ 000000018006b478 f i ClientDOMSerializerWrapperImpl.obj
 0001:0006a490       ?getDataType@IConfigurable_I@AdobeXMPCore_Int@@$R2BI@BE@PPPPPPPM@BI@EBAKAEB_KAEAPEBVIError_v1@AdobeXMPCommon@@@Z 000000018006b490 f i ClientDOMParserWrapperImpl.obj
 0001:0006a4a8       ?SetParameter@ConfigurableImpl@AdobeXMPCore_Int@@$R4HA@CA@PPPPPPPM@EI@EAAXAEB_KW4eDataType@IConfigurable@AdobeXMPCommon@@AEBTCombinedDataValue@45@@Z 000000018006b4a8 f i ClientDOMParserWrapperImpl.obj
 0001:0006a4c4       ??_EDOMParserImpl@AdobeXMPCore_Int@@$2PPPPPPPM@BA@EAAPEAXI@Z 000000018006b4c4 f i ClientDOMParserWrapperImpl.obj
 0001:0006a4d4       ?AcquireInternal@SharedObjectImpl@AdobeXMPCore_Int@@$R4II@CE@PPPPPPPM@DA@EBAXXZ 000000018006b4d4 f i ClientDOMParserWrapperImpl.obj
 0001:0006a4f0       ?getParameter@IConfigurable_I@AdobeXMPCore_Int@@$R2CI@BE@PPPPPPPM@BI@EBAKAEB_KKAEATCombinedDataValue@IConfigurable@AdobeXMPCommon@@AEAPEBVIError_v1@5@@Z 000000018006b4f0 f i ClientDOMParserWrapperImpl.obj
 0001:0006a50c       ?TreatKeyAsCaseInsensitive@ConfigurableImpl@AdobeXMPCore_Int@@$4PPPPPPPM@A@EAAX_N@Z 000000018006b50c f i ClientDOMParserWrapperImpl.obj
 0001:0006a518       ??_EIConfigurable_I@AdobeXMPCore_Int@@$2PPPPPPPM@A@EAAPEAXI@Z 000000018006b518 f i ClientDOMParserWrapperImpl.obj
 0001:0006a524       ?TreatKeyAsCaseInsensitive@ConfigurableImpl@AdobeXMPCore_Int@@$R4HA@CA@PPPPPPPM@EI@EAAX_N@Z 000000018006b524 f i ClientDOMParserWrapperImpl.obj
 0001:0006a540       ?clone@ClientDOMParserWrapperImpl@AdobeXMPCore_Int@@$4PPPPPPPM@A@EBAPEAVDOMParserImpl@2@XZ 000000018006b540 f i ClientDOMParserWrapperImpl.obj
 0001:0006a54c       ?ParseAsNode@ClientDOMParserWrapperImpl@AdobeXMPCore_Int@@$4PPPPPPPM@A@EAA?AV?$shared_ptr@VINode_v1@AdobeXMPCore@@@std@@PEBD_K@Z 000000018006b54c f i ClientDOMParserWrapperImpl.obj
 0001:0006a558       ?setParameter@IConfigurable_I@AdobeXMPCore_Int@@$R2DI@7PPPPPPPM@BI@EAAXAEB_KKAEBTCombinedDataValue@IConfigurable@AdobeXMPCommon@@AEAPEBVIError_v1@5@@Z 000000018006b558 f i ClientDOMParserWrapperImpl.obj
 0001:0006a574       ?ParseWithSpecificAction@DOMParserImpl@AdobeXMPCore_Int@@$R4EI@CM@PPPPPPPM@GA@EAAXPEBD_KW4eActionType@IDOMParser_v1@AdobeXMPCore@@AEAV?$shared_ptr@VINode_v1@AdobeXMPCore@@@std@@@Z 000000018006b574 f i ClientDOMParserWrapperImpl.obj
 0001:0006a590       ?Parse@DOMParserImpl@AdobeXMPCore_Int@@$R4EI@CM@PPPPPPPM@GA@EAA?AV?$shared_ptr@VIMetadata_v1@AdobeXMPCore@@@std@@PEBD_K@Z 000000018006b590 f i ClientDOMParserWrapperImpl.obj
 0001:0006a5ac       ?getAllParameters@IConfigurable_I@AdobeXMPCore_Int@@$R2CI@BE@PPPPPPPM@BI@EBAXPEA_K_K@Z 000000018006b5ac f i ClientDOMParserWrapperImpl.obj
 0001:0006a5c8       ?SetAllowedValueTypesForKeys@ConfigurableImpl@AdobeXMPCore_Int@@$4PPPPPPPM@A@EAAXPEAU?$pair@$$CB_KW4eDataType@IConfigurable@AdobeXMPCommon@@@std@@_K@Z 000000018006b5c8 f i ClientDOMParserWrapperImpl.obj
 0001:0006a5d4       ?AllowDifferentValueTypesForExistingEntries@ConfigurableImpl@AdobeXMPCore_Int@@$4PPPPPPPM@A@EAAX_N@Z 000000018006b5d4 f i ClientDOMParserWrapperImpl.obj
 0001:0006a5e0       ?getInterfacePointer@IDOMParser_I@AdobeXMPCore_Int@@$R2DI@BM@PPPPPPPM@DI@EAAPEAX_KKAEAPEBVIError_v1@AdobeXMPCommon@@@Z 000000018006b5e0 f i ClientDOMParserWrapperImpl.obj
 0001:0006a5f8       ?SetAllowedValueTypesForKeys@ConfigurableImpl@AdobeXMPCore_Int@@$R4HA@CA@PPPPPPPM@EI@EAAXPEAU?$pair@$$CB_KW4eDataType@IConfigurable@AdobeXMPCommon@@@std@@_K@Z 000000018006b5f8 f i ClientDOMParserWrapperImpl.obj
 0001:0006a614       ?AllowDifferentValueTypesForExistingEntries@ConfigurableImpl@AdobeXMPCore_Int@@$R4HA@CA@PPPPPPPM@EI@EAAX_N@Z 000000018006b614 f i ClientDOMParserWrapperImpl.obj
 0001:0006a630       ??_EConfigurableImpl@AdobeXMPCore_Int@@$4PPPPPPPM@A@EAAPEAXI@Z 000000018006b630 f i ClientDOMParserWrapperImpl.obj
 0001:0006a63c       ?getParameter@IConfigurable_I@AdobeXMPCore_Int@@$R2DI@7PPPPPPPM@BI@EBAKAEB_KKAEATCombinedDataValue@IConfigurable@AdobeXMPCommon@@AEAPEBVIError_v1@5@@Z 000000018006b63c f i ClientDOMParserWrapperImpl.obj
 0001:0006a658       ?parse@IDOMParser_I@AdobeXMPCore_Int@@$2PPPPPPPM@A@EAAPEAVIMetadata_v1@AdobeXMPCore@@PEBD_KAEAPEBVIError_v1@AdobeXMPCommon@@@Z 000000018006b658 f i ClientDOMParserWrapperImpl.obj
 0001:0006a664       ?Release@SharedObjectImpl@AdobeXMPCore_Int@@$R4CI@CE@PPPPPPPM@CA@EBAXXZ 000000018006b664 f i ClientDOMParserWrapperImpl.obj
 0001:0006a680       ?ParseWithSpecificAction@DOMParserImpl@AdobeXMPCore_Int@@$4PPPPPPPM@A@EAAXPEBD_KW4eActionType@IDOMParser_v1@AdobeXMPCore@@AEAV?$shared_ptr@VINode_v1@AdobeXMPCore@@@std@@@Z 000000018006b680 f i ClientDOMParserWrapperImpl.obj
 0001:0006a68c       ?Parse@DOMParserImpl@AdobeXMPCore_Int@@$4PPPPPPPM@A@EAA?AV?$shared_ptr@VIMetadata_v1@AdobeXMPCore@@@std@@PEBD_K@Z 000000018006b68c f i ClientDOMParserWrapperImpl.obj
 0001:0006a698       ?setParameter@IConfigurable_I@AdobeXMPCore_Int@@$2PPPPPPPM@A@EAAXAEB_KKAEBTCombinedDataValue@IConfigurable@AdobeXMPCommon@@AEAPEBVIError_v1@5@@Z 000000018006b698 f i ClientDOMParserWrapperImpl.obj
 0001:0006a6a4       ?setParameter@IConfigurable_I@AdobeXMPCore_Int@@$R2BA@BE@PPPPPPPM@BI@EAAXAEB_KKAEBTCombinedDataValue@IConfigurable@AdobeXMPCommon@@AEAPEBVIError_v1@5@@Z 000000018006b6a4 f i ClientDOMParserWrapperImpl.obj
 0001:0006a6c0       ?SetAllowedKeys@ConfigurableImpl@AdobeXMPCore_Int@@$R4GA@CA@PPPPPPPM@EI@EAAXPEA_K_K@Z 000000018006b6c0 f i ClientDOMParserWrapperImpl.obj
 0001:0006a6dc       ?SetParameter@IConfigurable_I@AdobeXMPCore_Int@@$R4CI@BE@PPPPPPPM@BI@EAAXAEB_K_N@Z 000000018006b6dc f i ClientDOMParserWrapperImpl.obj
 0001:0006a6f8       ?SetParameter@IConfigurable_I@AdobeXMPCore_Int@@$R4CI@BE@PPPPPPPM@BI@EAAXAEB_K_K@Z 000000018006b6f8 f i ClientDOMParserWrapperImpl.obj
 0001:0006a714       ?SetParameter@IConfigurable_I@AdobeXMPCore_Int@@$R4CI@BE@PPPPPPPM@BI@EAAXAEB_K_J@Z 000000018006b714 f i ClientDOMParserWrapperImpl.obj
 0001:0006a730       ?SetParameter@IConfigurable_I@AdobeXMPCore_Int@@$R4CI@BE@PPPPPPPM@BI@EAAXAEB_KN@Z 000000018006b730 f i ClientDOMParserWrapperImpl.obj
 0001:0006a74c       ?SetParameter@IConfigurable_I@AdobeXMPCore_Int@@$R4CI@BE@PPPPPPPM@BI@EAAXAEB_KD@Z 000000018006b74c f i ClientDOMParserWrapperImpl.obj
 0001:0006a768       ?SetParameter@IConfigurable_I@AdobeXMPCore_Int@@$R4CI@BE@PPPPPPPM@BI@EAAXAEB_KPEBD@Z 000000018006b768 f i ClientDOMParserWrapperImpl.obj
 0001:0006a784       ?SetParameter@IConfigurable_I@AdobeXMPCore_Int@@$R4CI@BE@PPPPPPPM@BI@EAAXAEB_KPEBX@Z 000000018006b784 f i ClientDOMParserWrapperImpl.obj
 0001:0006a7a0       ?Size@ConfigurableImpl@AdobeXMPCore_Int@@$4PPPPPPPM@A@EBA_KXZ 000000018006b7a0 f i ClientDOMParserWrapperImpl.obj
 0001:0006a7ac       ?getAllParameters@IConfigurable_I@AdobeXMPCore_Int@@$R2DI@7PPPPPPPM@BI@EBAXPEA_K_K@Z 000000018006b7ac f i ClientDOMParserWrapperImpl.obj
 0001:0006a7c8       ?getParameter@IConfigurable_I@AdobeXMPCore_Int@@$2PPPPPPPM@A@EBAKAEB_KKAEATCombinedDataValue@IConfigurable@AdobeXMPCommon@@AEAPEBVIError_v1@5@@Z 000000018006b7c8 f i ClientDOMParserWrapperImpl.obj
 0001:0006a7d4       ?GetInterfacePointer@IDOMParser_I@AdobeXMPCore_Int@@$4PPPPPPPM@A@EAAPEAX_KK@Z 000000018006b7d4 f i ClientDOMParserWrapperImpl.obj
 0001:0006a7e0       ?getParameter@IConfigurable_I@AdobeXMPCore_Int@@$R2BA@BE@PPPPPPPM@BI@EBAKAEB_KKAEATCombinedDataValue@IConfigurable@AdobeXMPCommon@@AEAPEBVIError_v1@5@@Z 000000018006b7e0 f i ClientDOMParserWrapperImpl.obj
 0001:0006a7fc       ?parse@IDOMParser_I@AdobeXMPCore_Int@@$R2FI@BM@PPPPPPPM@EI@EAAPEAVIMetadata_v1@AdobeXMPCore@@PEBD_KAEAPEBVIError_v1@AdobeXMPCommon@@@Z 000000018006b7fc f i ClientDOMParserWrapperImpl.obj
 0001:0006a818       ?Acquire@SharedObjectImpl@AdobeXMPCore_Int@@$R4DI@CE@PPPPPPPM@CA@EBAXXZ 000000018006b818 f i ClientDOMParserWrapperImpl.obj
 0001:0006a834       ?GetParameter@ConfigurableImpl@AdobeXMPCore_Int@@$R4GA@CA@PPPPPPPM@EI@EBA_NAEB_KW4eDataType@IConfigurable@AdobeXMPCommon@@AEATCombinedDataValue@45@@Z 000000018006b834 f i ClientDOMParserWrapperImpl.obj
 0001:0006a850       ?clone@IDOMParser_I@AdobeXMPCore_Int@@$R2EI@BM@PPPPPPPM@EI@EBAPEAVIDOMParser_v1@AdobeXMPCore@@AEAPEBVIError_v1@AdobeXMPCommon@@@Z 000000018006b850 f i ClientDOMParserWrapperImpl.obj
 0001:0006a868       ?parseWithSpecificAction@IDOMParser_I@AdobeXMPCore_Int@@$2PPPPPPPM@A@EAAXPEBD_KKPEAVINode_v1@AdobeXMPCore@@AEAPEBVIError_v1@AdobeXMPCommon@@@Z 000000018006b868 f i ClientDOMParserWrapperImpl.obj
 0001:0006a874       ??_EIDOMParser_I@AdobeXMPCore_Int@@$2PPPPPPPM@BA@EAAPEAXI@Z 000000018006b874 f i ClientDOMParserWrapperImpl.obj
 0001:0006a884       ?GetInterfacePointer@IDOMParser_I@AdobeXMPCore_Int@@$R4EI@BM@PPPPPPPM@DI@EAAPEAX_KK@Z 000000018006b884 f i ClientDOMParserWrapperImpl.obj
 0001:0006a8a0       ?removeParameter@IConfigurable_I@AdobeXMPCore_Int@@$R2CI@BE@PPPPPPPM@BI@EAAKAEB_KAEAPEBVIError_v1@AdobeXMPCommon@@@Z 000000018006b8a0 f i ClientDOMParserWrapperImpl.obj
 0001:0006a8bc       ?SetParameter@IConfigurable_I@AdobeXMPCore_Int@@$R4DI@7PPPPPPPM@BI@EAAXAEB_K_N@Z 000000018006b8bc f i ClientDOMParserWrapperImpl.obj
 0001:0006a8d8       ?SetParameter@IConfigurable_I@AdobeXMPCore_Int@@$R4DI@7PPPPPPPM@BI@EAAXAEB_K_K@Z 000000018006b8d8 f i ClientDOMParserWrapperImpl.obj
 0001:0006a8f4       ?SetParameter@IConfigurable_I@AdobeXMPCore_Int@@$R4DI@7PPPPPPPM@BI@EAAXAEB_K_J@Z 000000018006b8f4 f i ClientDOMParserWrapperImpl.obj
 0001:0006a910       ?SetParameter@IConfigurable_I@AdobeXMPCore_Int@@$R4DI@7PPPPPPPM@BI@EAAXAEB_KN@Z 000000018006b910 f i ClientDOMParserWrapperImpl.obj
 0001:0006a92c       ?SetParameter@IConfigurable_I@AdobeXMPCore_Int@@$R4DI@7PPPPPPPM@BI@EAAXAEB_KD@Z 000000018006b92c f i ClientDOMParserWrapperImpl.obj
 0001:0006a948       ?SetParameter@IConfigurable_I@AdobeXMPCore_Int@@$R4DI@7PPPPPPPM@BI@EAAXAEB_KPEBD@Z 000000018006b948 f i ClientDOMParserWrapperImpl.obj
 0001:0006a964       ?SetParameter@IConfigurable_I@AdobeXMPCore_Int@@$R4DI@7PPPPPPPM@BI@EAAXAEB_KPEBX@Z 000000018006b964 f i ClientDOMParserWrapperImpl.obj
 0001:0006a980       ?getAllParameters@IConfigurable_I@AdobeXMPCore_Int@@$2PPPPPPPM@A@EBAXPEA_K_K@Z 000000018006b980 f i ClientDOMParserWrapperImpl.obj
 0001:0006a98c       ?getAllParameters@IConfigurable_I@AdobeXMPCore_Int@@$R2BA@BE@PPPPPPPM@BI@EBAXPEA_K_K@Z 000000018006b98c f i ClientDOMParserWrapperImpl.obj
 0001:0006a9a8       ?GetMutex@DOMParserImpl@AdobeXMPCore_Int@@$R4GA@CM@PPPPPPPM@HI@EBA?AV?$shared_ptr@VISharedMutex@AdobeXMPCore_Int@@@std@@XZ 000000018006b9a8 f i ClientDOMParserWrapperImpl.obj
 0001:0006a9c4       ?RemoveParameter@ConfigurableImpl@AdobeXMPCore_Int@@$R4BI@CA@PPPPPPPM@DI@EAA_NAEB_K@Z 000000018006b9c4 f i ClientDOMParserWrapperImpl.obj
 0001:0006a9e0       ?SetErrorCallback@DOMParserImpl@AdobeXMPCore_Int@@$4PPPPPPPM@A@EAAXPEAVErrorCallbackInfo@XMPMeta@@@Z 000000018006b9e0 f i ClientDOMParserWrapperImpl.obj
 0001:0006a9e0       ?SetErrorCallback@RDFDOMParserImpl@AdobeXMPCore_Int@@$4PPPPPPPM@A@EAAXPEAVErrorCallbackInfo@XMPMeta@@@Z 000000018006b9e0 f i DOMImplementationRegistryImpl.obj
 0001:0006a9ec       ?GetDataType@ConfigurableImpl@AdobeXMPCore_Int@@$R4BI@CA@PPPPPPPM@DI@EBA?AW4eDataType@IConfigurable@AdobeXMPCommon@@AEB_K@Z 000000018006b9ec f i ClientDOMParserWrapperImpl.obj
 0001:0006aa08       ?GetAllParameters@ConfigurableImpl@AdobeXMPCore_Int@@$R4BI@CA@PPPPPPPM@DI@EBA?AV?$vector@_KV?$allocator@_K@std@@@std@@XZ 000000018006ba08 f i ClientDOMParserWrapperImpl.obj
 0001:0006aa24       ?Size@ConfigurableImpl@AdobeXMPCore_Int@@$R4CI@CA@PPPPPPPM@DI@EBA_KXZ 000000018006ba24 f i ClientDOMParserWrapperImpl.obj
 0001:0006aa40       ?GetParameter@IConfigurable_I@AdobeXMPCore_Int@@$R4CI@BE@PPPPPPPM@BI@EBA_NAEB_KAEA_N@Z 000000018006ba40 f i ClientDOMParserWrapperImpl.obj
 0001:0006aa5c       ?GetParameter@IConfigurable_I@AdobeXMPCore_Int@@$R4CI@BE@PPPPPPPM@BI@EBA_NAEB_KAEA_K@Z 000000018006ba5c f i ClientDOMParserWrapperImpl.obj
 0001:0006aa78       ?GetParameter@IConfigurable_I@AdobeXMPCore_Int@@$R4CI@BE@PPPPPPPM@BI@EBA_NAEB_KAEA_J@Z 000000018006ba78 f i ClientDOMParserWrapperImpl.obj
 0001:0006aa94       ?GetParameter@IConfigurable_I@AdobeXMPCore_Int@@$R4CI@BE@PPPPPPPM@BI@EBA_NAEB_KAEAN@Z 000000018006ba94 f i ClientDOMParserWrapperImpl.obj
 0001:0006aab0       ?GetParameter@IConfigurable_I@AdobeXMPCore_Int@@$R4CI@BE@PPPPPPPM@BI@EBA_NAEB_KAEAD@Z 000000018006bab0 f i ClientDOMParserWrapperImpl.obj
 0001:0006aacc       ?GetParameter@IConfigurable_I@AdobeXMPCore_Int@@$R4CI@BE@PPPPPPPM@BI@EBA_NAEB_KAEAPEBD@Z 000000018006bacc f i ClientDOMParserWrapperImpl.obj
 0001:0006aae8       ?GetParameter@IConfigurable_I@AdobeXMPCore_Int@@$R4CI@BE@PPPPPPPM@BI@EBA_NAEB_KAEAPEBX@Z 000000018006bae8 f i ClientDOMParserWrapperImpl.obj
 0001:0006ab04       ?GetISharedObject_I@IDOMParser_I@AdobeXMPCore_Int@@$4PPPPPPPM@A@EAAPEAVISharedObject_I@AdobeXMPCommon_Int@@XZ 000000018006bb04 f i ClientDOMParserWrapperImpl.obj
 0001:0006ab04       ?GetISharedObject_I@IDOMSerializer_I@AdobeXMPCore_Int@@$4PPPPPPPM@A@EAAPEAVISharedObject_I@AdobeXMPCommon_Int@@XZ 000000018006bb04 f i ClientDOMSerializerWrapperImpl.obj
 0001:0006ab10       ?GetActualIDOMParser@IDOMParser_I@AdobeXMPCore_Int@@$R4EI@BM@PPPPPPPM@EI@EAAPEAVIDOMParser_v1@AdobeXMPCore@@XZ 000000018006bb10 f i ClientDOMParserWrapperImpl.obj
 0001:0006ab10       ?GetActualIDOMSerializer@IDOMSerializer_I@AdobeXMPCore_Int@@$R4EI@BM@PPPPPPPM@EI@EAAPEAVIDOMSerializer_v1@AdobeXMPCore@@XZ 000000018006bb10 f i ClientDOMSerializerWrapperImpl.obj
 0001:0006ab28       ??1IDOMSerializer_v1@AdobeXMPCore@@MEAA@XZ 000000018006bb28 f i ClientDOMSerializerWrapperImpl.obj
 0001:0006ab70       ??_EIDOMSerializer_v1@AdobeXMPCore@@MEAAPEAXI@Z 000000018006bb70 f i * CIL library *:* CIL module *
 0001:0006ab70       ??_GIDOMSerializer_v1@AdobeXMPCore@@MEAAPEAXI@Z 000000018006bb70 f i ClientDOMSerializerWrapperImpl.obj
 0001:0006abe0       ??1IDOMSerializer_I@AdobeXMPCore_Int@@MEAA@XZ 000000018006bbe0 f i ClientDOMSerializerWrapperImpl.obj
 0001:0006aca8       ??_EIDOMSerializer_I@AdobeXMPCore_Int@@MEAAPEAXI@Z 000000018006bca8 f i * CIL library *:* CIL module *
 0001:0006aca8       ??_GIDOMSerializer_I@AdobeXMPCore_Int@@MEAAPEAXI@Z 000000018006bca8 f i ClientDOMSerializerWrapperImpl.obj
 0001:0006ace0       ??1DOMSerializerImpl@AdobeXMPCore_Int@@MEAA@XZ 000000018006bce0 f i ClientDOMSerializerWrapperImpl.obj
 0001:0006ae1c       ??_EDOMSerializerImpl@AdobeXMPCore_Int@@MEAAPEAXI@Z 000000018006be1c f i * CIL library *:* CIL module *
 0001:0006ae1c       ??_GDOMSerializerImpl@AdobeXMPCore_Int@@MEAAPEAXI@Z 000000018006be1c f i ClientDOMSerializerWrapperImpl.obj
 0001:0006ae7c       ??0ClientDOMSerializerWrapperImpl@AdobeXMPCore_Int@@QEAA@PEAVIClientDOMSerializer_v1@AdobeXMPCore@@@Z 000000018006be7c f   ClientDOMSerializerWrapperImpl.obj
 0001:0006b3f0       ??_EClientDOMSerializerWrapperImpl@AdobeXMPCore_Int@@MEAAPEAXI@Z 000000018006c3f0 f i * CIL library *:* CIL module *
 0001:0006b3f0       ??_GClientDOMSerializerWrapperImpl@AdobeXMPCore_Int@@MEAAPEAXI@Z 000000018006c3f0 f i ClientDOMSerializerWrapperImpl.obj
 0001:0006b570       ??1ClientDOMSerializerWrapperImpl@AdobeXMPCore_Int@@MEAA@XZ 000000018006c570 f   ClientDOMSerializerWrapperImpl.obj
 0001:0006b6b4       ?clone@ClientDOMSerializerWrapperImpl@AdobeXMPCore_Int@@MEBAPEAVDOMSerializerImpl@2@XZ 000000018006c6b4 f   ClientDOMSerializerWrapperImpl.obj
 0001:0006b714       ?Serialize@ClientDOMSerializerWrapperImpl@AdobeXMPCore_Int@@UEAA?AV?$shared_ptr@VIUTF8String_v1@AdobeXMPCommon@@@std@@AEBV?$shared_ptr@VINode_v1@AdobeXMPCore@@@4@AEBV?$shared_ptr@$$CBVINameSpacePrefixMap_v1@AdobeXMPCore@@@4@@Z 000000018006c714 f   ClientDOMSerializerWrapperImpl.obj
 0001:0006ba44       ?ValidateValue@ClientDOMSerializerWrapperImpl@AdobeXMPCore_Int@@UEBA?AW4eConfigurableErrorCode@AdobeXMPCommon@@AEB_KW4eDataType@IConfigurable@4@AEBTCombinedDataValue@64@@Z 000000018006ca44 f   ClientDOMSerializerWrapperImpl.obj
 0001:0006bbb8       ?ConvertToArrayNode@NodeImpl@AdobeXMPCore_Int@@UEAA?AV?$shared_ptr@VIArrayNode_v1@AdobeXMPCore@@@std@@XZ 000000018006cbb8 f   NodeImpl.obj
 0001:0006bbb8       ?ConvertToMetadata@NodeImpl@AdobeXMPCore_Int@@UEAA?AV?$shared_ptr@VIMetadata_v1@AdobeXMPCore@@@std@@XZ 000000018006cbb8 f   NodeImpl.obj
 0001:0006bbb8       ?ConvertToSimpleNode@NodeImpl@AdobeXMPCore_Int@@UEAA?AV?$shared_ptr@VISimpleNode_v1@AdobeXMPCore@@@std@@XZ 000000018006cbb8 f   NodeImpl.obj
 0001:0006bbb8       ?ConvertToStructureNode@NodeImpl@AdobeXMPCore_Int@@UEAA?AV?$shared_ptr@VIStructureNode_v1@AdobeXMPCore@@@std@@XZ 000000018006cbb8 f   NodeImpl.obj
 0001:0006bbb8       ?GetParent@MetadataImpl@AdobeXMPCore_Int@@MEAA?AV?$shared_ptr@VINode_v1@AdobeXMPCore@@@std@@XZ 000000018006cbb8 f   MetadataImpl.obj
 0001:0006bbb8       ?SerializeInternal@ClientDOMSerializerWrapperImpl@AdobeXMPCore_Int@@UEBA?AV?$shared_ptr@VIUTF8String_v1@AdobeXMPCommon@@@std@@AEBV?$shared_ptr@VINode_v1@AdobeXMPCore@@@4@K_KPEBD21AEBV?$shared_ptr@$$CBVINameSpacePrefixMap_v1@AdobeXMPCore@@@4@@Z 000000018006cbb8 f   ClientDOMSerializerWrapperImpl.obj
 0001:0006bbcc       ?SetAllowedKeys@ConfigurableImpl@AdobeXMPCore_Int@@$R4GI@CA@PPPPPPPM@EI@EAAXPEA_K_K@Z 000000018006cbcc f i ClientDOMSerializerWrapperImpl.obj
 0001:0006bbe8       ?GetActualIDOMSerializer@IDOMSerializer_I@AdobeXMPCore_Int@@$R4FA@BM@PPPPPPPM@EI@EAAPEAVIDOMSerializer_v1@AdobeXMPCore@@XZ 000000018006cbe8 f i ClientDOMSerializerWrapperImpl.obj
 0001:0006bc04       ??_EDOMSerializerImpl@AdobeXMPCore_Int@@$2PPPPPPPM@A@EAAPEAXI@Z 000000018006cc04 f i ClientDOMSerializerWrapperImpl.obj
 0001:0006bc10       ?Clone@DOMSerializerImpl@AdobeXMPCore_Int@@$R4EI@CM@PPPPPPPM@FI@EBA?AV?$shared_ptr@VIDOMSerializer_v1@AdobeXMPCore@@@std@@XZ 000000018006cc10 f i ClientDOMSerializerWrapperImpl.obj
 0001:0006bc2c       ?GetIDOMSerializer_I@IDOMSerializer_I@AdobeXMPCore_Int@@$R4FA@BM@PPPPPPPM@EI@EAAPEAV12@XZ 000000018006cc2c f i ClientDOMSerializerWrapperImpl.obj
 0001:0006bc48       ??_EDOMSerializerImpl@AdobeXMPCore_Int@@$2PPPPPPPM@CA@EAAPEAXI@Z 000000018006cc48 f i ClientDOMSerializerWrapperImpl.obj
 0001:0006bc58       ?GetParameter@ConfigurableImpl@AdobeXMPCore_Int@@$R4GI@CA@PPPPPPPM@EI@EBA_NAEB_KW4eDataType@IConfigurable@AdobeXMPCommon@@AEATCombinedDataValue@45@@Z 000000018006cc58 f i ClientDOMSerializerWrapperImpl.obj
 0001:0006bc74       ?getInterfacePointer@IDOMSerializer_I@AdobeXMPCore_Int@@$2PPPPPPPM@A@EAAPEAX_KKAEAPEBVIError_v1@AdobeXMPCommon@@@Z 000000018006cc74 f i ClientDOMSerializerWrapperImpl.obj
 0001:0006bc80       ?clone@ClientDOMSerializerWrapperImpl@AdobeXMPCore_Int@@$2PPPPPPPM@A@EBAPEAVDOMSerializerImpl@2@XZ 000000018006cc80 f i ClientDOMSerializerWrapperImpl.obj
 0001:0006bc8c       ?RemoveParameter@ConfigurableImpl@AdobeXMPCore_Int@@$R4CA@CA@PPPPPPPM@DI@EAA_NAEB_K@Z 000000018006cc8c f i ClientDOMSerializerWrapperImpl.obj
 0001:0006bca8       ?GetDataType@ConfigurableImpl@AdobeXMPCore_Int@@$R4CA@CA@PPPPPPPM@DI@EBA?AW4eDataType@IConfigurable@AdobeXMPCommon@@AEB_K@Z 000000018006cca8 f i ClientDOMSerializerWrapperImpl.obj
 0001:0006bcc4       ?GetAllParameters@ConfigurableImpl@AdobeXMPCore_Int@@$R4CA@CA@PPPPPPPM@DI@EBA?AV?$vector@_KV?$allocator@_K@std@@@std@@XZ 000000018006ccc4 f i ClientDOMSerializerWrapperImpl.obj
 0001:0006bce0       ?setParameter@IConfigurable_I@AdobeXMPCore_Int@@$R2CA@BE@PPPPPPPM@BI@EAAXAEB_KKAEBTCombinedDataValue@IConfigurable@AdobeXMPCommon@@AEAPEBVIError_v1@5@@Z 000000018006cce0 f i ClientDOMSerializerWrapperImpl.obj
 0001:0006bcfc       ?Serialize@ClientDOMSerializerWrapperImpl@AdobeXMPCore_Int@@$4PPPPPPPM@A@EAA?AV?$shared_ptr@VIUTF8String_v1@AdobeXMPCommon@@@std@@AEBV?$shared_ptr@VINode_v1@AdobeXMPCore@@@4@AEBV?$shared_ptr@$$CBVINameSpacePrefixMap_v1@AdobeXMPCore@@@4@@Z 000000018006ccfc f i ClientDOMSerializerWrapperImpl.obj
 0001:0006bd08       ?SetParameter@ConfigurableImpl@AdobeXMPCore_Int@@$R4GI@CA@PPPPPPPM@EI@EAAXAEB_KW4eDataType@IConfigurable@AdobeXMPCommon@@AEBTCombinedDataValue@45@@Z 000000018006cd08 f i ClientDOMSerializerWrapperImpl.obj
 0001:0006bd24       ??_EClientDOMSerializerWrapperImpl@AdobeXMPCore_Int@@$2PPPPPPPM@BA@EAAPEAXI@Z 000000018006cd24 f i ClientDOMSerializerWrapperImpl.obj
 0001:0006bd34       ?AcquireInternal@SharedObjectImpl@AdobeXMPCore_Int@@$R4IA@CE@PPPPPPPM@DA@EBAXXZ 000000018006cd34 f i ClientDOMSerializerWrapperImpl.obj
 0001:0006bd50       ?getParameter@IConfigurable_I@AdobeXMPCore_Int@@$R2CA@BE@PPPPPPPM@BI@EBAKAEB_KKAEATCombinedDataValue@IConfigurable@AdobeXMPCommon@@AEAPEBVIError_v1@5@@Z 000000018006cd50 f i ClientDOMSerializerWrapperImpl.obj
 0001:0006bd6c       ?GetInterfacePointer@IDOMSerializer_I@AdobeXMPCore_Int@@$R4DI@BM@PPPPPPPM@DI@EAAPEAX_KK@Z 000000018006cd6c f i ClientDOMSerializerWrapperImpl.obj
 0001:0006bd84       ?TreatKeyAsCaseInsensitive@ConfigurableImpl@AdobeXMPCore_Int@@$R4GI@CA@PPPPPPPM@EI@EAAX_N@Z 000000018006cd84 f i ClientDOMSerializerWrapperImpl.obj
 0001:0006bda0       ?Clone@DOMSerializerImpl@AdobeXMPCore_Int@@$4PPPPPPPM@A@EBA?AV?$shared_ptr@VIDOMSerializer_v1@AdobeXMPCore@@@std@@XZ 000000018006cda0 f i ClientDOMSerializerWrapperImpl.obj
 0001:0006bdac       ??_EIDOMSerializer_v1@AdobeXMPCore@@O7EAAPEAXI@Z 000000018006cdac f i ClientDOMSerializerWrapperImpl.obj
 0001:0006bdb8       ?getAllParameters@IConfigurable_I@AdobeXMPCore_Int@@$R2CA@BE@PPPPPPPM@BI@EBAXPEA_K_K@Z 000000018006cdb8 f i ClientDOMSerializerWrapperImpl.obj
 0001:0006bdd4       ?SetAllowedValueTypesForKeys@ConfigurableImpl@AdobeXMPCore_Int@@$R4GI@CA@PPPPPPPM@EI@EAAXPEAU?$pair@$$CB_KW4eDataType@IConfigurable@AdobeXMPCommon@@@std@@_K@Z 000000018006cdd4 f i ClientDOMSerializerWrapperImpl.obj
 0001:0006bdf0       ?AllowDifferentValueTypesForExistingEntries@ConfigurableImpl@AdobeXMPCore_Int@@$R4GI@CA@PPPPPPPM@EI@EAAX_N@Z 000000018006cdf0 f i ClientDOMSerializerWrapperImpl.obj
 0001:0006be0c       ??_EIDOMSerializer_I@AdobeXMPCore_Int@@$2PPPPPPPM@BA@EAAPEAXI@Z 000000018006ce0c f i ClientDOMSerializerWrapperImpl.obj
 0001:0006be1c       ??_EDOMSerializerImpl@AdobeXMPCore_Int@@$2PPPPPPPM@BA@EAAPEAXI@Z 000000018006ce1c f i ClientDOMSerializerWrapperImpl.obj
 0001:0006be2c       ?SetParameter@IConfigurable_I@AdobeXMPCore_Int@@$R4CA@BE@PPPPPPPM@BI@EAAXAEB_K_N@Z 000000018006ce2c f i ClientDOMSerializerWrapperImpl.obj
 0001:0006be48       ?SetParameter@IConfigurable_I@AdobeXMPCore_Int@@$R4CA@BE@PPPPPPPM@BI@EAAXAEB_K_K@Z 000000018006ce48 f i ClientDOMSerializerWrapperImpl.obj
 0001:0006be64       ?SetParameter@IConfigurable_I@AdobeXMPCore_Int@@$R4CA@BE@PPPPPPPM@BI@EAAXAEB_K_J@Z 000000018006ce64 f i ClientDOMSerializerWrapperImpl.obj
 0001:0006be80       ?SetParameter@IConfigurable_I@AdobeXMPCore_Int@@$R4CA@BE@PPPPPPPM@BI@EAAXAEB_KN@Z 000000018006ce80 f i ClientDOMSerializerWrapperImpl.obj
 0001:0006be9c       ?SetParameter@IConfigurable_I@AdobeXMPCore_Int@@$R4CA@BE@PPPPPPPM@BI@EAAXAEB_KD@Z 000000018006ce9c f i ClientDOMSerializerWrapperImpl.obj
 0001:0006beb8       ?SetParameter@IConfigurable_I@AdobeXMPCore_Int@@$R4CA@BE@PPPPPPPM@BI@EAAXAEB_KPEBD@Z 000000018006ceb8 f i ClientDOMSerializerWrapperImpl.obj
 0001:0006bed4       ?SetParameter@IConfigurable_I@AdobeXMPCore_Int@@$R4CA@BE@PPPPPPPM@BI@EAAXAEB_KPEBX@Z 000000018006ced4 f i ClientDOMSerializerWrapperImpl.obj
 0001:0006bef0       ?clone@IDOMSerializer_I@AdobeXMPCore_Int@@$R2EI@BM@PPPPPPPM@EI@EBAPEAVIDOMSerializer_v1@AdobeXMPCore@@AEAPEBVIError_v1@AdobeXMPCommon@@@Z 000000018006cef0 f i ClientDOMSerializerWrapperImpl.obj
 0001:0006bf08       ?GetInterfacePointer@IDOMSerializer_I@AdobeXMPCore_Int@@$R4EA@BM@PPPPPPPM@DI@EAAPEAX_KK@Z 000000018006cf08 f i ClientDOMSerializerWrapperImpl.obj
 0001:0006bf24       ?Acquire@SharedObjectImpl@AdobeXMPCore_Int@@$R4DA@CE@PPPPPPPM@CA@EBAXXZ 000000018006cf24 f i ClientDOMSerializerWrapperImpl.obj
 0001:0006bf40       ?serialize@IDOMSerializer_I@AdobeXMPCore_Int@@$R2EI@BM@PPPPPPPM@EI@EAAPEAVIUTF8String_v1@AdobeXMPCommon@@PEAVINode_v1@AdobeXMPCore@@PEBVINameSpacePrefixMap_v1@6@AEAPEBVIError_v1@4@@Z 000000018006cf40 f i ClientDOMSerializerWrapperImpl.obj
 0001:0006bf58       ?GetMessage@ErrorImpl@AdobeXMPCore_Int@@$4PPPPPPPM@A@EBA?AV?$shared_ptr@$$CBVIUTF8String_v1@AdobeXMPCommon@@@std@@XZ 000000018006cf58 f i ErrorImpl.obj
 0001:0006bf58       ?GetMutex@DOMSerializerImpl@AdobeXMPCore_Int@@$4PPPPPPPM@A@EBA?AV?$shared_ptr@VISharedMutex@AdobeXMPCore_Int@@@std@@XZ 000000018006cf58 f i ClientDOMSerializerWrapperImpl.obj
 0001:0006bf64       ??_EIDOMSerializer_v1@AdobeXMPCore@@OBA@EAAPEAXI@Z 000000018006cf64 f i ClientDOMSerializerWrapperImpl.obj
 0001:0006bf70       ?removeParameter@IConfigurable_I@AdobeXMPCore_Int@@$R2CA@BE@PPPPPPPM@BI@EAAKAEB_KAEAPEBVIError_v1@AdobeXMPCommon@@@Z 000000018006cf70 f i ClientDOMSerializerWrapperImpl.obj
 0001:0006bf8c       ?GetISharedObject_I@IDOMSerializer_I@AdobeXMPCore_Int@@$R4DA@BM@PPPPPPPM@CI@EAAPEAVISharedObject_I@AdobeXMPCommon_Int@@XZ 000000018006cf8c f i ClientDOMSerializerWrapperImpl.obj
 0001:0006bfa8       ?Size@ConfigurableImpl@AdobeXMPCore_Int@@$R4CA@CA@PPPPPPPM@DI@EBA_KXZ 000000018006cfa8 f i ClientDOMSerializerWrapperImpl.obj
 0001:0006bfc4       ?GetParameter@IConfigurable_I@AdobeXMPCore_Int@@$R4CA@BE@PPPPPPPM@BI@EBA_NAEB_KAEA_N@Z 000000018006cfc4 f i ClientDOMSerializerWrapperImpl.obj
 0001:0006bfe0       ?GetParameter@IConfigurable_I@AdobeXMPCore_Int@@$R4CA@BE@PPPPPPPM@BI@EBA_NAEB_KAEA_K@Z 000000018006cfe0 f i ClientDOMSerializerWrapperImpl.obj
 0001:0006bffc       ?GetParameter@IConfigurable_I@AdobeXMPCore_Int@@$R4CA@BE@PPPPPPPM@BI@EBA_NAEB_KAEA_J@Z 000000018006cffc f i ClientDOMSerializerWrapperImpl.obj
 0001:0006c018       ?GetParameter@IConfigurable_I@AdobeXMPCore_Int@@$R4CA@BE@PPPPPPPM@BI@EBA_NAEB_KAEAN@Z 000000018006d018 f i ClientDOMSerializerWrapperImpl.obj
 0001:0006c034       ?GetParameter@IConfigurable_I@AdobeXMPCore_Int@@$R4CA@BE@PPPPPPPM@BI@EBA_NAEB_KAEAD@Z 000000018006d034 f i ClientDOMSerializerWrapperImpl.obj
 0001:0006c050       ?GetParameter@IConfigurable_I@AdobeXMPCore_Int@@$R4CA@BE@PPPPPPPM@BI@EBA_NAEB_KAEAPEBD@Z 000000018006d050 f i ClientDOMSerializerWrapperImpl.obj
 0001:0006c06c       ?GetParameter@IConfigurable_I@AdobeXMPCore_Int@@$R4CA@BE@PPPPPPPM@BI@EBA_NAEB_KAEAPEBX@Z 000000018006d06c f i ClientDOMSerializerWrapperImpl.obj
 0001:0006c088       ?ValidateValue@ClientDOMSerializerWrapperImpl@AdobeXMPCore_Int@@$4PPPPPPPM@A@EBA?AW4eConfigurableErrorCode@AdobeXMPCommon@@AEB_KW4eDataType@IConfigurable@4@AEBTCombinedDataValue@64@@Z 000000018006d088 f i ClientDOMSerializerWrapperImpl.obj
 0001:0006c094       ?getInterfacePointer@IDOMSerializer_I@AdobeXMPCore_Int@@$R2DI@BM@PPPPPPPM@DI@EAAPEAX_KKAEAPEBVIError_v1@AdobeXMPCommon@@@Z 000000018006d094 f i ClientDOMSerializerWrapperImpl.obj
 0001:0006c0ac       ?GetInterfacePointer@IDOMSerializer_I@AdobeXMPCore_Int@@$4PPPPPPPM@A@EAAPEAX_KK@Z 000000018006d0ac f i ClientDOMSerializerWrapperImpl.obj
 0001:0006c0b8       ?getDataType@IConfigurable_I@AdobeXMPCore_Int@@$R2CA@BE@PPPPPPPM@BI@EBAKAEB_KAEAPEBVIError_v1@AdobeXMPCommon@@@Z 000000018006d0b8 f i ClientDOMSerializerWrapperImpl.obj
 0001:0006c0d4       ??_EClientDOMSerializerWrapperImpl@AdobeXMPCore_Int@@$2PPPPPPPM@A@EAAPEAXI@Z 000000018006d0d4 f i ClientDOMSerializerWrapperImpl.obj
 0001:0006c0e0       ?clone@IDOMSerializer_I@AdobeXMPCore_Int@@$R2FA@BM@PPPPPPPM@EI@EBAPEAVIDOMSerializer_v1@AdobeXMPCore@@AEAPEBVIError_v1@AdobeXMPCommon@@@Z 000000018006d0e0 f i ClientDOMSerializerWrapperImpl.obj
 0001:0006c0fc       ?GetMutex@DOMSerializerImpl@AdobeXMPCore_Int@@$R4GA@CM@PPPPPPPM@HA@EBA?AV?$shared_ptr@VISharedMutex@AdobeXMPCore_Int@@@std@@XZ 000000018006d0fc f i ClientDOMSerializerWrapperImpl.obj
 0001:0006c118       ??_EClientDOMSerializerWrapperImpl@AdobeXMPCore_Int@@$2PPPPPPPM@CA@EAAPEAXI@Z 000000018006d118 f i ClientDOMSerializerWrapperImpl.obj
 0001:0006c128       ?ValidateValue@ConfigurableImpl@AdobeXMPCore_Int@@$R4GI@CA@PPPPPPPM@EI@EBA?AW4eConfigurableErrorCode@AdobeXMPCommon@@AEB_KW4eDataType@IConfigurable@4@AEBTCombinedDataValue@64@@Z 000000018006d128 f i ClientDOMSerializerWrapperImpl.obj
 0001:0006c144       ?serialize@IDOMSerializer_I@AdobeXMPCore_Int@@$R2FA@BM@PPPPPPPM@EI@EAAPEAVIUTF8String_v1@AdobeXMPCommon@@PEAVINode_v1@AdobeXMPCore@@PEBVINameSpacePrefixMap_v1@6@AEAPEBVIError_v1@4@@Z 000000018006d144 f i ClientDOMSerializerWrapperImpl.obj
 0001:0006c160       ?clone@IDOMSerializer_I@AdobeXMPCore_Int@@$2PPPPPPPM@A@EBAPEAVIDOMSerializer_v1@AdobeXMPCore@@AEAPEBVIError_v1@AdobeXMPCommon@@@Z 000000018006d160 f i ClientDOMSerializerWrapperImpl.obj
 0001:0006c16c       ??_EIDOMSerializer_I@AdobeXMPCore_Int@@$2PPPPPPPM@A@EAAPEAXI@Z 000000018006d16c f i ClientDOMSerializerWrapperImpl.obj
 0001:0006c178       ?getInterfacePointer@IDOMSerializer_I@AdobeXMPCore_Int@@$R2EA@BM@PPPPPPPM@DI@EAAPEAX_KKAEAPEBVIError_v1@AdobeXMPCommon@@@Z 000000018006d178 f i ClientDOMSerializerWrapperImpl.obj
 0001:0006c194       ?Release@SharedObjectImpl@AdobeXMPCore_Int@@$R4DA@CE@PPPPPPPM@CA@EBAXXZ 000000018006d194 f i ClientDOMSerializerWrapperImpl.obj
 0001:0006c1b0       ?serialize@IDOMSerializer_I@AdobeXMPCore_Int@@$2PPPPPPPM@A@EAAPEAVIUTF8String_v1@AdobeXMPCommon@@PEAVINode_v1@AdobeXMPCore@@PEBVINameSpacePrefixMap_v1@6@AEAPEBVIError_v1@4@@Z 000000018006d1b0 f i ClientDOMSerializerWrapperImpl.obj
 0001:0006c1bc       ??_EIDOMSerializer_I@AdobeXMPCore_Int@@$2PPPPPPPM@CA@EAAPEAXI@Z 000000018006d1bc f i ClientDOMSerializerWrapperImpl.obj
 0001:0006c1cc       ?compare@IUTF8String_v1@AdobeXMPCommon@@QEBAJAEBV?$shared_ptr@$$CBVIUTF8String_v1@AdobeXMPCommon@@@std@@@Z 000000018006d1cc f i CompositeNodeImpl.obj
 0001:0006c524       ?GetNodeTypeAtPath@CompositeNodeImpl@AdobeXMPCore_Int@@UEBA?AW4eNodeType@INode_v1@AdobeXMPCore@@AEBV?$shared_ptr@$$CBVIPath_v1@AdobeXMPCore@@@std@@@Z 000000018006d524 f   CompositeNodeImpl.obj
 0001:0006c5a4       ?GetNodeAtPath@CompositeNodeImpl@AdobeXMPCore_Int@@UEAA?AV?$shared_ptr@VINode_v1@AdobeXMPCore@@@std@@AEBV?$shared_ptr@$$CBVIPath_v1@AdobeXMPCore@@@4@@Z 000000018006d5a4 f   CompositeNodeImpl.obj
 0001:0006d110       ?InsertNodeAtPath@CompositeNodeImpl@AdobeXMPCore_Int@@UEAAXAEBV?$shared_ptr@VINode_v1@AdobeXMPCore@@@std@@AEBV?$shared_ptr@$$CBVIPath_v1@AdobeXMPCore@@@4@@Z 000000018006e110 f   CompositeNodeImpl.obj
 0001:0006d1f0       ?ReplaceNodeAtPath@CompositeNodeImpl@AdobeXMPCore_Int@@UEAA?AV?$shared_ptr@VINode_v1@AdobeXMPCore@@@std@@AEBV34@AEBV?$shared_ptr@$$CBVIPath_v1@AdobeXMPCore@@@4@@Z 000000018006e1f0 f   CompositeNodeImpl.obj
 0001:0006d2d0       ?RemoveNodeAtPath@CompositeNodeImpl@AdobeXMPCore_Int@@UEAA?AV?$shared_ptr@VINode_v1@AdobeXMPCore@@@std@@AEBV?$shared_ptr@$$CBVIPath_v1@AdobeXMPCore@@@4@@Z 000000018006e2d0 f   CompositeNodeImpl.obj
 0001:0006d63c       ?CheckSuitabilityToBeUsedAsChildNode@CompositeNodeImpl@AdobeXMPCore_Int@@UEBA_NAEBV?$shared_ptr@$$CBVINode_v1@AdobeXMPCore@@@std@@@Z 000000018006e63c f   CompositeNodeImpl.obj
 0001:0006d818       ?_Destroy@?$_Ref_count_resource_alloc@PEAVCompositeNodeImpl@AdobeXMPCore_Int@@V?$_Mem_fn@P8NodeImpl@AdobeXMPCore_Int@@EBAXX_E@std@@V?$TAllocator@VCompositeNodeImpl@AdobeXMPCore_Int@@@2@@std@@EEAAXXZ 000000018006e818 f i CompositeNodeImpl.obj
 0001:0006d860       ??_EIConfigurationManager_v1@AdobeXMPCommon@@UEAAPEAXI@Z 000000018006e860 f i * CIL library *:* CIL module *
 0001:0006d860       ??_GIConfigurationManager_v1@AdobeXMPCommon@@UEAAPEAXI@Z 000000018006e860 f i CoreConfigurationManagerImpl.obj
 0001:0006d8b8       ??_EICoreConfigurationManager_v1@AdobeXMPCore@@MEAAPEAXI@Z 000000018006e8b8 f i * CIL library *:* CIL module *
 0001:0006d8b8       ??_GICoreConfigurationManager_v1@AdobeXMPCore@@MEAAPEAXI@Z 000000018006e8b8 f i CoreConfigurationManagerImpl.obj
 0001:0006d928       ??_EIConfigurationManager_I@AdobeXMPCore_Int@@UEAAPEAXI@Z 000000018006e928 f i * CIL library *:* CIL module *
 0001:0006d928       ??_GIConfigurationManager_I@AdobeXMPCore_Int@@UEAAPEAXI@Z 000000018006e928 f i CoreConfigurationManagerImpl.obj
 0001:0006d9bc       ?GetActualICoreConfigurationManager@ICoreConfigurationManager_I@AdobeXMPCore_Int@@UEAAPEAVICoreConfigurationManager_v1@AdobeXMPCore@@XZ 000000018006e9bc f i CoreConfigurationManagerImpl.obj
 0001:0006d9d8       ?GetISharedObject_I@ICoreConfigurationManager_I@AdobeXMPCore_Int@@UEAAPEAVISharedObject_I@AdobeXMPCommon_Int@@XZ 000000018006e9d8 f i CoreConfigurationManagerImpl.obj
 0001:0006d9f4       ??1ICoreConfigurationManager_I@AdobeXMPCore_Int@@MEAA@XZ 000000018006e9f4 f i CoreConfigurationManagerImpl.obj
 0001:0006da9c       ??_EICoreConfigurationManager_I@AdobeXMPCore_Int@@MEAAPEAXI@Z 000000018006ea9c f i * CIL library *:* CIL module *
 0001:0006da9c       ??_GICoreConfigurationManager_I@AdobeXMPCore_Int@@MEAAPEAXI@Z 000000018006ea9c f i CoreConfigurationManagerImpl.obj
 0001:0006dad4       ??_EConfigurationManagerImpl@AdobeXMPCore_Int@@MEAAPEAXI@Z 000000018006ead4 f i * CIL library *:* CIL module *
 0001:0006dad4       ??_GConfigurationManagerImpl@AdobeXMPCore_Int@@MEAAPEAXI@Z 000000018006ead4 f i CoreConfigurationManagerImpl.obj
 0001:0006dcac       ??1CoreConfigurationManagerImpl@AdobeXMPCore_Int@@MEAA@XZ 000000018006ecac f i CoreConfigurationManagerImpl.obj
 0001:0006dd64       ??_ECoreConfigurationManagerImpl@AdobeXMPCore_Int@@MEAAPEAXI@Z 000000018006ed64 f i * CIL library *:* CIL module *
 0001:0006dd64       ??_GCoreConfigurationManagerImpl@AdobeXMPCore_Int@@MEAAPEAXI@Z 000000018006ed64 f i CoreConfigurationManagerImpl.obj
 0001:0006ddc4       ??_DCoreConfigurationManagerImpl@AdobeXMPCore_Int@@IEAAXXZ 000000018006edc4 f i CoreConfigurationManagerImpl.obj
 0001:0006e004       ??0CoreConfigurationManagerImpl@AdobeXMPCore_Int@@QEAA@XZ 000000018006f004 f   CoreConfigurationManagerImpl.obj
 0001:0006e65c       ?GetCoreConfigurationManager@ICoreConfigurationManager_v1@AdobeXMPCore@@SA?AV?$shared_ptr@VICoreConfigurationManager_v1@AdobeXMPCore@@@std@@XZ 000000018006f65c f   CoreConfigurationManagerImpl.obj
 0001:0006e678       ?_Destroy@?$_Ref_count_resource_alloc@PEAVCoreConfigurationManagerImpl@AdobeXMPCore_Int@@V?$_Mem_fn@P8SharedObjectImpl@AdobeXMPCore_Int@@EBAXX_E@std@@V?$TAllocator@VCoreConfigurationManagerImpl@AdobeXMPCore_Int@@@2@@std@@EEAAXXZ 000000018006f678 f i CoreConfigurationManagerImpl.obj
 0001:0006e678       ?_Destroy@?$_Ref_count_resource_alloc@PEAVNameSpacePrefixMapImpl@AdobeXMPCore_Int@@V?$_Mem_fn@P8SharedObjectImpl@AdobeXMPCore_Int@@EBAXX_E@std@@V?$TAllocator@VNameSpacePrefixMapImpl@AdobeXMPCore_Int@@@2@@std@@EEAAXXZ 000000018006f678 f i NameSpacePrefixMapImpl.obj
 0001:0006e6b8       ?registerErrorNotifier@IConfigurationManager_I@AdobeXMPCore_Int@@$R2DI@BE@PPPPPPPM@CI@EAAKPEAVIErrorNotifier_v1@AdobeXMPCommon@@AEAPEBVIError_v1@4@@Z 000000018006f6b8 f i CoreConfigurationManagerImpl.obj
 0001:0006e6d4       ?DisableMultiThreading@ConfigurationManagerImpl@AdobeXMPCore_Int@@$4PPPPPPPM@A@EAA_NXZ 000000018006f6d4 f i CoreConfigurationManagerImpl.obj
 0001:0006e6e0       ?GetActualICoreConfigurationManager@ICoreConfigurationManager_I@AdobeXMPCore_Int@@$4PPPPPPPM@A@EAAPEAVICoreConfigurationManager_v1@AdobeXMPCore@@XZ 000000018006f6e0 f i CoreConfigurationManagerImpl.obj
 0001:0006e6ec       ?GetInterfacePointer@ICoreConfigurationManager_I@AdobeXMPCore_Int@@$4PPPPPPPM@A@EAAPEAX_KK@Z 000000018006f6ec f i CoreConfigurationManagerImpl.obj
 0001:0006e6f8       ?AcquireInternal@SharedObjectImpl@AdobeXMPCore_Int@@$R4GA@CA@PPPPPPPM@DA@EBAXXZ 000000018006f6f8 f i CoreConfigurationManagerImpl.obj
 0001:0006e714       ?RegisterErrorNotifier@ConfigurationManagerImpl@AdobeXMPCore_Int@@$R4DA@CI@PPPPPPPM@DI@EAA_NPEAVIErrorNotifier_v1@AdobeXMPCommon@@@Z 000000018006f714 f i CoreConfigurationManagerImpl.obj
 0001:0006e730       ?GetInterfacePointer@ICoreConfigurationManager_I@AdobeXMPCore_Int@@$R4CA@BM@PPPPPPPM@CA@EAAPEAX_KK@Z 000000018006f730 f i CoreConfigurationManagerImpl.obj
 0001:0006e748       ??_EICoreConfigurationManager_v1@AdobeXMPCore@@O7EAAPEAXI@Z 000000018006f748 f i CoreConfigurationManagerImpl.obj
 0001:0006e754       ?registerErrorNotifier@IConfigurationManager_I@AdobeXMPCore_Int@@$2PPPPPPPM@A@EAAKPEAVIErrorNotifier_v1@AdobeXMPCommon@@AEAPEBVIError_v1@4@@Z 000000018006f754 f i CoreConfigurationManagerImpl.obj
 0001:0006e760       ?IsMultiThreaded@ConfigurationManagerImpl@AdobeXMPCore_Int@@$R4DA@CI@PPPPPPPM@DI@EBA_NXZ 000000018006f760 f i CoreConfigurationManagerImpl.obj
 0001:0006e77c       ??_ECoreConfigurationManagerImpl@AdobeXMPCore_Int@@$2PPPPPPPM@BA@EAAPEAXI@Z 000000018006f77c f i CoreConfigurationManagerImpl.obj
 0001:0006e78c       ??_EConfigurationManagerImpl@AdobeXMPCore_Int@@$2PPPPPPPM@A@EAAPEAXI@Z 000000018006f78c f i CoreConfigurationManagerImpl.obj
 0001:0006e798       ?isMultiThreaded@IConfigurationManager_I@AdobeXMPCore_Int@@$R2DA@BI@PPPPPPPM@CI@EBAKAEAPEBVIError_v1@AdobeXMPCommon@@@Z 000000018006f798 f i CoreConfigurationManagerImpl.obj
 0001:0006e7b4       ?disableMultiThreading@IConfigurationManager_I@AdobeXMPCore_Int@@$R2DA@BI@PPPPPPPM@CI@EAAKAEAPEBVIError_v1@AdobeXMPCommon@@@Z 000000018006f7b4 f i CoreConfigurationManagerImpl.obj
 0001:0006e7d0       ?AcquireInternal@SharedObjectImpl@AdobeXMPCore_Int@@$R4FA@BI@PPPPPPPM@DA@EBAXXZ 000000018006f7d0 f i CoreConfigurationManagerImpl.obj
 0001:0006e7ec       ?Acquire@SharedObjectImpl@AdobeXMPCore_Int@@$R4BA@CA@PPPPPPPM@CA@EBAXXZ 000000018006f7ec f i CoreConfigurationManagerImpl.obj
 0001:0006e808       ?isMultiThreaded@IConfigurationManager_I@AdobeXMPCore_Int@@$R2DI@BE@PPPPPPPM@CI@EBAKAEAPEBVIError_v1@AdobeXMPCommon@@@Z 000000018006f808 f i CoreConfigurationManagerImpl.obj
 0001:0006e824       ?Acquire@SharedObjectImpl@AdobeXMPCore_Int@@$R4BI@BI@PPPPPPPM@CA@EBAXXZ 000000018006f824 f i CoreConfigurationManagerImpl.obj
 0001:0006e840       ?registerMemoryAllocator@IConfigurationManager_I@AdobeXMPCore_Int@@$R2DA@BI@PPPPPPPM@CI@EAAKPEAVIMemoryAllocator_v1@AdobeXMPCommon@@AEAPEBVIError_v1@4@@Z 000000018006f840 f i CoreConfigurationManagerImpl.obj
 0001:0006e85c       ?RegisterMemoryAllocator@ConfigurationManagerImpl@AdobeXMPCore_Int@@$R4DA@CI@PPPPPPPM@DI@EAA_NPEAVIMemoryAllocator_v1@AdobeXMPCommon@@@Z 000000018006f85c f i CoreConfigurationManagerImpl.obj
 0001:0006e878       ?disableMultiThreading@IConfigurationManager_I@AdobeXMPCore_Int@@$R2DI@BE@PPPPPPPM@CI@EAAKAEAPEBVIError_v1@AdobeXMPCommon@@@Z 000000018006f878 f i CoreConfigurationManagerImpl.obj
 0001:0006e894       ?RegisterErrorNotifier@ConfigurationManagerImpl@AdobeXMPCore_Int@@$4PPPPPPPM@A@EAA_NPEAVIErrorNotifier_v1@AdobeXMPCommon@@@Z 000000018006f894 f i CoreConfigurationManagerImpl.obj
 0001:0006e8a0       ??_EICoreConfigurationManager_I@AdobeXMPCore_Int@@$2PPPPPPPM@BA@EAAPEAXI@Z 000000018006f8a0 f i CoreConfigurationManagerImpl.obj
 0001:0006e8b0       ?IsMultiThreaded@ConfigurationManagerImpl@AdobeXMPCore_Int@@$4PPPPPPPM@A@EBA_NXZ 000000018006f8b0 f i CoreConfigurationManagerImpl.obj
 0001:0006e8bc       ?GetActualIConfigurationManager@IConfigurationManager_I@AdobeXMPCore_Int@@$R4DA@BI@PPPPPPPM@CI@EAAPEAVIConfigurationManager_v1@AdobeXMPCommon@@XZ 000000018006f8bc f i CoreConfigurationManagerImpl.obj
 0001:0006e8d8       ?registerMemoryAllocator@IConfigurationManager_I@AdobeXMPCore_Int@@$R2DI@BE@PPPPPPPM@CI@EAAKPEAVIMemoryAllocator_v1@AdobeXMPCommon@@AEAPEBVIError_v1@4@@Z 000000018006f8d8 f i CoreConfigurationManagerImpl.obj
 0001:0006e8f4       ?getInterfacePointer@ICoreConfigurationManager_I@AdobeXMPCore_Int@@$2PPPPPPPM@A@EAAPEAX_KKAEAPEBVIError_v1@AdobeXMPCommon@@@Z 000000018006f8f4 f i CoreConfigurationManagerImpl.obj
 0001:0006e900       ?getInterfacePointer@ICoreConfigurationManager_I@AdobeXMPCore_Int@@$R2CA@BM@PPPPPPPM@CA@EAAPEAX_KKAEAPEBVIError_v1@AdobeXMPCommon@@@Z 000000018006f900 f i CoreConfigurationManagerImpl.obj
 0001:0006e918       ?isMultiThreaded@IConfigurationManager_I@AdobeXMPCore_Int@@$2PPPPPPPM@A@EBAKAEAPEBVIError_v1@AdobeXMPCommon@@@Z 000000018006f918 f i CoreConfigurationManagerImpl.obj
 0001:0006e924       ?GetActualIConfigurationManager@IConfigurationManager_I@AdobeXMPCore_Int@@$R4DI@BE@PPPPPPPM@CI@EAAPEAVIConfigurationManager_v1@AdobeXMPCommon@@XZ 000000018006f924 f i CoreConfigurationManagerImpl.obj
 0001:0006e940       ?GetISharedObject_I@ISharedObject_I@AdobeXMPCommon_Int@@$R4BI@BA@PPPPPPPM@BA@EAAPEAV12@XZ 000000018006f940 f i CoreConfigurationManagerImpl.obj
 0001:0006e95c       ?disableMultiThreading@IConfigurationManager_I@AdobeXMPCore_Int@@$2PPPPPPPM@A@EAAKAEAPEBVIError_v1@AdobeXMPCommon@@@Z 000000018006f95c f i CoreConfigurationManagerImpl.obj
 0001:0006e968       ?GetActualICoreConfigurationManager@ICoreConfigurationManager_I@AdobeXMPCore_Int@@$R4EI@BM@PPPPPPPM@EI@EAAPEAVICoreConfigurationManager_v1@AdobeXMPCore@@XZ 000000018006f968 f i CoreConfigurationManagerImpl.obj
 0001:0006e980       ??_ECoreConfigurationManagerImpl@AdobeXMPCore_Int@@$2PPPPPPPM@A@EAAPEAXI@Z 000000018006f980 f i CoreConfigurationManagerImpl.obj
 0001:0006e98c       ?GetInterfacePointer@IConfigurationManager_I@AdobeXMPCore_Int@@$R4CI@BE@PPPPPPPM@BI@EAAPEAX_KK@Z 000000018006f98c f i CoreConfigurationManagerImpl.obj
 0001:0006e9a8       ??_EIConfigurationManager_v1@AdobeXMPCommon@@W7EAAPEAXI@Z 000000018006f9a8 f i CoreConfigurationManagerImpl.obj
 0001:0006e9b4       ?RegisterMemoryAllocator@ConfigurationManagerImpl@AdobeXMPCore_Int@@$4PPPPPPPM@A@EAA_NPEAVIMemoryAllocator_v1@AdobeXMPCommon@@@Z 000000018006f9b4 f i CoreConfigurationManagerImpl.obj
 0001:0006e9c0       ?getInterfacePointer@IConfigurationManager_I@AdobeXMPCore_Int@@$R2CI@BE@PPPPPPPM@BI@EAAPEAX_KKAEAPEBVIError_v1@AdobeXMPCommon@@@Z 000000018006f9c0 f i CoreConfigurationManagerImpl.obj
 0001:0006e9dc       ??_EConfigurationManagerImpl@AdobeXMPCore_Int@@$2PPPPPPPM@BA@EAAPEAXI@Z 000000018006f9dc f i CoreConfigurationManagerImpl.obj
 0001:0006e9ec       ?registerMemoryAllocator@IConfigurationManager_I@AdobeXMPCore_Int@@$2PPPPPPPM@A@EAAKPEAVIMemoryAllocator_v1@AdobeXMPCommon@@AEAPEBVIError_v1@4@@Z 000000018006f9ec f i CoreConfigurationManagerImpl.obj
 0001:0006e9f8       ?DisableMultiThreading@ConfigurationManagerImpl@AdobeXMPCore_Int@@$R4DA@CI@PPPPPPPM@DI@EAA_NXZ 000000018006f9f8 f i CoreConfigurationManagerImpl.obj
 0001:0006ea14       ?GetISharedObject_I@ICoreConfigurationManager_I@AdobeXMPCore_Int@@$R4BA@BM@PPPPPPPM@BA@EAAPEAVISharedObject_I@AdobeXMPCommon_Int@@XZ 000000018006fa14 f i CoreConfigurationManagerImpl.obj
 0001:0006ea2c       ?GetISharedObject_I@ICoreConfigurationManager_I@AdobeXMPCore_Int@@$4PPPPPPPM@A@EAAPEAVISharedObject_I@AdobeXMPCommon_Int@@XZ 000000018006fa2c f i CoreConfigurationManagerImpl.obj
 0001:0006ea38       ?Release@SharedObjectImpl@AdobeXMPCore_Int@@$R4BA@CA@PPPPPPPM@CA@EBAXXZ 000000018006fa38 f i CoreConfigurationManagerImpl.obj
 0001:0006ea54       ?Release@SharedObjectImpl@AdobeXMPCore_Int@@$R4BI@BI@PPPPPPPM@CA@EBAXXZ 000000018006fa54 f i CoreConfigurationManagerImpl.obj
 0001:0006ea70       ??_EIConfigurationManager_I@AdobeXMPCore_Int@@$4PPPPPPPM@BA@EAAPEAXI@Z 000000018006fa70 f i CoreConfigurationManagerImpl.obj
 0001:0006ea80       ?registerErrorNotifier@IConfigurationManager_I@AdobeXMPCore_Int@@$R2DA@BI@PPPPPPPM@CI@EAAKPEAVIErrorNotifier_v1@AdobeXMPCommon@@AEAPEBVIError_v1@4@@Z 000000018006fa80 f i CoreConfigurationManagerImpl.obj
 0001:0006ea9c       ?GetInterfacePointer@IConfigurationManager_I@AdobeXMPCore_Int@@$4PPPPPPPM@A@EAAPEAX_KK@Z 000000018006fa9c f i CoreConfigurationManagerImpl.obj
 0001:0006eaa8       ??_EICoreConfigurationManager_I@AdobeXMPCore_Int@@$2PPPPPPPM@A@EAAPEAXI@Z 000000018006faa8 f i CoreConfigurationManagerImpl.obj
 0001:0006eab4       ?getInterfacePointer@IConfigurationManager_I@AdobeXMPCore_Int@@$2PPPPPPPM@A@EAAPEAX_KKAEAPEBVIError_v1@AdobeXMPCommon@@@Z 000000018006fab4 f i CoreConfigurationManagerImpl.obj
 0001:0006eac0       ??_EICoreObjectFactory_v1@AdobeXMPCore@@MEAAPEAXI@Z 000000018006fac0 f i * CIL library *:* CIL module *
 0001:0006eac0       ??_GICoreObjectFactory_v1@AdobeXMPCore@@MEAAPEAXI@Z 000000018006fac0 f i CoreObjectFactoryImpl.obj
 0001:0006eb04       ?GetActualICoreObjectFactory@ICoreObjectFactory_I@AdobeXMPCore_Int@@UEAAPEAVICoreObjectFactory_v1@AdobeXMPCore@@XZ 000000018006fb04 f i CoreObjectFactoryImpl.obj
 0001:0006eb20       ?GetICoreObjectFactory_I@ICoreObjectFactory_I@AdobeXMPCore_Int@@UEAAPEAV12@XZ 000000018006fb20 f i CoreObjectFactoryImpl.obj
 0001:0006eb28       ??_EICoreObjectFactory_I@AdobeXMPCore_Int@@MEAAPEAXI@Z 000000018006fb28 f i * CIL library *:* CIL module *
 0001:0006eb28       ??_GICoreObjectFactory_I@AdobeXMPCore_Int@@MEAAPEAXI@Z 000000018006fb28 f i CoreObjectFactoryImpl.obj
 0001:0006eb98       ??_ECoreObjectFactoryImpl@AdobeXMPCore_Int@@UEAAPEAXI@Z 000000018006fb98 f i * CIL library *:* CIL module *
 0001:0006eb98       ??_GCoreObjectFactoryImpl@AdobeXMPCore_Int@@UEAAPEAXI@Z 000000018006fb98 f i CoreObjectFactoryImpl.obj
 0001:0006ec74       ?CreateArrayIndexPathSegment@CoreObjectFactoryImpl@AdobeXMPCore_Int@@UEAAPEBVIPathSegment_v1@AdobeXMPCore@@PEBD_K1AEAPEBVIError_v1@AdobeXMPCommon@@@Z 000000018006fc74 f   CoreObjectFactoryImpl.obj
 0001:0006ec98       ?CreateArrayNode@CoreObjectFactoryImpl@AdobeXMPCore_Int@@UEAAPEAVIArrayNode_v1@AdobeXMPCore@@KPEBD_K01AEAPEBVIError_v1@AdobeXMPCommon@@@Z 000000018006fc98 f   CoreObjectFactoryImpl.obj
 0001:0006ed40       ?CreateMetadata@CoreObjectFactoryImpl@AdobeXMPCore_Int@@UEAAPEAVIMetadata_v1@AdobeXMPCore@@AEAPEBVIError_v1@AdobeXMPCommon@@@Z 000000018006fd40 f   CoreObjectFactoryImpl.obj
 0001:0006ed48       ?CreateNameSpacePrefixMap@CoreObjectFactoryImpl@AdobeXMPCore_Int@@UEAAPEAVINameSpacePrefixMap_v1@AdobeXMPCore@@AEAPEBVIError_v1@AdobeXMPCommon@@@Z 000000018006fd48 f   CoreObjectFactoryImpl.obj
 0001:0006ed50       ?CreatePath@CoreObjectFactoryImpl@AdobeXMPCore_Int@@UEAAPEAVIPath_v1@AdobeXMPCore@@AEAPEBVIError_v1@AdobeXMPCommon@@@Z 000000018006fd50 f   CoreObjectFactoryImpl.obj
 0001:0006ed58       ?CreatePropertyPathSegment@CoreObjectFactoryImpl@AdobeXMPCore_Int@@UEAAPEBVIPathSegment_v1@AdobeXMPCore@@PEBD_K01AEAPEBVIError_v1@AdobeXMPCommon@@@Z 000000018006fd58 f   CoreObjectFactoryImpl.obj
 0001:0006ed90       ?CreateQualifierPathSegment@CoreObjectFactoryImpl@AdobeXMPCore_Int@@UEAAPEBVIPathSegment_v1@AdobeXMPCore@@PEBD_K01AEAPEBVIError_v1@AdobeXMPCommon@@@Z 000000018006fd90 f   CoreObjectFactoryImpl.obj
 0001:0006edc8       ?CreateQualifierSelectorPathSegment@CoreObjectFactoryImpl@AdobeXMPCore_Int@@UEAAPEBVIPathSegment_v1@AdobeXMPCore@@PEBD_K0101AEAPEBVIError_v1@AdobeXMPCommon@@@Z 000000018006fdc8 f   CoreObjectFactoryImpl.obj
 0001:0006ee14       ?CreateSimpleNode@CoreObjectFactoryImpl@AdobeXMPCore_Int@@UEAAPEAVISimpleNode_v1@AdobeXMPCore@@PEBD_K0101AEAPEBVIError_v1@AdobeXMPCommon@@@Z 000000018006fe14 f   CoreObjectFactoryImpl.obj
 0001:0006ee60       ?CreateStructureNode@CoreObjectFactoryImpl@AdobeXMPCore_Int@@UEAAPEAVIStructureNode_v1@AdobeXMPCore@@PEBD_K01AEAPEBVIError_v1@AdobeXMPCommon@@@Z 000000018006fe60 f   CoreObjectFactoryImpl.obj
 0001:0006ee8c       ?GetCoreConfigurationManager@CoreObjectFactoryImpl@AdobeXMPCore_Int@@UEAAPEAVICoreConfigurationManager_v1@AdobeXMPCore@@AEAPEBVIError_v1@AdobeXMPCommon@@@Z 000000018006fe8c f   CoreObjectFactoryImpl.obj
 0001:0006ee94       ?GetDOMImplementationRegistry@CoreObjectFactoryImpl@AdobeXMPCore_Int@@UEAAPEAVIDOMImplementationRegistry_v1@AdobeXMPCore@@AEAPEBVIError_v1@AdobeXMPCommon@@@Z 000000018006fe94 f   CoreObjectFactoryImpl.obj
 0001:0006ee9c       ?GetDefaultNameSpacePrefixMap@CoreObjectFactoryImpl@AdobeXMPCore_Int@@UEAAPEBVINameSpacePrefixMap_v1@AdobeXMPCore@@AEAPEBVIError_v1@AdobeXMPCommon@@@Z 000000018006fe9c f   CoreObjectFactoryImpl.obj
 0001:0006eea4       ?ParsePath@CoreObjectFactoryImpl@AdobeXMPCore_Int@@UEAAPEAVIPath_v1@AdobeXMPCore@@PEBD_KPEBVINameSpacePrefixMap_v1@4@AEAPEBVIError_v1@AdobeXMPCommon@@@Z 000000018006fea4 f   CoreObjectFactoryImpl.obj
 0001:0006ef94       ?CreateError@CoreObjectFactoryImpl@AdobeXMPCore_Int@@UEAAPEAVIError_v1@AdobeXMPCommon@@KKKAEAPEBV34@@Z 000000018006ff94 f   CoreObjectFactoryImpl.obj
 0001:0006efb8       ?CreateUTF8String@CoreObjectFactoryImpl@AdobeXMPCore_Int@@UEAAPEAVIUTF8String_v1@AdobeXMPCommon@@PEBD_KAEAPEBVIError_v1@4@@Z 000000018006ffb8 f   CoreObjectFactoryImpl.obj
 0001:0006f044       ?ConvertXMPMetatoIMetadata@CoreObjectFactoryImpl@AdobeXMPCore_Int@@UEAAPEAVIMetadata_v1@AdobeXMPCore@@PEAU__XMPMeta__@@AEAPEBVIError_v1@AdobeXMPCommon@@@Z 0000000180070044 f   CoreObjectFactoryImpl.obj
 0001:0006f0d8       ?ConvertIMetadatatoXMPMeta@CoreObjectFactoryImpl@AdobeXMPCore_Int@@UEAAPEAU__XMPMeta__@@PEAVIMetadata_v1@AdobeXMPCore@@AEAPEBVIError_v1@AdobeXMPCommon@@@Z 00000001800700d8 f   CoreObjectFactoryImpl.obj
 0001:0006f188       WXMPMeta_GetXMPDOMFactoryInstance_1 0000000180070188 f   CoreObjectFactoryImpl.obj
 0001:0006f190       ??$ReturnRawPointerFromSharedPointer@$$CBVIPathSegment_v1@AdobeXMPCore@@PEBV12@PEBD_K_K@AdobeXMPCore_Int@@YAPEBVIPathSegment_v1@AdobeXMPCore@@P6A?AV?$shared_ptr@$$CBVIPathSegment_v1@AdobeXMPCore@@@std@@PEBD_K1@ZAEAPEBVIError_v1@AdobeXMPCommon@@0K011@Z 0000000180070190 f i CoreObjectFactoryImpl.obj
 0001:0006f234       ??$ReturnRawPointerFromSharedPointer@$$CBVIPathSegment_v1@AdobeXMPCore@@PEBV12@PEBD_KPEBD_K@AdobeXMPCore_Int@@YAPEBVIPathSegment_v1@AdobeXMPCore@@P6A?AV?$shared_ptr@$$CBVIPathSegment_v1@AdobeXMPCore@@@std@@PEBD_K01@ZAEAPEBVIError_v1@AdobeXMPCommon@@0K0101@Z 0000000180070234 f i CoreObjectFactoryImpl.obj
 0001:0006f234       ??$ReturnRawPointerFromSharedPointer@VIArrayNode_v1@AdobeXMPCore@@PEAV12@PEBD_KPEBD_K@AdobeXMPCore_Int@@YAPEAVIArrayNode_v1@AdobeXMPCore@@P6A?AV?$shared_ptr@VIArrayNode_v1@AdobeXMPCore@@@std@@PEBD_K01@ZAEAPEBVIError_v1@AdobeXMPCommon@@0K0101@Z 0000000180070234 f i CoreObjectFactoryImpl.obj
 0001:0006f2f0       ??$ReturnRawPointerFromSharedPointer@VIMetadata_v1@AdobeXMPCore@@PEAV12@@AdobeXMPCore_Int@@YAPEAVIMetadata_v1@AdobeXMPCore@@P6A?AV?$shared_ptr@VIMetadata_v1@AdobeXMPCore@@@std@@XZAEAPEBVIError_v1@AdobeXMPCommon@@PEBDK@Z 00000001800702f0 f i CoreObjectFactoryImpl.obj
 0001:0006f384       ??$ReturnRawPointerFromSharedPointer@VINameSpacePrefixMap_v1@AdobeXMPCore@@PEAV12@@AdobeXMPCore_Int@@YAPEAVINameSpacePrefixMap_v1@AdobeXMPCore@@P6A?AV?$shared_ptr@VINameSpacePrefixMap_v1@AdobeXMPCore@@@std@@XZAEAPEBVIError_v1@AdobeXMPCommon@@PEBDK@Z 0000000180070384 f i CoreObjectFactoryImpl.obj
 0001:0006f418       ??$ReturnRawPointerFromSharedPointer@VIPath_v1@AdobeXMPCore@@PEAV12@@AdobeXMPCore_Int@@YAPEAVIPath_v1@AdobeXMPCore@@P6A?AV?$shared_ptr@VIPath_v1@AdobeXMPCore@@@std@@XZAEAPEBVIError_v1@AdobeXMPCommon@@PEBDK@Z 0000000180070418 f i CoreObjectFactoryImpl.obj
 0001:0006f4ac       ??$ReturnRawPointerFromSharedPointer@$$CBVIPathSegment_v1@AdobeXMPCore@@PEBV12@PEBD_KPEBD_KPEBD_K@AdobeXMPCore_Int@@YAPEBVIPathSegment_v1@AdobeXMPCore@@P6A?AV?$shared_ptr@$$CBVIPathSegment_v1@AdobeXMPCore@@@std@@PEBD_K0101@ZAEAPEBVIError_v1@AdobeXMPCommon@@0K010101@Z 00000001800704ac f i CoreObjectFactoryImpl.obj
 0001:0006f57c       ??$ReturnRawPointerFromSharedPointer@VISimpleNode_v1@AdobeXMPCore@@PEAV12@PEBD_KPEBD_KPEBD_K@AdobeXMPCore_Int@@YAPEAVISimpleNode_v1@AdobeXMPCore@@P6A?AV?$shared_ptr@VISimpleNode_v1@AdobeXMPCore@@@std@@PEBD_K0101@ZAEAPEBVIError_v1@AdobeXMPCommon@@0K010101@Z 000000018007057c f i CoreObjectFactoryImpl.obj
 0001:0006f64c       ??$ReturnRawPointerFromSharedPointer@VIStructureNode_v1@AdobeXMPCore@@PEAV12@PEBD_KPEBD_K@AdobeXMPCore_Int@@YAPEAVIStructureNode_v1@AdobeXMPCore@@P6A?AV?$shared_ptr@VIStructureNode_v1@AdobeXMPCore@@@std@@PEBD_K01@ZAEAPEBVIError_v1@AdobeXMPCommon@@0K0101@Z 000000018007064c f i CoreObjectFactoryImpl.obj
 0001:0006f704       ??$ReturnRawPointerFromSharedPointer@VICoreConfigurationManager_v1@AdobeXMPCore@@PEAV12@@AdobeXMPCore_Int@@YAPEAVICoreConfigurationManager_v1@AdobeXMPCore@@P6A?AV?$shared_ptr@VICoreConfigurationManager_v1@AdobeXMPCore@@@std@@XZAEAPEBVIError_v1@AdobeXMPCommon@@PEBDK@Z 0000000180070704 f i CoreObjectFactoryImpl.obj
 0001:0006f798       ??$ReturnRawPointerFromSharedPointer@VIDOMImplementationRegistry_v1@AdobeXMPCore@@PEAV12@@AdobeXMPCore_Int@@YAPEAVIDOMImplementationRegistry_v1@AdobeXMPCore@@P6A?AV?$shared_ptr@VIDOMImplementationRegistry_v1@AdobeXMPCore@@@std@@XZAEAPEBVIError_v1@AdobeXMPCommon@@PEBDK@Z 0000000180070798 f i CoreObjectFactoryImpl.obj
 0001:0006f82c       ??$ReturnRawPointerFromSharedPointer@$$CBVINameSpacePrefixMap_v1@AdobeXMPCore@@PEBV12@@AdobeXMPCore_Int@@YAPEBVINameSpacePrefixMap_v1@AdobeXMPCore@@P6A?AV?$shared_ptr@$$CBVINameSpacePrefixMap_v1@AdobeXMPCore@@@std@@XZAEAPEBVIError_v1@AdobeXMPCommon@@PEBDK@Z 000000018007082c f i CoreObjectFactoryImpl.obj
 0001:0006f8c0       ??$ReturnRawPointerFromSharedPointer@VIPath_v1@AdobeXMPCore@@PEAV12@PEBD_KAEBV?$shared_ptr@$$CBVINameSpacePrefixMap_v1@AdobeXMPCore@@@std@@@AdobeXMPCore_Int@@YAPEAVIPath_v1@AdobeXMPCore@@P6A?AV?$shared_ptr@VIPath_v1@AdobeXMPCore@@@std@@PEBD_KAEBV?$shared_ptr@$$CBVINameSpacePrefixMap_v1@AdobeXMPCore@@@4@@ZAEAPEBVIError_v1@AdobeXMPCommon@@0K012@Z 00000001800708c0 f i CoreObjectFactoryImpl.obj
 0001:0006f964       ??$ReturnRawPointerFromSharedPointer@VIError_I@AdobeXMPCore_Int@@PEAVIError_v1@AdobeXMPCommon@@W4eErrorDomain@34@KW4eErrorSeverity@34@@AdobeXMPCore_Int@@YAPEAVIError_v1@AdobeXMPCommon@@P6A?AV?$shared_ptr@VIError_I@AdobeXMPCore_Int@@@std@@W4eErrorDomain@12@KW4eErrorSeverity@12@@ZAEAPEBV12@PEBDK0K1@Z 0000000180070964 f i CoreObjectFactoryImpl.obj
 0001:0006fa20       ??$ReturnRawPointerFromSharedPointer@VIUTF8String_v1@AdobeXMPCommon@@PEAV12@PEBD_K@AdobeXMPCore_Int@@YAPEAVIUTF8String_v1@AdobeXMPCommon@@P6A?AV?$shared_ptr@VIUTF8String_v1@AdobeXMPCommon@@@std@@PEBD_K@ZAEAPEBVIError_v1@2@0K01@Z 0000000180070a20 f i CoreObjectFactoryImpl.obj
 0001:0006fabc       ?CreateQualifierPathSegment@CoreObjectFactoryImpl@AdobeXMPCore_Int@@$4PPPPPPPM@A@EAAPEBVIPathSegment_v1@AdobeXMPCore@@PEBD_K01AEAPEBVIError_v1@AdobeXMPCommon@@@Z 0000000180070abc f i CoreObjectFactoryImpl.obj
 0001:0006fac8       ?GetICoreObjectFactory_I@ICoreObjectFactory_I@AdobeXMPCore_Int@@$4PPPPPPPM@A@EAAPEAV12@XZ 0000000180070ac8 f i CoreObjectFactoryImpl.obj
 0001:0006fad4       ?CreateArrayNode@CoreObjectFactoryImpl@AdobeXMPCore_Int@@$4PPPPPPPM@A@EAAPEAVIArrayNode_v1@AdobeXMPCore@@KPEBD_K01AEAPEBVIError_v1@AdobeXMPCommon@@@Z 0000000180070ad4 f i CoreObjectFactoryImpl.obj
 0001:0006fae0       ?CreateError@CoreObjectFactoryImpl@AdobeXMPCore_Int@@$4PPPPPPPM@A@EAAPEAVIError_v1@AdobeXMPCommon@@KKKAEAPEBV34@@Z 0000000180070ae0 f i CoreObjectFactoryImpl.obj
 0001:0006faec       ?ConvertIMetadatatoXMPMeta@CoreObjectFactoryImpl@AdobeXMPCore_Int@@$4PPPPPPPM@A@EAAPEAU__XMPMeta__@@PEAVIMetadata_v1@AdobeXMPCore@@AEAPEBVIError_v1@AdobeXMPCommon@@@Z 0000000180070aec f i CoreObjectFactoryImpl.obj
 0001:0006faf8       ?CreateSimpleNode@CoreObjectFactoryImpl@AdobeXMPCore_Int@@$4PPPPPPPM@A@EAAPEAVISimpleNode_v1@AdobeXMPCore@@PEBD_K0101AEAPEBVIError_v1@AdobeXMPCommon@@@Z 0000000180070af8 f i CoreObjectFactoryImpl.obj
 0001:0006fb04       ?GetCoreConfigurationManager@CoreObjectFactoryImpl@AdobeXMPCore_Int@@$4PPPPPPPM@A@EAAPEAVICoreConfigurationManager_v1@AdobeXMPCore@@AEAPEBVIError_v1@AdobeXMPCommon@@@Z 0000000180070b04 f i CoreObjectFactoryImpl.obj
 0001:0006fb10       ?getInterfacePointer@ICoreObjectFactory_I@AdobeXMPCore_Int@@$2PPPPPPPM@PPPPPPNA@EAAPEAX_KKAEAPEBVIError_v1@AdobeXMPCommon@@@Z 0000000180070b10 f i CoreObjectFactoryImpl.obj
 0001:0006fb20       ?ConvertXMPMetatoIMetadata@CoreObjectFactoryImpl@AdobeXMPCore_Int@@$4PPPPPPPM@A@EAAPEAVIMetadata_v1@AdobeXMPCore@@PEAU__XMPMeta__@@AEAPEBVIError_v1@AdobeXMPCommon@@@Z 0000000180070b20 f i CoreObjectFactoryImpl.obj
 0001:0006fb2c       ?GetActualICoreObjectFactory@ICoreObjectFactory_I@AdobeXMPCore_Int@@$R4CA@M@PPPPPPPM@CA@EAAPEAVICoreObjectFactory_v1@AdobeXMPCore@@XZ 0000000180070b2c f i CoreObjectFactoryImpl.obj
 0001:0006fb44       ?CreateUTF8String@CoreObjectFactoryImpl@AdobeXMPCore_Int@@$4PPPPPPPM@A@EAAPEAVIUTF8String_v1@AdobeXMPCommon@@PEBD_KAEAPEBVIError_v1@4@@Z 0000000180070b44 f i CoreObjectFactoryImpl.obj
 0001:0006fb50       ?GetInterfacePointer@ICoreObjectFactory_I@AdobeXMPCore_Int@@$4PPPPPPPM@PPPPPPNA@EAAPEAX_KK@Z 0000000180070b50 f i CoreObjectFactoryImpl.obj
 0001:0006fb60       ?CreatePath@CoreObjectFactoryImpl@AdobeXMPCore_Int@@$4PPPPPPPM@A@EAAPEAVIPath_v1@AdobeXMPCore@@AEAPEBVIError_v1@AdobeXMPCommon@@@Z 0000000180070b60 f i CoreObjectFactoryImpl.obj
 0001:0006fb6c       ?CreateNameSpacePrefixMap@CoreObjectFactoryImpl@AdobeXMPCore_Int@@$4PPPPPPPM@A@EAAPEAVINameSpacePrefixMap_v1@AdobeXMPCore@@AEAPEBVIError_v1@AdobeXMPCommon@@@Z 0000000180070b6c f i CoreObjectFactoryImpl.obj
 0001:0006fb78       ??_EICoreObjectFactory_I@AdobeXMPCore_Int@@$2PPPPPPPM@A@EAAPEAXI@Z 0000000180070b78 f i CoreObjectFactoryImpl.obj
 0001:0006fb84       ?CreateArrayIndexPathSegment@CoreObjectFactoryImpl@AdobeXMPCore_Int@@$4PPPPPPPM@A@EAAPEBVIPathSegment_v1@AdobeXMPCore@@PEBD_K1AEAPEBVIError_v1@AdobeXMPCommon@@@Z 0000000180070b84 f i CoreObjectFactoryImpl.obj
 0001:0006fb90       ?CreateMetadata@CoreObjectFactoryImpl@AdobeXMPCore_Int@@$4PPPPPPPM@A@EAAPEAVIMetadata_v1@AdobeXMPCore@@AEAPEBVIError_v1@AdobeXMPCommon@@@Z 0000000180070b90 f i CoreObjectFactoryImpl.obj
 0001:0006fb9c       ?GetICoreObjectFactory_I@ICoreObjectFactory_I@AdobeXMPCore_Int@@$R4CA@M@PPPPPPPM@CA@EAAPEAV12@XZ 0000000180070b9c f i CoreObjectFactoryImpl.obj
 0001:0006fbb4       ?GetDefaultNameSpacePrefixMap@CoreObjectFactoryImpl@AdobeXMPCore_Int@@$4PPPPPPPM@A@EAAPEBVINameSpacePrefixMap_v1@AdobeXMPCore@@AEAPEBVIError_v1@AdobeXMPCommon@@@Z 0000000180070bb4 f i CoreObjectFactoryImpl.obj
 0001:0006fbc0       ?ParsePath@CoreObjectFactoryImpl@AdobeXMPCore_Int@@$4PPPPPPPM@A@EAAPEAVIPath_v1@AdobeXMPCore@@PEBD_KPEBVINameSpacePrefixMap_v1@4@AEAPEBVIError_v1@AdobeXMPCommon@@@Z 0000000180070bc0 f i CoreObjectFactoryImpl.obj
 0001:0006fbcc       ?CreateQualifierSelectorPathSegment@CoreObjectFactoryImpl@AdobeXMPCore_Int@@$4PPPPPPPM@A@EAAPEBVIPathSegment_v1@AdobeXMPCore@@PEBD_K0101AEAPEBVIError_v1@AdobeXMPCommon@@@Z 0000000180070bcc f i CoreObjectFactoryImpl.obj
 0001:0006fbd8       ?GetDOMImplementationRegistry@CoreObjectFactoryImpl@AdobeXMPCore_Int@@$4PPPPPPPM@A@EAAPEAVIDOMImplementationRegistry_v1@AdobeXMPCore@@AEAPEBVIError_v1@AdobeXMPCommon@@@Z 0000000180070bd8 f i CoreObjectFactoryImpl.obj
 0001:0006fbe4       ?GetActualICoreObjectFactory@ICoreObjectFactory_I@AdobeXMPCore_Int@@$4PPPPPPPM@A@EAAPEAVICoreObjectFactory_v1@AdobeXMPCore@@XZ 0000000180070be4 f i CoreObjectFactoryImpl.obj
 0001:0006fbf0       ?getInterfacePointer@ICoreObjectFactory_I@AdobeXMPCore_Int@@$2PPPPPPPM@A@EAAPEAX_KKAEAPEBVIError_v1@AdobeXMPCommon@@@Z 0000000180070bf0 f i CoreObjectFactoryImpl.obj
 0001:0006fbfc       ?CreateStructureNode@CoreObjectFactoryImpl@AdobeXMPCore_Int@@$4PPPPPPPM@A@EAAPEAVIStructureNode_v1@AdobeXMPCore@@PEBD_K01AEAPEBVIError_v1@AdobeXMPCommon@@@Z 0000000180070bfc f i CoreObjectFactoryImpl.obj
 0001:0006fc08       ?GetInterfacePointer@ICoreObjectFactory_I@AdobeXMPCore_Int@@$4PPPPPPPM@A@EAAPEAX_KK@Z 0000000180070c08 f i CoreObjectFactoryImpl.obj
 0001:0006fc14       ?CreatePropertyPathSegment@CoreObjectFactoryImpl@AdobeXMPCore_Int@@$4PPPPPPPM@A@EAAPEBVIPathSegment_v1@AdobeXMPCore@@PEBD_K01AEAPEBVIError_v1@AdobeXMPCommon@@@Z 0000000180070c14 f i CoreObjectFactoryImpl.obj
 0001:0006fc20       ??_ECoreObjectFactoryImpl@AdobeXMPCore_Int@@$4PPPPPPPM@A@EAAPEAXI@Z 0000000180070c20 f i CoreObjectFactoryImpl.obj
 0001:0006fc2c       ??_EIDOMImplementationRegistry_v1@AdobeXMPCore@@MEAAPEAXI@Z 0000000180070c2c f i * CIL library *:* CIL module *
 0001:0006fc2c       ??_GIDOMImplementationRegistry_v1@AdobeXMPCore@@MEAAPEAXI@Z 0000000180070c2c f i DOMImplementationRegistryImpl.obj
 0001:0006fc84       ?GetActualIDOMImplementationRegistry@IDOMImplementationRegistry_I@AdobeXMPCore_Int@@UEAAPEAVIDOMImplementationRegistry_v1@AdobeXMPCore@@XZ 0000000180070c84 f i DOMImplementationRegistryImpl.obj
 0001:0006fc84       ?GetActualIError@IError_I@AdobeXMPCore_Int@@UEAAPEAVIError_v1@AdobeXMPCommon@@XZ 0000000180070c84 f i ErrorImpl.obj
 0001:0006fca4       ?GetISharedObject_I@IDOMImplementationRegistry_I@AdobeXMPCore_Int@@UEAAPEAVISharedObject_I@AdobeXMPCommon_Int@@XZ 0000000180070ca4 f i DOMImplementationRegistryImpl.obj
 0001:0006fca4       ?GetISharedObject_I@IError_I@AdobeXMPCore_Int@@UEAAPEAVISharedObject_I@AdobeXMPCommon_Int@@XZ 0000000180070ca4 f i ErrorImpl.obj
 0001:0006fcc4       ??_EIDOMImplementationRegistry_I@AdobeXMPCore_Int@@MEAAPEAXI@Z 0000000180070cc4 f i * CIL library *:* CIL module *
 0001:0006fcc4       ??_GIDOMImplementationRegistry_I@AdobeXMPCore_Int@@MEAAPEAXI@Z 0000000180070cc4 f i DOMImplementationRegistryImpl.obj
 0001:0006fd78       ??0DOMImplementationRegistryImpl@AdobeXMPCore_Int@@QEAA@XZ 0000000180070d78 f i DOMImplementationRegistryImpl.obj
 0001:00070084       ??1DOMImplementationRegistryImpl@AdobeXMPCore_Int@@MEAA@XZ 0000000180071084 f i DOMImplementationRegistryImpl.obj
 0001:00070154       ??_EDOMImplementationRegistryImpl@AdobeXMPCore_Int@@MEAAPEAXI@Z 0000000180071154 f i * CIL library *:* CIL module *
 0001:00070154       ??_GDOMImplementationRegistryImpl@AdobeXMPCore_Int@@MEAAPEAXI@Z 0000000180071154 f i DOMImplementationRegistryImpl.obj
 0001:00070318       ??0RDFDOMParserImpl@AdobeXMPCore_Int@@QEAA@XZ 0000000180071318 f i DOMImplementationRegistryImpl.obj
 0001:00070700       ??1RDFDOMParserImpl@AdobeXMPCore_Int@@MEAA@XZ 0000000180071700 f i DOMImplementationRegistryImpl.obj
 0001:0007082c       ??_ERDFDOMParserImpl@AdobeXMPCore_Int@@MEAAPEAXI@Z 000000018007182c f i * CIL library *:* CIL module *
 0001:0007082c       ??_GRDFDOMParserImpl@AdobeXMPCore_Int@@MEAAPEAXI@Z 000000018007182c f i DOMImplementationRegistryImpl.obj
 0001:000709ac       ??0RDFDOMSerializerImpl@AdobeXMPCore_Int@@QEAA@XZ 00000001800719ac f i DOMImplementationRegistryImpl.obj
 0001:00070d84       ??1RDFDOMSerializerImpl@AdobeXMPCore_Int@@MEAA@XZ 0000000180071d84 f i DOMImplementationRegistryImpl.obj
 0001:00070eb0       ??_ERDFDOMSerializerImpl@AdobeXMPCore_Int@@MEAAPEAXI@Z 0000000180071eb0 f i * CIL library *:* CIL module *
 0001:00070eb0       ??_GRDFDOMSerializerImpl@AdobeXMPCore_Int@@MEAAPEAXI@Z 0000000180071eb0 f i DOMImplementationRegistryImpl.obj
 0001:00071030       ?RegisterParser@DOMImplementationRegistryImpl@AdobeXMPCore_Int@@UEAA_NPEBDAEBV?$shared_ptr@$$CBVIDOMParser_v1@AdobeXMPCore@@@std@@@Z 0000000180072030 f   DOMImplementationRegistryImpl.obj
 0001:00071294       ??1?$pair@$$CBV?$shared_ptr@$$CBVIUTF8String_v1@AdobeXMPCommon@@@std@@V12@@std@@QEAA@XZ 0000000180072294 f i NameSpacePrefixMapImpl.obj
 0001:00071294       ??1?$pair@$$CBV?$shared_ptr@$$CBVIUTF8String_v1@AdobeXMPCommon@@@std@@V?$shared_ptr@$$CBVIDOMParser_v1@AdobeXMPCore@@@2@@std@@QEAA@XZ 0000000180072294 f i DOMImplementationRegistryImpl.obj
 0001:00071294       ??1?$pair@$$CBV?$shared_ptr@$$CBVIUTF8String_v1@AdobeXMPCommon@@@std@@V?$shared_ptr@$$CBVIDOMSerializer_v1@AdobeXMPCore@@@2@@std@@QEAA@XZ 0000000180072294 f i DOMImplementationRegistryImpl.obj
 0001:00071294       ??1?$pair@V?$shared_ptr@$$CBVIUTF8String_v1@AdobeXMPCommon@@@std@@V?$shared_ptr@$$CBVIDOMParser_v1@AdobeXMPCore@@@2@@std@@QEAA@XZ 0000000180072294 f i DOMImplementationRegistryImpl.obj
 0001:00071294       ??1?$pair@V?$shared_ptr@$$CBVIUTF8String_v1@AdobeXMPCommon@@@std@@V?$shared_ptr@$$CBVIDOMSerializer_v1@AdobeXMPCore@@@2@@std@@QEAA@XZ 0000000180072294 f i DOMImplementationRegistryImpl.obj
 0001:00071294       ??1QualifiedName@StructureNodeImpl@AdobeXMPCore_Int@@QEAA@XZ 0000000180072294 f i MetadataImpl.obj
 0001:0007131c       ?RegisterSerializer@DOMImplementationRegistryImpl@AdobeXMPCore_Int@@UEAA_NPEBDAEBV?$shared_ptr@$$CBVIDOMSerializer_v1@AdobeXMPCore@@@std@@@Z 000000018007231c f   DOMImplementationRegistryImpl.obj
 0001:00071580       ?GetParser@DOMImplementationRegistryImpl@AdobeXMPCore_Int@@UEBA?AV?$shared_ptr@VIDOMParser_v1@AdobeXMPCore@@@std@@PEBD@Z 0000000180072580 f   DOMImplementationRegistryImpl.obj
 0001:000716d0       ?GetSerializer@DOMImplementationRegistryImpl@AdobeXMPCore_Int@@UEBA?AV?$shared_ptr@VIDOMSerializer_v1@AdobeXMPCore@@@std@@PEBD@Z 00000001800726d0 f   DOMImplementationRegistryImpl.obj
 0001:00071d78       ?GetDOMImplementationRegistry@IDOMImplementationRegistry_v1@AdobeXMPCore@@SA?AV?$shared_ptr@VIDOMImplementationRegistry_v1@AdobeXMPCore@@@std@@XZ 0000000180072d78 f   DOMImplementationRegistryImpl.obj
 0001:00071d94       ??1?$_Tree@V?$_Tmap_traits@V?$shared_ptr@$$CBVIUTF8String_v1@AdobeXMPCommon@@@std@@V?$shared_ptr@$$CBVIDOMParser_v1@AdobeXMPCore@@@2@UIUTF8StringComparator@AdobeXMPCore_Int@@V?$TAllocator@U?$pair@$$CBV?$shared_ptr@$$CBVIUTF8String_v1@AdobeXMPCommon@@@std@@V?$shared_ptr@$$CBVIDOMParser_v1@AdobeXMPCore@@@2@@std@@@5@$0A@@std@@@std@@QEAA@XZ 0000000180072d94 f i DOMImplementationRegistryImpl.obj
 0001:00071d94       ??1?$_Tree@V?$_Tmap_traits@V?$shared_ptr@$$CBVIUTF8String_v1@AdobeXMPCommon@@@std@@V?$shared_ptr@$$CBVIDOMSerializer_v1@AdobeXMPCore@@@2@UIUTF8StringComparator@AdobeXMPCore_Int@@V?$TAllocator@U?$pair@$$CBV?$shared_ptr@$$CBVIUTF8String_v1@AdobeXMPCommon@@@std@@V?$shared_ptr@$$CBVIDOMSerializer_v1@AdobeXMPCore@@@2@@std@@@5@$0A@@std@@@std@@QEAA@XZ 0000000180072d94 f i DOMImplementationRegistryImpl.obj
 0001:00071e24       ??$_Erase_tree@V?$TAllocator@U?$_Tree_node@U?$pair@$$CBV?$shared_ptr@$$CBVIUTF8String_v1@AdobeXMPCommon@@@std@@V12@@std@@PEAX@std@@@AdobeXMPCore_Int@@@?$_Tree_val@U?$_Tree_simple_types@U?$pair@$$CBV?$shared_ptr@$$CBVIUTF8String_v1@AdobeXMPCommon@@@std@@V12@@std@@@std@@@std@@QEAAXAEAV?$TAllocator@U?$_Tree_node@U?$pair@$$CBV?$shared_ptr@$$CBVIUTF8String_v1@AdobeXMPCommon@@@std@@V12@@std@@PEAX@std@@@AdobeXMPCore_Int@@PEAU?$_Tree_node@U?$pair@$$CBV?$shared_ptr@$$CBVIUTF8String_v1@AdobeXMPCommon@@@std@@V12@@std@@PEAX@1@@Z 0000000180072e24 f i NameSpacePrefixMapImpl.obj
 0001:00071e24       ??$_Erase_tree@V?$TAllocator@U?$_Tree_node@U?$pair@$$CBV?$shared_ptr@$$CBVIUTF8String_v1@AdobeXMPCommon@@@std@@V?$shared_ptr@$$CBVIDOMParser_v1@AdobeXMPCore@@@2@@std@@PEAX@std@@@AdobeXMPCore_Int@@@?$_Tree_val@U?$_Tree_simple_types@U?$pair@$$CBV?$shared_ptr@$$CBVIUTF8String_v1@AdobeXMPCommon@@@std@@V?$shared_ptr@$$CBVIDOMParser_v1@AdobeXMPCore@@@2@@std@@@std@@@std@@QEAAXAEAV?$TAllocator@U?$_Tree_node@U?$pair@$$CBV?$shared_ptr@$$CBVIUTF8String_v1@AdobeXMPCommon@@@std@@V?$shared_ptr@$$CBVIDOMParser_v1@AdobeXMPCore@@@2@@std@@PEAX@std@@@AdobeXMPCore_Int@@PEAU?$_Tree_node@U?$pair@$$CBV?$shared_ptr@$$CBVIUTF8String_v1@AdobeXMPCommon@@@std@@V?$shared_ptr@$$CBVIDOMParser_v1@AdobeXMPCore@@@2@@std@@PEAX@1@@Z 0000000180072e24 f i DOMImplementationRegistryImpl.obj
 0001:00071e24       ??$_Erase_tree@V?$TAllocator@U?$_Tree_node@U?$pair@$$CBV?$shared_ptr@$$CBVIUTF8String_v1@AdobeXMPCommon@@@std@@V?$shared_ptr@$$CBVIDOMSerializer_v1@AdobeXMPCore@@@2@@std@@PEAX@std@@@AdobeXMPCore_Int@@@?$_Tree_val@U?$_Tree_simple_types@U?$pair@$$CBV?$shared_ptr@$$CBVIUTF8String_v1@AdobeXMPCommon@@@std@@V?$shared_ptr@$$CBVIDOMSerializer_v1@AdobeXMPCore@@@2@@std@@@std@@@std@@QEAAXAEAV?$TAllocator@U?$_Tree_node@U?$pair@$$CBV?$shared_ptr@$$CBVIUTF8String_v1@AdobeXMPCommon@@@std@@V?$shared_ptr@$$CBVIDOMSerializer_v1@AdobeXMPCore@@@2@@std@@PEAX@std@@@AdobeXMPCore_Int@@PEAU?$_Tree_node@U?$pair@$$CBV?$shared_ptr@$$CBVIUTF8String_v1@AdobeXMPCommon@@@std@@V?$shared_ptr@$$CBVIDOMSerializer_v1@AdobeXMPCore@@@2@@std@@PEAX@1@@Z 0000000180072e24 f i DOMImplementationRegistryImpl.obj
 0001:00071ea0       ?_Destroy@?$_Ref_count_resource_alloc@PEAVClientDOMParserWrapperImpl@AdobeXMPCore_Int@@V?$_Mem_fn@P8SharedObjectImpl@AdobeXMPCore_Int@@EBAXX_E@std@@V?$TAllocator@VClientDOMParserWrapperImpl@AdobeXMPCore_Int@@@2@@std@@EEAAXXZ 0000000180072ea0 f i DOMParserImpl.obj
 0001:00071ea0       ?_Destroy@?$_Ref_count_resource_alloc@PEAVClientDOMSerializerWrapperImpl@AdobeXMPCore_Int@@V?$_Mem_fn@P8SharedObjectImpl@AdobeXMPCore_Int@@EBAXX_E@std@@V?$TAllocator@VClientDOMSerializerWrapperImpl@AdobeXMPCore_Int@@@2@@std@@EEAAXXZ 0000000180072ea0 f i DOMSerializerImpl.obj
 0001:00071ea0       ?_Destroy@?$_Ref_count_resource_alloc@PEAVRDFDOMParserImpl@AdobeXMPCore_Int@@V?$_Mem_fn@P8SharedObjectImpl@AdobeXMPCore_Int@@EBAXX_E@std@@V?$TAllocator@VRDFDOMParserImpl@AdobeXMPCore_Int@@@2@@std@@EEAAXXZ 0000000180072ea0 f i DOMImplementationRegistryImpl.obj
 0001:00071ea0       ?_Destroy@?$_Ref_count_resource_alloc@PEAVRDFDOMSerializerImpl@AdobeXMPCore_Int@@V?$_Mem_fn@P8SharedObjectImpl@AdobeXMPCore_Int@@EBAXX_E@std@@V?$TAllocator@VRDFDOMSerializerImpl@AdobeXMPCore_Int@@@2@@std@@EEAAXXZ 0000000180072ea0 f i DOMImplementationRegistryImpl.obj
 0001:00071ee0       ??_EIDOMImplementationRegistry_I@AdobeXMPCore_Int@@$2PPPPPPPM@A@EAAPEAXI@Z 0000000180072ee0 f i DOMImplementationRegistryImpl.obj
 0001:00071eec       ??_ERDFDOMSerializerImpl@AdobeXMPCore_Int@@$2PPPPPPPM@BA@EAAPEAXI@Z 0000000180072eec f i DOMImplementationRegistryImpl.obj
 0001:00071efc       ?RegisterParser@DOMImplementationRegistryImpl@AdobeXMPCore_Int@@$4PPPPPPPM@A@EAA_NPEBDAEBV?$shared_ptr@$$CBVIDOMParser_v1@AdobeXMPCore@@@std@@@Z 0000000180072efc f i DOMImplementationRegistryImpl.obj
 0001:00071f08       ?GetParser@DOMImplementationRegistryImpl@AdobeXMPCore_Int@@$4PPPPPPPM@A@EBA?AV?$shared_ptr@VIDOMParser_v1@AdobeXMPCore@@@std@@PEBD@Z 0000000180072f08 f i DOMImplementationRegistryImpl.obj
 0001:00071f14       ?registerSerializer@IDOMImplementationRegistry_I@AdobeXMPCore_Int@@$2PPPPPPPM@A@EAAKPEBDPEAVIClientDOMSerializer_v1@AdobeXMPCore@@AEAPEBVIError_v1@AdobeXMPCommon@@@Z 0000000180072f14 f i DOMImplementationRegistryImpl.obj
 0001:00071f20       ?GetInterfacePointer@IDOMImplementationRegistry_I@AdobeXMPCore_Int@@$4PPPPPPPM@A@EAAPEAX_KK@Z 0000000180072f20 f i DOMImplementationRegistryImpl.obj
 0001:00071f2c       ?GetInterfacePointer@IDOMSerializer_I@AdobeXMPCore_Int@@$R4DA@BM@PPPPPPPM@DI@EAAPEAX_KK@Z 0000000180072f2c f i DOMImplementationRegistryImpl.obj
 0001:00071f48       ?Acquire@SharedObjectImpl@AdobeXMPCore_Int@@$R4CA@CE@PPPPPPPM@CA@EBAXXZ 0000000180072f48 f i DOMImplementationRegistryImpl.obj
 0001:00071f60       ?getSerializer@IDOMImplementationRegistry_I@AdobeXMPCore_Int@@$2PPPPPPPM@A@EBAPEAVIDOMSerializer_v1@AdobeXMPCore@@PEBDAEAPEBVIError_v1@AdobeXMPCommon@@@Z 0000000180072f60 f i DOMImplementationRegistryImpl.obj
 0001:00071f6c       ?ValidateValue@RDFDOMSerializerImpl@AdobeXMPCore_Int@@$4PPPPPPPM@A@EBA?AW4eConfigurableErrorCode@AdobeXMPCommon@@AEB_KW4eDataType@IConfigurable@4@AEBTCombinedDataValue@64@@Z 0000000180072f6c f i DOMImplementationRegistryImpl.obj
 0001:00071f78       ?GetInterfacePointer@IDOMImplementationRegistry_I@AdobeXMPCore_Int@@$R4EA@BE@PPPPPPPM@CI@EAAPEAX_KK@Z 0000000180072f78 f i DOMImplementationRegistryImpl.obj
 0001:00071f94       ?registerSerializer@IDOMImplementationRegistry_I@AdobeXMPCore_Int@@$R2FA@BE@PPPPPPPM@DI@EAAKPEBDPEAVIClientDOMSerializer_v1@AdobeXMPCore@@AEAPEBVIError_v1@AdobeXMPCommon@@@Z 0000000180072f94 f i DOMImplementationRegistryImpl.obj
 0001:00071fb0       ?registerParser@IDOMImplementationRegistry_I@AdobeXMPCore_Int@@$2PPPPPPPM@A@EAAKPEBDPEAVIClientDOMParser_v1@AdobeXMPCore@@AEAPEBVIError_v1@AdobeXMPCommon@@@Z 0000000180072fb0 f i DOMImplementationRegistryImpl.obj
 0001:00071fbc       ?AcquireInternal@SharedObjectImpl@AdobeXMPCore_Int@@$R4GI@BI@PPPPPPPM@DA@EBAXXZ 0000000180072fbc f i DOMImplementationRegistryImpl.obj
 0001:00071fd8       ?getSerializer@IDOMImplementationRegistry_I@AdobeXMPCore_Int@@$R2FA@BE@PPPPPPPM@DI@EBAPEAVIDOMSerializer_v1@AdobeXMPCore@@PEBDAEAPEBVIError_v1@AdobeXMPCommon@@@Z 0000000180072fd8 f i DOMImplementationRegistryImpl.obj
 0001:00071ff4       ?GetIDOMImplementationRegistry_I@IDOMImplementationRegistry_I@AdobeXMPCore_Int@@$R4FA@BE@PPPPPPPM@DI@EAAPEAV12@XZ 0000000180072ff4 f i DOMImplementationRegistryImpl.obj
 0001:00072010       ?GetISharedObject_I@IDOMSerializer_I@AdobeXMPCore_Int@@$R4CA@BM@PPPPPPPM@CI@EAAPEAVISharedObject_I@AdobeXMPCommon_Int@@XZ 0000000180073010 f i DOMImplementationRegistryImpl.obj
 0001:0007202c       ?Size@ConfigurableImpl@AdobeXMPCore_Int@@$R4BA@CA@PPPPPPPM@DI@EBA_KXZ 000000018007302c f i DOMImplementationRegistryImpl.obj
 0001:00072048       ?Acquire@SharedObjectImpl@AdobeXMPCore_Int@@$R4DA@BI@PPPPPPPM@CA@EBAXXZ 0000000180073048 f i DOMImplementationRegistryImpl.obj
 0001:00072064       ??_EIDOMImplementationRegistry_v1@AdobeXMPCore@@O7EAAPEAXI@Z 0000000180073064 f i DOMImplementationRegistryImpl.obj
 0001:00072070       ?registerParser@IDOMImplementationRegistry_I@AdobeXMPCore_Int@@$R2FA@BE@PPPPPPPM@DI@EAAKPEBDPEAVIClientDOMParser_v1@AdobeXMPCore@@AEAPEBVIError_v1@AdobeXMPCommon@@@Z 0000000180073070 f i DOMImplementationRegistryImpl.obj
 0001:0007208c       ?clone@IDOMSerializer_I@AdobeXMPCore_Int@@$R2EA@BM@PPPPPPPM@EI@EBAPEAVIDOMSerializer_v1@AdobeXMPCore@@AEAPEBVIError_v1@AdobeXMPCommon@@@Z 000000018007308c f i DOMImplementationRegistryImpl.obj
 0001:000720a8       ?RegisterSerializer@IDOMImplementationRegistry_I@AdobeXMPCore_Int@@$4PPPPPPPM@A@EAA_NPEBDPEAVIClientDOMSerializer_v1@AdobeXMPCore@@@Z 00000001800730a8 f i DOMImplementationRegistryImpl.obj
 0001:000720b4       ?serialize@IDOMSerializer_I@AdobeXMPCore_Int@@$R2EA@BM@PPPPPPPM@EI@EAAPEAVIUTF8String_v1@AdobeXMPCommon@@PEAVINode_v1@AdobeXMPCore@@PEBVINameSpacePrefixMap_v1@6@AEAPEBVIError_v1@4@@Z 00000001800730b4 f i DOMImplementationRegistryImpl.obj
 0001:000720d0       ?Serialize@RDFDOMSerializerImpl@AdobeXMPCore_Int@@$4PPPPPPPM@A@EAA?AV?$shared_ptr@VIUTF8String_v1@AdobeXMPCommon@@@std@@AEBV?$shared_ptr@VINode_v1@AdobeXMPCore@@@4@AEBV?$shared_ptr@$$CBVINameSpacePrefixMap_v1@AdobeXMPCore@@@4@@Z 00000001800730d0 f i DOMImplementationRegistryImpl.obj
 0001:000720dc       ?RegisterSerializer@IDOMImplementationRegistry_I@AdobeXMPCore_Int@@$R4FA@BE@PPPPPPPM@DI@EAA_NPEBDPEAVIClientDOMSerializer_v1@AdobeXMPCore@@@Z 00000001800730dc f i DOMImplementationRegistryImpl.obj
 0001:000720f8       ?RegisterParser@IDOMImplementationRegistry_I@AdobeXMPCore_Int@@$4PPPPPPPM@A@EAA_NPEBDPEAVIClientDOMParser_v1@AdobeXMPCore@@@Z 00000001800730f8 f i DOMImplementationRegistryImpl.obj
 0001:00072104       ??_ERDFDOMParserImpl@AdobeXMPCore_Int@@$2PPPPPPPM@A@EAAPEAXI@Z 0000000180073104 f i DOMImplementationRegistryImpl.obj
 0001:00072110       ?getInterfacePointer@IDOMSerializer_I@AdobeXMPCore_Int@@$R2DA@BM@PPPPPPPM@DI@EAAPEAX_KKAEAPEBVIError_v1@AdobeXMPCommon@@@Z 0000000180073110 f i DOMImplementationRegistryImpl.obj
 0001:0007212c       ?Release@SharedObjectImpl@AdobeXMPCore_Int@@$R4CA@CE@PPPPPPPM@CA@EBAXXZ 000000018007312c f i DOMImplementationRegistryImpl.obj
 0001:00072144       ??_ERDFDOMParserImpl@AdobeXMPCore_Int@@$2PPPPPPPM@CA@EAAPEAXI@Z 0000000180073144 f i DOMImplementationRegistryImpl.obj
 0001:00072154       ??_EDOMImplementationRegistryImpl@AdobeXMPCore_Int@@$2PPPPPPPM@BA@EAAPEAXI@Z 0000000180073154 f i DOMImplementationRegistryImpl.obj
 0001:00072164       ?SetAllowedKeys@ConfigurableImpl@AdobeXMPCore_Int@@$R4FI@CA@PPPPPPPM@EI@EAAXPEA_K_K@Z 0000000180073164 f i DOMImplementationRegistryImpl.obj
 0001:00072180       ?GetActualIDOMSerializer@IDOMSerializer_I@AdobeXMPCore_Int@@$R4EA@BM@PPPPPPPM@EI@EAAPEAVIDOMSerializer_v1@AdobeXMPCore@@XZ 0000000180073180 f i DOMImplementationRegistryImpl.obj
 0001:0007219c       ?RegisterParser@IDOMImplementationRegistry_I@AdobeXMPCore_Int@@$R4FA@BE@PPPPPPPM@DI@EAA_NPEBDPEAVIClientDOMParser_v1@AdobeXMPCore@@@Z 000000018007319c f i DOMImplementationRegistryImpl.obj
 0001:000721b8       ?GetIDOMSerializer_I@IDOMSerializer_I@AdobeXMPCore_Int@@$R4EA@BM@PPPPPPPM@EI@EAAPEAV12@XZ 00000001800731b8 f i DOMImplementationRegistryImpl.obj
 0001:000721d4       ??_ERDFDOMSerializerImpl@AdobeXMPCore_Int@@$2PPPPPPPM@A@EAAPEAXI@Z 00000001800731d4 f i DOMImplementationRegistryImpl.obj
 0001:000721e0       ??_EIDOMImplementationRegistry_I@AdobeXMPCore_Int@@$2PPPPPPPM@BA@EAAPEAXI@Z 00000001800731e0 f i DOMImplementationRegistryImpl.obj
 0001:000721f0       ?GetMutex@DOMSerializerImpl@AdobeXMPCore_Int@@$R4FI@CM@PPPPPPPM@HA@EBA?AV?$shared_ptr@VISharedMutex@AdobeXMPCore_Int@@@std@@XZ 00000001800731f0 f i DOMImplementationRegistryImpl.obj
 0001:0007220c       ??_ERDFDOMSerializerImpl@AdobeXMPCore_Int@@$2PPPPPPPM@CA@EAAPEAXI@Z 000000018007320c f i DOMImplementationRegistryImpl.obj
 0001:0007221c       ?GetSerializer@DOMImplementationRegistryImpl@AdobeXMPCore_Int@@$4PPPPPPPM@A@EBA?AV?$shared_ptr@VIDOMSerializer_v1@AdobeXMPCore@@@std@@PEBD@Z 000000018007321c f i DOMImplementationRegistryImpl.obj
 0001:00072228       ?SerializeInternal@RDFDOMSerializerImpl@AdobeXMPCore_Int@@$4PPPPPPPM@A@EBA?AV?$shared_ptr@VIUTF8String_v1@AdobeXMPCommon@@@std@@AEBV?$shared_ptr@VINode_v1@AdobeXMPCore@@@4@K_KPEBD21AEBV?$shared_ptr@$$CBVINameSpacePrefixMap_v1@AdobeXMPCore@@@4@@Z 0000000180073228 f i DOMImplementationRegistryImpl.obj
 0001:00072234       ?GetParameter@ConfigurableImpl@AdobeXMPCore_Int@@$R4FI@CA@PPPPPPPM@EI@EBA_NAEB_KW4eDataType@IConfigurable@AdobeXMPCommon@@AEATCombinedDataValue@45@@Z 0000000180073234 f i DOMImplementationRegistryImpl.obj
 0001:00072250       ?Release@SharedObjectImpl@AdobeXMPCore_Int@@$R4DA@BI@PPPPPPPM@CA@EBAXXZ 0000000180073250 f i DOMImplementationRegistryImpl.obj
 0001:0007226c       ?clone@RDFDOMParserImpl@AdobeXMPCore_Int@@$2PPPPPPPM@A@EBAPEAVDOMParserImpl@2@XZ 000000018007326c f i DOMImplementationRegistryImpl.obj
 0001:00072278       ?RemoveParameter@ConfigurableImpl@AdobeXMPCore_Int@@$R4BA@CA@PPPPPPPM@DI@EAA_NAEB_K@Z 0000000180073278 f i DOMImplementationRegistryImpl.obj
 0001:00072294       ?RegisterSerializer@DOMImplementationRegistryImpl@AdobeXMPCore_Int@@$4PPPPPPPM@A@EAA_NPEBDAEBV?$shared_ptr@$$CBVIDOMSerializer_v1@AdobeXMPCore@@@std@@@Z 0000000180073294 f i DOMImplementationRegistryImpl.obj
 0001:000722a0       ?GetDataType@ConfigurableImpl@AdobeXMPCore_Int@@$R4BA@CA@PPPPPPPM@DI@EBA?AW4eDataType@IConfigurable@AdobeXMPCommon@@AEB_K@Z 00000001800732a0 f i DOMImplementationRegistryImpl.obj
 0001:000722bc       ?GetAllParameters@ConfigurableImpl@AdobeXMPCore_Int@@$R4BA@CA@PPPPPPPM@DI@EBA?AV?$vector@_KV?$allocator@_K@std@@@std@@XZ 00000001800732bc f i DOMImplementationRegistryImpl.obj
 0001:000722d8       ?getParser@IDOMImplementationRegistry_I@AdobeXMPCore_Int@@$2PPPPPPPM@A@EBAPEAVIDOMParser_v1@AdobeXMPCore@@PEBDAEAPEBVIError_v1@AdobeXMPCommon@@@Z 00000001800732d8 f i DOMImplementationRegistryImpl.obj
 0001:000722e4       ?Clone@DOMSerializerImpl@AdobeXMPCore_Int@@$R4EA@CM@PPPPPPPM@FI@EBA?AV?$shared_ptr@VIDOMSerializer_v1@AdobeXMPCore@@@std@@XZ 00000001800732e4 f i DOMImplementationRegistryImpl.obj
 0001:00072300       ?SetParameter@ConfigurableImpl@AdobeXMPCore_Int@@$R4FI@CA@PPPPPPPM@EI@EAAXAEB_KW4eDataType@IConfigurable@AdobeXMPCommon@@AEBTCombinedDataValue@45@@Z 0000000180073300 f i DOMImplementationRegistryImpl.obj
 0001:0007231c       ?AcquireInternal@SharedObjectImpl@AdobeXMPCore_Int@@$R4HA@CE@PPPPPPPM@DA@EBAXXZ 000000018007331c f i DOMImplementationRegistryImpl.obj
 0001:00072338       ?getParser@IDOMImplementationRegistry_I@AdobeXMPCore_Int@@$R2FA@BE@PPPPPPPM@DI@EBAPEAVIDOMParser_v1@AdobeXMPCore@@PEBDAEAPEBVIError_v1@AdobeXMPCommon@@@Z 0000000180073338 f i DOMImplementationRegistryImpl.obj
 0001:00072354       ?getInterfacePointer@IDOMImplementationRegistry_I@AdobeXMPCore_Int@@$2PPPPPPPM@A@EAAPEAX_KKAEAPEBVIError_v1@AdobeXMPCommon@@@Z 0000000180073354 f i DOMImplementationRegistryImpl.obj
 0001:00072360       ?TreatKeyAsCaseInsensitive@ConfigurableImpl@AdobeXMPCore_Int@@$R4FI@CA@PPPPPPPM@EI@EAAX_N@Z 0000000180073360 f i DOMImplementationRegistryImpl.obj
 0001:0007237c       ?GetActualIDOMImplementationRegistry@IDOMImplementationRegistry_I@AdobeXMPCore_Int@@$4PPPPPPPM@A@EAAPEAVIDOMImplementationRegistry_v1@AdobeXMPCore@@XZ 000000018007337c f i DOMImplementationRegistryImpl.obj
 0001:0007237c       ?GetActualIError@IError_I@AdobeXMPCore_Int@@$4PPPPPPPM@A@EAAPEAVIError_v1@AdobeXMPCommon@@XZ 000000018007337c f i ErrorImpl.obj
 0001:00072388       ?getInterfacePointer@IDOMImplementationRegistry_I@AdobeXMPCore_Int@@$R2EA@BE@PPPPPPPM@CI@EAAPEAX_KKAEAPEBVIError_v1@AdobeXMPCommon@@@Z 0000000180073388 f i DOMImplementationRegistryImpl.obj
 0001:000723a4       ?clone@RDFDOMSerializerImpl@AdobeXMPCore_Int@@$2PPPPPPPM@A@EBAPEAVDOMSerializerImpl@2@XZ 00000001800733a4 f i DOMImplementationRegistryImpl.obj
 0001:000723b0       ?ParseAsNode@RDFDOMParserImpl@AdobeXMPCore_Int@@$4PPPPPPPM@A@EAA?AV?$shared_ptr@VINode_v1@AdobeXMPCore@@@std@@PEBD_K@Z 00000001800733b0 f i DOMImplementationRegistryImpl.obj
 0001:000723bc       ?SetAllowedValueTypesForKeys@ConfigurableImpl@AdobeXMPCore_Int@@$R4FI@CA@PPPPPPPM@EI@EAAXPEAU?$pair@$$CB_KW4eDataType@IConfigurable@AdobeXMPCommon@@@std@@_K@Z 00000001800733bc f i DOMImplementationRegistryImpl.obj
 0001:000723d8       ?AllowDifferentValueTypesForExistingEntries@ConfigurableImpl@AdobeXMPCore_Int@@$R4FI@CA@PPPPPPPM@EI@EAAX_N@Z 00000001800733d8 f i DOMImplementationRegistryImpl.obj
 0001:000723f4       ??_ERDFDOMParserImpl@AdobeXMPCore_Int@@$2PPPPPPPM@BA@EAAPEAXI@Z 00000001800733f4 f i DOMImplementationRegistryImpl.obj
 0001:00072404       ?GetActualIDOMImplementationRegistry@IDOMImplementationRegistry_I@AdobeXMPCore_Int@@$R4FA@BE@PPPPPPPM@DI@EAAPEAVIDOMImplementationRegistry_v1@AdobeXMPCore@@XZ 0000000180073404 f i DOMImplementationRegistryImpl.obj
 0001:00072420       ??_EDOMImplementationRegistryImpl@AdobeXMPCore_Int@@$2PPPPPPPM@A@EAAPEAXI@Z 0000000180073420 f i DOMImplementationRegistryImpl.obj
 0001:0007242c       ?GetISharedObject_I@IDOMImplementationRegistry_I@AdobeXMPCore_Int@@$4PPPPPPPM@A@EAAPEAVISharedObject_I@AdobeXMPCommon_Int@@XZ 000000018007342c f i DOMImplementationRegistryImpl.obj
 0001:0007242c       ?GetISharedObject_I@IError_I@AdobeXMPCore_Int@@$4PPPPPPPM@A@EAAPEAVISharedObject_I@AdobeXMPCommon_Int@@XZ 000000018007342c f i ErrorImpl.obj
 0001:00072438       ?GetISharedObject_I@IDOMImplementationRegistry_I@AdobeXMPCore_Int@@$R4DA@BE@PPPPPPPM@BI@EAAPEAVISharedObject_I@AdobeXMPCommon_Int@@XZ 0000000180073438 f i DOMImplementationRegistryImpl.obj
 0001:00072454       ??0DOMParserImpl@AdobeXMPCore_Int@@QEAA@XZ 0000000180073454 f   DOMParserImpl.obj
 0001:00072574       ?Clone@DOMParserImpl@AdobeXMPCore_Int@@UEBA?AV?$shared_ptr@VIDOMParser_v1@AdobeXMPCore@@@std@@XZ 0000000180073574 f   DOMParserImpl.obj
 0001:00072834       ?Parse@DOMParserImpl@AdobeXMPCore_Int@@UEAA?AV?$shared_ptr@VIMetadata_v1@AdobeXMPCore@@@std@@PEBD_K@Z 0000000180073834 f   DOMParserImpl.obj
 0001:00074bd0       ?ParseWithSpecificAction@DOMParserImpl@AdobeXMPCore_Int@@UEAAXPEBD_KW4eActionType@IDOMParser_v1@AdobeXMPCore@@AEAV?$shared_ptr@VINode_v1@AdobeXMPCore@@@std@@@Z 0000000180075bd0 f   DOMParserImpl.obj
 0001:00074de8       ?GetMutex@DOMParserImpl@AdobeXMPCore_Int@@UEBA?AV?$shared_ptr@VISharedMutex@AdobeXMPCore_Int@@@std@@XZ 0000000180075de8 f   DOMParserImpl.obj
 0001:00074de8       ?GetNameSpace@PathSegmentImpl@AdobeXMPCore_Int@@UEBA?AV?$shared_ptr@$$CBVIUTF8String_v1@AdobeXMPCommon@@@std@@XZ 0000000180075de8 f   PathSegmentImpl.obj
 0001:00074e18       ?CreateDOMParser@IDOMParser_I@AdobeXMPCore_Int@@SA?AV?$shared_ptr@VIDOMParser_v1@AdobeXMPCore@@@std@@PEAVIClientDOMParser_v1@AdobeXMPCore@@@Z 0000000180075e18 f   DOMParserImpl.obj
 0001:00074f78       ?SetErrorCallback@DOMParserImpl@AdobeXMPCore_Int@@UEAAXPEAVErrorCallbackInfo@XMPMeta@@@Z 0000000180075f78 f   DOMParserImpl.obj
 0001:00074f78       ?SetErrorCallback@RDFDOMParserImpl@AdobeXMPCore_Int@@UEAAXPEAVErrorCallbackInfo@XMPMeta@@@Z 0000000180075f78 f   RDFDOMParserImpl.obj
 0001:00074f80       ??$?0V?$_Tree_const_iterator@V?$_Tree_val@U?$_Tree_simple_types@_K@std@@@std@@@std@@@?$set@_KU?$less@_K@std@@V?$TAllocator@_K@AdobeXMPCore_Int@@@std@@QEAA@V?$_Tree_const_iterator@V?$_Tree_val@U?$_Tree_simple_types@_K@std@@@std@@@1@0@Z 0000000180075f80 f i DOMParserImpl.obj
 0001:0007505c       ??$?0V?$_Tree_iterator@V?$_Tree_val@U?$_Tree_simple_types@U?$pair@$$CB_KW4eDataType@IConfigurable@AdobeXMPCommon@@@std@@@std@@@std@@@std@@@?$map@_KW4eDataType@IConfigurable@AdobeXMPCommon@@U?$less@_K@std@@V?$TAllocator@U?$pair@$$CB_KW4eDataType@IConfigurable@AdobeXMPCommon@@@std@@@AdobeXMPCore_Int@@@std@@QEAA@V?$_Tree_iterator@V?$_Tree_val@U?$_Tree_simple_types@U?$pair@$$CB_KW4eDataType@IConfigurable@AdobeXMPCommon@@@std@@@std@@@std@@@1@0@Z 000000018007605c f i DOMParserImpl.obj
 0001:00075138       ??$MakeUncheckedSharedPointer@VIMetadata_v1@AdobeXMPCore@@@AdobeXMPCore_Int@@YA?AV?$shared_ptr@VIMetadata_v1@AdobeXMPCore@@@std@@PEAVIMetadata_v1@AdobeXMPCore@@PEBD_K_N@Z 0000000180076138 f i DOMParserImpl.obj
 0001:000751c4       ??9?$_Tree_const_iterator@V?$_Tree_val@U?$_Tree_simple_types@U?$pair@$$CB_KU?$pair@W4eDataType@IConfigurable@AdobeXMPCommon@@TCombinedDataValue@23@@std@@@std@@@std@@@std@@@std@@QEBA_NAEBV01@@Z 00000001800761c4 f i DOMParserImpl.obj
 0001:000751d0       ??A?$map@_KU?$pair@W4eDataType@IConfigurable@AdobeXMPCommon@@TCombinedDataValue@23@@std@@U?$less@_K@2@V?$TAllocator@U?$pair@$$CB_KU?$pair@W4eDataType@IConfigurable@AdobeXMPCommon@@TCombinedDataValue@23@@std@@@std@@@AdobeXMPCore_Int@@@std@@QEAAAEAU?$pair@W4eDataType@IConfigurable@AdobeXMPCommon@@TCombinedDataValue@23@@1@AEB_K@Z 00000001800761d0 f i DOMParserImpl.obj
 0001:000752d0       ??$_Emplace_hint@AEB_K@?$_Tree@V?$_Tset_traits@_KU?$less@_K@std@@V?$TAllocator@_K@AdobeXMPCore_Int@@$0A@@std@@@std@@IEAAPEAU?$_Tree_node@_KPEAX@1@QEAU21@AEB_K@Z 00000001800762d0 f i DOMParserImpl.obj
 0001:00075530       ??$_Emplace_hint@AEAU?$pair@$$CB_KW4eDataType@IConfigurable@AdobeXMPCommon@@@std@@@?$_Tree@V?$_Tmap_traits@_KW4eDataType@IConfigurable@AdobeXMPCommon@@U?$less@_K@std@@V?$TAllocator@U?$pair@$$CB_KW4eDataType@IConfigurable@AdobeXMPCommon@@@std@@@AdobeXMPCore_Int@@$0A@@std@@@std@@IEAAPEAU?$_Tree_node@U?$pair@$$CB_KW4eDataType@IConfigurable@AdobeXMPCommon@@@std@@PEAX@1@QEAU21@AEAU?$pair@$$CB_KW4eDataType@IConfigurable@AdobeXMPCommon@@@1@@Z 0000000180076530 f i DOMParserImpl.obj
 0001:00075790       ?_Destroy@?$_Ref_count_resource_alloc@PEAVDOMParserImpl@AdobeXMPCore_Int@@V?$_Mem_fn@P8SharedObjectImpl@AdobeXMPCore_Int@@EBAXX_E@std@@V?$TAllocator@VDOMParserImpl@AdobeXMPCore_Int@@@2@@std@@EEAAXXZ 0000000180076790 f i DOMParserImpl.obj
 0001:00075790       ?_Destroy@?$_Ref_count_resource_alloc@PEAVDOMSerializerImpl@AdobeXMPCore_Int@@V?$_Mem_fn@P8SharedObjectImpl@AdobeXMPCore_Int@@EBAXX_E@std@@V?$TAllocator@VDOMSerializerImpl@AdobeXMPCore_Int@@@2@@std@@EEAAXXZ 0000000180076790 f i DOMSerializerImpl.obj
 0001:000757d4       ??0DOMSerializerImpl@AdobeXMPCore_Int@@QEAA@XZ 00000001800767d4 f   DOMSerializerImpl.obj
 0001:000758e0       ?GetMessage@ErrorImpl@AdobeXMPCore_Int@@UEBA?AV?$shared_ptr@$$CBVIUTF8String_v1@AdobeXMPCommon@@@std@@XZ 00000001800768e0 f   ErrorImpl.obj
 0001:000758e0       ?GetMutex@DOMSerializerImpl@AdobeXMPCore_Int@@UEBA?AV?$shared_ptr@VISharedMutex@AdobeXMPCore_Int@@@std@@XZ 00000001800768e0 f   DOMSerializerImpl.obj
 0001:00075910       ?Clone@DOMSerializerImpl@AdobeXMPCore_Int@@UEBA?AV?$shared_ptr@VIDOMSerializer_v1@AdobeXMPCore@@@std@@XZ 0000000180076910 f   DOMSerializerImpl.obj
 0001:00075bd0       ?CreateDOMSerializer@IDOMSerializer_I@AdobeXMPCore_Int@@SA?AV?$shared_ptr@VIDOMSerializer_v1@AdobeXMPCore@@@std@@PEAVIClientDOMSerializer_v1@AdobeXMPCore@@@Z 0000000180076bd0 f   DOMSerializerImpl.obj
 0001:00075d30       ?CreateAndPopulateNode@MetadataConverterUtilsImpl@AdobeXMPCore_Int@@CAXAEBV?$shared_ptr@VINode_v1@AdobeXMPCore@@@std@@PEAVXMP_Node@@_N@Z 0000000180076d30 f   MetadataConverterUtilsImpl.obj
 0001:00076344       ?ConvertOldDOMtoNewDOM@MetadataConverterUtilsImpl@AdobeXMPCore_Int@@SA?AV?$shared_ptr@VIMetadata_v1@AdobeXMPCore@@@std@@PEBVXMPMeta@@@Z 0000000180077344 f   MetadataConverterUtilsImpl.obj
 0001:000764c0       ?CreateQualifiedName@MetadataConverterUtilsImpl@AdobeXMPCore_Int@@CA?AV?$shared_ptr@$$CBVIUTF8String_v1@AdobeXMPCommon@@@std@@AEBV?$shared_ptr@VINode_v1@AdobeXMPCore@@@4@AEBV?$shared_ptr@$$CBVINameSpacePrefixMap_I@AdobeXMPCore_Int@@@4@AEAV?$shared_ptr@VINameSpacePrefixMap_I@AdobeXMPCore_Int@@@4@@Z 00000001800774c0 f   MetadataConverterUtilsImpl.obj
 0001:00076c68       ??_D?$basic_ostringstream@DU?$char_traits@D@std@@V?$allocator@D@2@@std@@QEAAXXZ 0000000180077c68 f i MetadataConverterUtilsImpl.obj
 0001:00076cc4       ?AddQualifierNode@MetadataConverterUtilsImpl@AdobeXMPCore_Int@@CAPEAVXMP_Node@@PEAV3@AEBV?$shared_ptr@VINode_v1@AdobeXMPCore@@@std@@PEBDAEBV?$shared_ptr@$$CBVINameSpacePrefixMap_I@AdobeXMPCore_Int@@@5@AEAV?$shared_ptr@VINameSpacePrefixMap_I@AdobeXMPCore_Int@@@5@@Z 0000000180077cc4 f   MetadataConverterUtilsImpl.obj
 0001:000770dc       ?FindPrefixFromUserSuppliedMap@MetadataConverterUtilsImpl@AdobeXMPCore_Int@@CA_NPEAXPEBDPEAPEBDPEAK@Z 00000001800780dc f   MetadataConverterUtilsImpl.obj
 0001:000771b0       ?AddChildNode@MetadataConverterUtilsImpl@AdobeXMPCore_Int@@CAPEAVXMP_Node@@PEAV3@AEBV?$shared_ptr@VINode_v1@AdobeXMPCore@@@std@@PEBDAEBV?$shared_ptr@$$CBVINameSpacePrefixMap_I@AdobeXMPCore_Int@@@5@AEAV?$shared_ptr@VINameSpacePrefixMap_I@AdobeXMPCore_Int@@@5@_N@Z 00000001800781b0 f   MetadataConverterUtilsImpl.obj
 0001:000775d8       ?HandleStructureNode@MetadataConverterUtilsImpl@AdobeXMPCore_Int@@CAPEAVXMP_Node@@AEBV?$shared_ptr@VIStructureNode_v1@AdobeXMPCore@@@std@@PEAV3@AEBV?$shared_ptr@$$CBVINameSpacePrefixMap_I@AdobeXMPCore_Int@@@5@AEAV?$shared_ptr@VINameSpacePrefixMap_I@AdobeXMPCore_Int@@@5@_N4@Z 00000001800785d8 f   MetadataConverterUtilsImpl.obj
 0001:0007794c       ?HandleArrayNode@MetadataConverterUtilsImpl@AdobeXMPCore_Int@@CAPEAVXMP_Node@@AEBV?$shared_ptr@VIArrayNode_v1@AdobeXMPCore@@@std@@PEAV3@AEBV?$shared_ptr@$$CBVINameSpacePrefixMap_I@AdobeXMPCore_Int@@@5@AEAV?$shared_ptr@VINameSpacePrefixMap_I@AdobeXMPCore_Int@@@5@_N4@Z 000000018007894c f   MetadataConverterUtilsImpl.obj
 0001:00077bec       ?HandleSimpleNode@MetadataConverterUtilsImpl@AdobeXMPCore_Int@@CAPEAVXMP_Node@@AEBV?$shared_ptr@VISimpleNode_v1@AdobeXMPCore@@@std@@PEAV3@AEBV?$shared_ptr@$$CBVINameSpacePrefixMap_I@AdobeXMPCore_Int@@@5@AEAV?$shared_ptr@VINameSpacePrefixMap_I@AdobeXMPCore_Int@@@5@_N4@Z 0000000180078bec f   MetadataConverterUtilsImpl.obj
 0001:00077dd0       ?HandleNode@MetadataConverterUtilsImpl@AdobeXMPCore_Int@@CAXAEBV?$shared_ptr@VINode_v1@AdobeXMPCore@@@std@@PEAVXMP_Node@@AEBV?$shared_ptr@$$CBVINameSpacePrefixMap_I@AdobeXMPCore_Int@@@4@AEAV?$shared_ptr@VINameSpacePrefixMap_I@AdobeXMPCore_Int@@@4@_N4@Z 0000000180078dd0 f   MetadataConverterUtilsImpl.obj
 0001:00078068       ?ConvertNewDOMtoOldDOM@MetadataConverterUtilsImpl@AdobeXMPCore_Int@@SAPEAU__XMPMeta__@@V?$shared_ptr@VINode_v1@AdobeXMPCore@@@std@@AEBV?$shared_ptr@$$CBVINameSpacePrefixMap_v1@AdobeXMPCore@@@5@AEAK@Z 0000000180079068 f   MetadataConverterUtilsImpl.obj
 0001:000783e0       ??$MakeUncheckedSharedPointer@VINameSpacePrefixMap_I@AdobeXMPCore_Int@@@AdobeXMPCore_Int@@YA?AV?$shared_ptr@VINameSpacePrefixMap_I@AdobeXMPCore_Int@@@std@@PEAVINameSpacePrefixMap_I@0@PEBD_K_N@Z 00000001800793e0 f i MetadataConverterUtilsImpl.obj
 0001:00078510       ?str@?$basic_ostringstream@DU?$char_traits@D@std@@V?$allocator@D@2@@std@@QEBA?AV?$basic_string@DU?$char_traits@D@std@@V?$allocator@D@2@@2@XZ 0000000180079510 f i MetadataConverterUtilsImpl.obj
 0001:000785d8       ??0?$basic_ostringstream@DU?$char_traits@D@std@@V?$allocator@D@2@@std@@QEAA@XZ 00000001800795d8 f i MetadataConverterUtilsImpl.obj
 0001:00078680       ?seekpos@?$basic_stringbuf@DU?$char_traits@D@std@@V?$TAllocator@D@AdobeXMPCore_Int@@@std@@MEAA?AV?$fpos@U_Mbstatet@@@2@V32@H@Z 0000000180079680 f i ErrorImpl.obj
 0001:00078680       ?seekpos@?$basic_stringbuf@DU?$char_traits@D@std@@V?$allocator@D@2@@std@@MEAA?AV?$fpos@U_Mbstatet@@@2@V32@H@Z 0000000180079680 f i MetadataConverterUtilsImpl.obj
 0001:000787a4       ?seekoff@?$basic_stringbuf@DU?$char_traits@D@std@@V?$TAllocator@D@AdobeXMPCore_Int@@@std@@MEAA?AV?$fpos@U_Mbstatet@@@2@_JHH@Z 00000001800797a4 f i ErrorImpl.obj
 0001:000787a4       ?seekoff@?$basic_stringbuf@DU?$char_traits@D@std@@V?$allocator@D@2@@std@@MEAA?AV?$fpos@U_Mbstatet@@@2@_JHH@Z 00000001800797a4 f i MetadataConverterUtilsImpl.obj
 0001:00078924       ?underflow@?$basic_stringbuf@DU?$char_traits@D@std@@V?$TAllocator@D@AdobeXMPCore_Int@@@std@@MEAAHXZ 0000000180079924 f i ErrorImpl.obj
 0001:00078924       ?underflow@?$basic_stringbuf@DU?$char_traits@D@std@@V?$allocator@D@2@@std@@MEAAHXZ 0000000180079924 f i MetadataConverterUtilsImpl.obj
 0001:00078980       ?pbackfail@?$basic_stringbuf@DU?$char_traits@D@std@@V?$TAllocator@D@AdobeXMPCore_Int@@@std@@MEAAHH@Z 0000000180079980 f i ErrorImpl.obj
 0001:00078980       ?pbackfail@?$basic_stringbuf@DU?$char_traits@D@std@@V?$allocator@D@2@@std@@MEAAHH@Z 0000000180079980 f i MetadataConverterUtilsImpl.obj
 0001:000789d0       ?overflow@?$basic_stringbuf@DU?$char_traits@D@std@@V?$allocator@D@2@@std@@MEAAHH@Z 00000001800799d0 f i MetadataConverterUtilsImpl.obj
 0001:00078b94       ??1?$basic_stringbuf@DU?$char_traits@D@std@@V?$allocator@D@2@@std@@UEAA@XZ 0000000180079b94 f i MetadataConverterUtilsImpl.obj
 0001:00078c88       ??_E?$basic_ostringstream@DU?$char_traits@D@std@@V?$allocator@D@2@@std@@UEAAPEAXI@Z 0000000180079c88 f i * CIL library *:* CIL module *
 0001:00078c88       ??_G?$basic_ostringstream@DU?$char_traits@D@std@@V?$allocator@D@2@@std@@UEAAPEAXI@Z 0000000180079c88 f i MetadataConverterUtilsImpl.obj
 0001:00078d14       ??_E?$basic_stringbuf@DU?$char_traits@D@std@@V?$allocator@D@2@@std@@UEAAPEAXI@Z 0000000180079d14 f i * CIL library *:* CIL module *
 0001:00078d14       ??_G?$basic_stringbuf@DU?$char_traits@D@std@@V?$allocator@D@2@@std@@UEAAPEAXI@Z 0000000180079d14 f i MetadataConverterUtilsImpl.obj
 0001:00078d48       ??_E?$basic_ostringstream@DU?$char_traits@D@std@@V?$allocator@D@2@@std@@$4PPPPPPPM@A@EAAPEAXI@Z 0000000180079d48 f i MetadataConverterUtilsImpl.obj
 0001:00078d54       ??1IStructureNode_v1@AdobeXMPCore@@MEAA@XZ 0000000180079d54 f i MetadataImpl.obj
 0001:00078dc8       ??_EIStructureNode_v1@AdobeXMPCore@@MEAAPEAXI@Z 0000000180079dc8 f i * CIL library *:* CIL module *
 0001:00078dc8       ??_GIStructureNode_v1@AdobeXMPCore@@MEAAPEAXI@Z 0000000180079dc8 f i MetadataImpl.obj
 0001:00078e60       ??1IMetadata_v1@AdobeXMPCore@@MEAA@XZ 0000000180079e60 f i MetadataImpl.obj
 0001:00078ee8       ??_EIMetadata_v1@AdobeXMPCore@@MEAAPEAXI@Z 0000000180079ee8 f i * CIL library *:* CIL module *
 0001:00078ee8       ??_GIMetadata_v1@AdobeXMPCore@@MEAAPEAXI@Z 0000000180079ee8 f i MetadataImpl.obj
 0001:00078f94       ?GetActualIStructureNode@IStructureNode_I@AdobeXMPCore_Int@@UEAAPEAVIStructureNode_v1@AdobeXMPCore@@XZ 0000000180079f94 f i MetadataImpl.obj
 0001:00078fb4       ??1IStructureNode_I@AdobeXMPCore_Int@@MEAA@XZ 0000000180079fb4 f i MetadataImpl.obj
 0001:000790b8       ??_EIStructureNode_I@AdobeXMPCore_Int@@MEAAPEAXI@Z 000000018007a0b8 f i * CIL library *:* CIL module *
 0001:000790b8       ??_GIStructureNode_I@AdobeXMPCore_Int@@MEAAPEAXI@Z 000000018007a0b8 f i MetadataImpl.obj
 0001:000790f0       ?GetActualIMetadata@IMetadata_I@AdobeXMPCore_Int@@UEAAPEAVIMetadata_v1@AdobeXMPCore@@XZ 000000018007a0f0 f i MetadataImpl.obj
 0001:0007910c       ?GetISharedObject_I@IMetadata_I@AdobeXMPCore_Int@@UEAAPEAVISharedObject_I@AdobeXMPCommon_Int@@XZ 000000018007a10c f i MetadataImpl.obj
 0001:00079128       ?GetIMetadata_I@IMetadata_I@AdobeXMPCore_Int@@UEAAPEAV12@XZ 000000018007a128 f i MetadataImpl.obj
 0001:00079130       ??1IMetadata_I@AdobeXMPCore_Int@@MEAA@XZ 000000018007a130 f i MetadataImpl.obj
 0001:00079270       ??_EIMetadata_I@AdobeXMPCore_Int@@MEAAPEAXI@Z 000000018007a270 f i * CIL library *:* CIL module *
 0001:00079270       ??_GIMetadata_I@AdobeXMPCore_Int@@MEAAPEAXI@Z 000000018007a270 f i MetadataImpl.obj
 0001:000792a8       ??1StructureNodeImpl@AdobeXMPCore_Int@@MEAA@XZ 000000018007a2a8 f i MetadataImpl.obj
 0001:00079490       ??_EStructureNodeImpl@AdobeXMPCore_Int@@MEAAPEAXI@Z 000000018007a490 f i * CIL library *:* CIL module *
 0001:00079490       ??_GStructureNodeImpl@AdobeXMPCore_Int@@MEAAPEAXI@Z 000000018007a490 f i MetadataImpl.obj
 0001:000794f0       ??_DStructureNodeImpl@AdobeXMPCore_Int@@IEAAXXZ 000000018007a4f0 f i MetadataImpl.obj
 0001:00079700       ??1MetadataImpl@AdobeXMPCore_Int@@MEAA@XZ 000000018007a700 f i MetadataImpl.obj
 0001:0007991c       ??_EMetadataImpl@AdobeXMPCore_Int@@MEAAPEAXI@Z 000000018007a91c f i * CIL library *:* CIL module *
 0001:0007991c       ??_GMetadataImpl@AdobeXMPCore_Int@@MEAAPEAXI@Z 000000018007a91c f i MetadataImpl.obj
 0001:0007997c       ??_DMetadataImpl@AdobeXMPCore_Int@@IEAAXXZ 000000018007a97c f i MetadataImpl.obj
 0001:00079c58       ??0MetadataImpl@AdobeXMPCore_Int@@QEAA@XZ 000000018007ac58 f   MetadataImpl.obj
 0001:0007a538       ??0IStructureNode_I@AdobeXMPCore_Int@@QEAA@XZ 000000018007b538 f i MetadataImpl.obj
 0001:0007a634       ?GetAboutURI@MetadataImpl@AdobeXMPCore_Int@@MEBA?AV?$shared_ptr@$$CBVIUTF8String_v1@AdobeXMPCommon@@@std@@XZ 000000018007b634 f   MetadataImpl.obj
 0001:0007a6b4       ?SetAboutURI@MetadataImpl@AdobeXMPCore_Int@@MEAAXPEBD_K@Z 000000018007b6b4 f   MetadataImpl.obj
 0001:0007a758       ?GetName@MetadataImpl@AdobeXMPCore_Int@@MEBA?AV?$shared_ptr@$$CBVIUTF8String_v1@AdobeXMPCommon@@@std@@XZ 000000018007b758 f   MetadataImpl.obj
 0001:0007a758       ?GetNameSpace@MetadataImpl@AdobeXMPCore_Int@@MEBA?AV?$shared_ptr@$$CBVIUTF8String_v1@AdobeXMPCommon@@@std@@XZ 000000018007b758 f   MetadataImpl.obj
 0001:0007a7d8       ?ClearContents@MetadataImpl@AdobeXMPCore_Int@@MEAAXXZ 000000018007b7d8 f   MetadataImpl.obj
 0001:0007a83c       ?CloneContents@MetadataImpl@AdobeXMPCore_Int@@MEBA?AV?$shared_ptr@VINode_v1@AdobeXMPCore@@@std@@_N0_K@Z 000000018007b83c f   MetadataImpl.obj
 0001:0007a9d4       ?ConvertToMetadata@MetadataImpl@AdobeXMPCore_Int@@MEAA?AV?$shared_ptr@VIMetadata_v1@AdobeXMPCore@@@std@@XZ 000000018007b9d4 f   MetadataImpl.obj
 0001:0007aa78       ?EnableFeature@MetadataImpl@AdobeXMPCore_Int@@MEBAXPEBD_K@Z 000000018007ba78 f   MetadataImpl.obj
 0001:0007ab20       ?DisableFeature@MetadataImpl@AdobeXMPCore_Int@@MEBAXPEBD_K@Z 000000018007bb20 f   MetadataImpl.obj
 0001:0007abc8       ?IsNodeAlias@AdobeXMPCore_Int@@YA_NPEBD0AEAV?$vector@VXPathStepInfo@@V?$allocator@VXPathStepInfo@@@std@@@std@@@Z 000000018007bbc8 f   MetadataImpl.obj
 0001:0007af44       ?HandleConstAlias@AdobeXMPCore_Int@@YA_NAEBV?$shared_ptr@VIMetadata_v1@AdobeXMPCore@@@std@@AEAV?$shared_ptr@VINode_v1@AdobeXMPCore@@@3@AEBV?$vector@VXPathStepInfo@@V?$allocator@VXPathStepInfo@@@std@@@3@AEA_K@Z 000000018007bf44 f   MetadataImpl.obj
 0001:0007d424       ?ReplaceNode@MetadataImpl@AdobeXMPCore_Int@@MEAA?AV?$shared_ptr@VINode_v1@AdobeXMPCore@@@std@@AEBV34@@Z 000000018007e424 f   MetadataImpl.obj
 0001:0007df7c       ?InsertNode@MetadataImpl@AdobeXMPCore_Int@@MEAAXAEBV?$shared_ptr@VINode_v1@AdobeXMPCore@@@std@@@Z 000000018007ef7c f   MetadataImpl.obj
 0001:0007e2e0       ?RemoveNode@MetadataImpl@AdobeXMPCore_Int@@MEAA?AV?$shared_ptr@VINode_v1@AdobeXMPCore@@@std@@AEBV?$shared_ptr@$$CBVIUTF8String_v1@AdobeXMPCommon@@@4@0@Z 000000018007f2e0 f   MetadataImpl.obj
 0001:0007e7cc       ?GetNode@MetadataImpl@AdobeXMPCore_Int@@MEAA?AV?$shared_ptr@VINode_v1@AdobeXMPCore@@@std@@AEBV?$shared_ptr@$$CBVIUTF8String_v1@AdobeXMPCommon@@@4@0@Z 000000018007f7cc f   MetadataImpl.obj
 0001:0007eb08       ?CreateMetadata@IMetadata_v1@AdobeXMPCore@@SA?AV?$shared_ptr@VIMetadata_v1@AdobeXMPCore@@@std@@XZ 000000018007fb08 f   MetadataImpl.obj
 0001:0007ebcc       ??$MakeUncheckedSharedPointer@VMetadataImpl@AdobeXMPCore_Int@@@AdobeXMPCore_Int@@YA?AV?$shared_ptr@VMetadataImpl@AdobeXMPCore_Int@@@std@@PEAVMetadataImpl@0@PEBD_K_N@Z 000000018007fbcc f i MetadataImpl.obj
 0001:0007ed1c       ??A?$map@V?$basic_string@DU?$char_traits@D@std@@V?$allocator@D@2@@std@@V?$vector@VXPathStepInfo@@V?$allocator@VXPathStepInfo@@@std@@@2@U?$less@V?$basic_string@DU?$char_traits@D@std@@V?$allocator@D@2@@std@@@2@V?$allocator@U?$pair@$$CBV?$basic_string@DU?$char_traits@D@std@@V?$allocator@D@2@@std@@V?$vector@VXPathStepInfo@@V?$allocator@VXPathStepInfo@@@std@@@2@@std@@@2@@std@@QEAAAEAV?$vector@VXPathStepInfo@@V?$allocator@VXPathStepInfo@@@std@@@1@$$QEAV?$basic_string@DU?$char_traits@D@std@@V?$allocator@D@2@@1@@Z 000000018007fd1c f i MetadataImpl.obj
 0001:0007ee68       ??1?$basic_string@DU?$char_traits@D@std@@V?$TAllocator@D@AdobeXMPCore_Int@@@std@@QEAA@XZ 000000018007fe68 f i MetadataImpl.obj
 0001:0007eeb0       ??0?$basic_string@DU?$char_traits@D@std@@V?$TAllocator@D@AdobeXMPCore_Int@@@std@@QEAA@QEBD_K@Z 000000018007feb0 f i MetadataImpl.obj
 0001:0007ef98       ??$_Erase_tree@V?$TAllocator@U?$_Tree_node@U?$pair@$$CBUQualifiedName@StructureNodeImpl@AdobeXMPCore_Int@@V?$shared_ptr@VINode_v1@AdobeXMPCore@@@std@@@std@@PEAX@std@@@AdobeXMPCore_Int@@@?$_Tree_val@U?$_Tree_simple_types@U?$pair@$$CBUQualifiedName@StructureNodeImpl@AdobeXMPCore_Int@@V?$shared_ptr@VINode_v1@AdobeXMPCore@@@std@@@std@@@std@@@std@@QEAAXAEAV?$TAllocator@U?$_Tree_node@U?$pair@$$CBUQualifiedName@StructureNodeImpl@AdobeXMPCore_Int@@V?$shared_ptr@VINode_v1@AdobeXMPCore@@@std@@@std@@PEAX@std@@@AdobeXMPCore_Int@@PEAU?$_Tree_node@U?$pair@$$CBUQualifiedName@StructureNodeImpl@AdobeXMPCore_Int@@V?$shared_ptr@VINode_v1@AdobeXMPCore@@@std@@@std@@PEAX@1@@Z 000000018007ff98 f i MetadataImpl.obj
 0001:0007f050       ?_Destroy@?$_Ref_count_resource_alloc@PEAVMetadataImpl@AdobeXMPCore_Int@@V?$_Mem_fn@P8NodeImpl@AdobeXMPCore_Int@@EBAXX_E@std@@V?$TAllocator@VMetadataImpl@AdobeXMPCore_Int@@@2@@std@@EEAAXXZ 0000000180080050 f i MetadataImpl.obj
 0001:0007f094       ?ShareMutex@ThreadSafeImpl@AdobeXMPCore_Int@@$R2NA@EA@PPPPPPPM@DA@EAAXAEBV?$shared_ptr@VISharedMutex@AdobeXMPCore_Int@@@std@@@Z 0000000180080094 f i MetadataImpl.obj
 0001:0007f0b4       ?GetIStructureNode_I@IStructureNode_I@AdobeXMPCore_Int@@$R4II@DA@PPPPPPPM@GI@EAAPEAV12@XZ 00000001800800b4 f i MetadataImpl.obj
 0001:0007f0d0       ?iterator@ICompositeNode_I@AdobeXMPCore_Int@@$R2HA@CM@PPPPPPPM@EI@EAAPEAVINodeIterator_v1@AdobeXMPCore@@AEAPEBVIError_v1@AdobeXMPCommon@@@Z 00000001800800d0 f i MetadataImpl.obj
 0001:0007f0ec       ?insertQualifier@INode_I@AdobeXMPCore_Int@@$R2FI@CI@PPPPPPPM@DI@EAAXPEAVINode_v1@AdobeXMPCore@@AEAPEBVIError_v1@AdobeXMPCommon@@@Z 00000001800800ec f i MetadataImpl.obj
 0001:0007f108       ?GetInterfacePointer@IMetadata_I@AdobeXMPCore_Int@@$R4DI@DE@PPPPPPPM@CA@EAAPEAX_KK@Z 0000000180080108 f i MetadataImpl.obj
 0001:0007f124       ?resetChangesForChildren@StructureNodeImpl@AdobeXMPCore_Int@@$2PPPPPPPM@A@EBAXXZ 0000000180080124 f i MetadataImpl.obj
 0001:0007f130       ?RemoveQualifier@NodeImpl@AdobeXMPCore_Int@@$R4MI@DM@PPPPPPPM@PA@EAA?AV?$shared_ptr@VINode_v1@AdobeXMPCore@@@std@@AEBV?$shared_ptr@$$CBVIUTF8String_v1@AdobeXMPCommon@@@4@0@Z 0000000180080130 f i MetadataImpl.obj
 0001:0007f14c       ?GetNodeTypeAtPath@CompositeNodeImpl@AdobeXMPCore_Int@@$R4GI@EA@PPPPPPPM@GA@EBA?AW4eNodeType@INode_v1@AdobeXMPCore@@AEBV?$shared_ptr@$$CBVIPath_v1@AdobeXMPCore@@@std@@@Z 000000018008014c f i MetadataImpl.obj
 0001:0007f168       ?GetINode_I@INode_I@AdobeXMPCore_Int@@$R4FA@CE@PPPPPPPM@DI@EAAPEAV12@XZ 0000000180080168 f i MetadataImpl.obj
 0001:0007f184       ?GetQualifierNodeType@NodeImpl@AdobeXMPCore_Int@@$R4FA@DM@PPPPPPPM@KI@EBA?AW4eNodeType@INode_v1@AdobeXMPCore@@PEBD_K01@Z 0000000180080184 f i MetadataImpl.obj
 0001:0007f1a0       ??_EStructureNodeImpl@AdobeXMPCore_Int@@$2PPPPPPPM@BA@EAAPEAXI@Z 00000001800801a0 f i MetadataImpl.obj
 0001:0007f1b0       ?getNameSpace@INode_I@AdobeXMPCore_Int@@$R2DI@CI@PPPPPPPM@DI@EBAPEBVIUTF8String_v1@AdobeXMPCommon@@AEAPEBVIError_v1@4@@Z 00000001800801b0 f i MetadataImpl.obj
 0001:0007f1c8       ??_EIStructureNode_I@AdobeXMPCore_Int@@$2PPPPPPPM@BA@EAAPEAXI@Z 00000001800801c8 f i MetadataImpl.obj
 0001:0007f1d8       ?RemoveNode@MetadataImpl@AdobeXMPCore_Int@@$2PPPPPPPM@A@EAA?AV?$shared_ptr@VINode_v1@AdobeXMPCore@@@std@@AEBV?$shared_ptr@$$CBVIUTF8String_v1@AdobeXMPCommon@@@4@0@Z 00000001800801d8 f i MetadataImpl.obj
 0001:0007f1e4       ?ChangeParent@NodeImpl@AdobeXMPCore_Int@@$R4OI@EE@PPPPPPPM@PA@EAAXPEAVINode_v1@AdobeXMPCore@@@Z 00000001800801e4 f i MetadataImpl.obj
 0001:0007f200       ?EnableFeature@MetadataImpl@AdobeXMPCore_Int@@$2PPPPPPPM@A@EBAXPEBD_K@Z 0000000180080200 f i MetadataImpl.obj
 0001:0007f20c       ?ReplaceNode@MetadataImpl@AdobeXMPCore_Int@@$2PPPPPPPM@A@EAA?AV?$shared_ptr@VINode_v1@AdobeXMPCore@@@std@@AEBV34@@Z 000000018008020c f i MetadataImpl.obj
 0001:0007f218       ?getNameSpace@INode_I@AdobeXMPCore_Int@@$R2FI@CI@PPPPPPPM@DI@EBAPEBVIUTF8String_v1@AdobeXMPCommon@@AEAPEBVIError_v1@4@@Z 0000000180080218 f i MetadataImpl.obj
 0001:0007f234       ?Acquire@IErrorProxy@AdobeXMPCommon@@$4PPPPPPPM@A@EBAXXZ 0000000180080234 f i IError.obj
 0001:0007f234       ?Acquire@IUTF8StringProxy@AdobeXMPCommon@@$4PPPPPPPM@A@EBAXXZ 0000000180080234 f i IUTF8String.obj
 0001:0007f234       ?Release@IErrorProxy@AdobeXMPCommon@@$4PPPPPPPM@A@EBAXXZ 0000000180080234 f i IError.obj
 0001:0007f234       ?Release@IUTF8StringProxy@AdobeXMPCommon@@$4PPPPPPPM@A@EBAXXZ 0000000180080234 f i IUTF8String.obj
 0001:0007f234       ?SetName@MetadataImpl@AdobeXMPCore_Int@@$2PPPPPPPM@A@EAAXPEBD_K@Z 0000000180080234 f i MetadataImpl.obj
 0001:0007f234       ?SetNameSpace@MetadataImpl@AdobeXMPCore_Int@@$2PPPPPPPM@A@EAAXPEBD_K@Z 0000000180080234 f i MetadataImpl.obj
 0001:0007f234       ?resetChangesForChildren@SimpleNodeImpl@AdobeXMPCore_Int@@$2PPPPPPPM@A@EBAXXZ 0000000180080234 f i SimpleNodeImpl.obj
 0001:0007f240       ??_EMetadataImpl@AdobeXMPCore_Int@@$2PPPPPPPM@BA@EAAPEAXI@Z 0000000180080240 f i MetadataImpl.obj
 0001:0007f250       ?SetIsQualifierNode@NodeImpl@AdobeXMPCore_Int@@$R4MI@DM@PPPPPPPM@PA@EAAX_N@Z 0000000180080250 f i MetadataImpl.obj
 0001:0007f26c       ?replaceNode@IStructureNode_I@AdobeXMPCore_Int@@$R2IA@CM@PPPPPPPM@GI@EAAPEAVINode_v1@AdobeXMPCore@@PEAV34@AEAPEBVIError_v1@AdobeXMPCommon@@@Z 000000018008026c f i MetadataImpl.obj
 0001:0007f288       ?getNode@IStructureNode_I@AdobeXMPCore_Int@@$R2IA@CM@PPPPPPPM@GI@EAAPEAVINode_v1@AdobeXMPCore@@PEBD_K01AEAPEBVIError_v1@AdobeXMPCommon@@@Z 0000000180080288 f i MetadataImpl.obj
 0001:0007f2a4       ?IsArrayItem@NodeImpl@AdobeXMPCore_Int@@$R4FA@DM@PPPPPPPM@KI@EBA_NXZ 00000001800802a4 f i MetadataImpl.obj
 0001:0007f2c0       ?clone@INode_I@AdobeXMPCore_Int@@$R2DI@CI@PPPPPPPM@DI@EBAPEAVINode_v1@AdobeXMPCore@@KKAEAPEBVIError_v1@AdobeXMPCommon@@@Z 00000001800802c0 f i MetadataImpl.obj
 0001:0007f2d8       ?GetActualICompositeNode@ICompositeNode_I@AdobeXMPCore_Int@@$R4EI@CI@PPPPPPPM@EI@EAAPEAVICompositeNode_v1@AdobeXMPCore@@XZ 00000001800802d8 f i MetadataImpl.obj
 0001:0007f2f0       ?isEmpty@INode_I@AdobeXMPCore_Int@@$R2DA@CE@PPPPPPPM@DI@EBAKAEAPEBVIError_v1@AdobeXMPCommon@@@Z 00000001800802f0 f i MetadataImpl.obj
 0001:0007f30c       ?getParent@INode_I@AdobeXMPCore_Int@@$R2DA@CE@PPPPPPPM@DI@EAAPEAVINode_v1@AdobeXMPCore@@AEAPEBVIError_v1@AdobeXMPCommon@@@Z 000000018008030c f i MetadataImpl.obj
 0001:0007f328       ?GetQualifier@NodeImpl@AdobeXMPCore_Int@@$R4OI@EE@PPPPPPPM@PA@EAA?AV?$shared_ptr@VINode_v1@AdobeXMPCore@@@std@@AEBV?$shared_ptr@$$CBVIUTF8String_v1@AdobeXMPCommon@@@4@0@Z 0000000180080328 f i MetadataImpl.obj
 0001:0007f344       ?clone@INode_I@AdobeXMPCore_Int@@$R2FI@CI@PPPPPPPM@DI@EBAPEAVINode_v1@AdobeXMPCore@@KKAEAPEBVIError_v1@AdobeXMPCommon@@@Z 0000000180080344 f i MetadataImpl.obj
 0001:0007f360       ?Acquire@NodeImpl@AdobeXMPCore_Int@@$R4CI@EE@PPPPPPPM@HI@EBAXXZ 0000000180080360 f i MetadataImpl.obj
 0001:0007f37c       ?GetActualICompositeNode@ICompositeNode_I@AdobeXMPCore_Int@@$R4GI@CI@PPPPPPPM@EI@EAAPEAVICompositeNode_v1@AdobeXMPCore@@XZ 000000018008037c f i MetadataImpl.obj
 0001:0007f398       ?Iterator@StructureNodeImpl@AdobeXMPCore_Int@@$4PPPPPPPM@A@EAA?AV?$shared_ptr@VINodeIterator_v1@AdobeXMPCore@@@std@@XZ 0000000180080398 f i MetadataImpl.obj
 0001:0007f3a4       ?isEmpty@INode_I@AdobeXMPCore_Int@@$R2FA@CE@PPPPPPPM@DI@EBAKAEAPEBVIError_v1@AdobeXMPCommon@@@Z 00000001800803a4 f i MetadataImpl.obj
 0001:0007f3c0       ?getParent@INode_I@AdobeXMPCore_Int@@$R2FA@CE@PPPPPPPM@DI@EAAPEAVINode_v1@AdobeXMPCore@@AEAPEBVIError_v1@AdobeXMPCommon@@@Z 00000001800803c0 f i MetadataImpl.obj
 0001:0007f3dc       ?convertToMetadata@INode_I@AdobeXMPCore_Int@@$R2DI@CI@PPPPPPPM@DI@EAAPEAVIMetadata_v1@AdobeXMPCore@@AEAPEBVIError_v1@AdobeXMPCommon@@@Z 00000001800803dc f i MetadataImpl.obj
 0001:0007f3f4       ?replaceNode@IStructureNode_I@AdobeXMPCore_Int@@$2PPPPPPPM@A@EAAPEAVINode_v1@AdobeXMPCore@@PEAV34@AEAPEBVIError_v1@AdobeXMPCommon@@@Z 00000001800803f4 f i MetadataImpl.obj
 0001:0007f400       ?getNode@IStructureNode_I@AdobeXMPCore_Int@@$2PPPPPPPM@A@EAAPEAVINode_v1@AdobeXMPCore@@PEBD_K01AEAPEBVIError_v1@AdobeXMPCommon@@@Z 0000000180080400 f i MetadataImpl.obj
 0001:0007f40c       ?removeNodeAtPath@ICompositeNode_I@AdobeXMPCore_Int@@$R2EI@CI@PPPPPPPM@EI@EAAPEAVINode_v1@AdobeXMPCore@@PEBVIPath_v1@4@AEAPEBVIError_v1@AdobeXMPCommon@@@Z 000000018008040c f i MetadataImpl.obj
 0001:0007f424       ?setName@INode_I@AdobeXMPCore_Int@@$R2DA@CE@PPPPPPPM@DI@EAAXPEBD_KAEAPEBVIError_v1@AdobeXMPCommon@@@Z 0000000180080424 f i MetadataImpl.obj
 0001:0007f440       ?SetQualifiers@NodeImpl@AdobeXMPCore_Int@@$R4OI@EE@PPPPPPPM@PA@EAAXAEBV?$shared_ptr@VIStructureNode_v1@AdobeXMPCore@@@std@@@Z 0000000180080440 f i MetadataImpl.obj
 0001:0007f45c       ?convertToMetadata@INode_I@AdobeXMPCore_Int@@$R2FI@CI@PPPPPPPM@DI@EAAPEAVIMetadata_v1@AdobeXMPCore@@AEAPEBVIError_v1@AdobeXMPCommon@@@Z 000000018008045c f i MetadataImpl.obj
 0001:0007f478       ?GetQualifier@NodeImpl@AdobeXMPCore_Int@@$R4FI@EE@PPPPPPPM@KI@EAA?AV?$shared_ptr@VINode_v1@AdobeXMPCore@@@std@@PEBD_K01@Z 0000000180080478 f i MetadataImpl.obj
 0001:0007f494       ?GetNodeType@StructureNodeImpl@AdobeXMPCore_Int@@$R4FI@EM@PPPPPPPM@FA@EBA?AW4eNodeType@INode_v1@AdobeXMPCore@@XZ 0000000180080494 f i MetadataImpl.obj
 0001:0007f4b0       ?removeNodeAtPath@ICompositeNode_I@AdobeXMPCore_Int@@$R2GI@CI@PPPPPPPM@EI@EAAPEAVINode_v1@AdobeXMPCore@@PEBVIPath_v1@4@AEAPEBVIError_v1@AdobeXMPCommon@@@Z 00000001800804b0 f i MetadataImpl.obj
 0001:0007f4cc       ?setName@INode_I@AdobeXMPCore_Int@@$R2FA@CE@PPPPPPPM@DI@EAAXPEBD_KAEAPEBVIError_v1@AdobeXMPCommon@@@Z 00000001800804cc f i MetadataImpl.obj
 0001:0007f4e8       ?DisableThreadSafety@ThreadSafeImpl@AdobeXMPCore_Int@@$R2EA@DI@PPPPPPPM@CA@EBAXXZ 00000001800804e8 f i MetadataImpl.obj
 0001:0007f504       ?insertNode@IStructureNode_I@AdobeXMPCore_Int@@$R2GI@DA@PPPPPPPM@GI@EAAXPEAVINode_v1@AdobeXMPCore@@AEAPEBVIError_v1@AdobeXMPCommon@@@Z 0000000180080504 f i MetadataImpl.obj
 0001:0007f51c       ?convertToSimpleNode@INode_I@AdobeXMPCore_Int@@$R2DI@CI@PPPPPPPM@DI@EAAPEAVISimpleNode_v1@AdobeXMPCore@@AEAPEBVIError_v1@AdobeXMPCommon@@@Z 000000018008051c f i MetadataImpl.obj
 0001:0007f534       ?isThreadSafe@IThreadSafe_I@AdobeXMPCommon_Int@@WPPPPPPHI@EBAKXZ 0000000180080534 f i MetadataImpl.obj
 0001:0007f540       ?hasContent@INode_I@AdobeXMPCore_Int@@$R2DA@CE@PPPPPPPM@DI@EBAKAEAPEBVIError_v1@AdobeXMPCommon@@@Z 0000000180080540 f i MetadataImpl.obj
 0001:0007f55c       ?getIndex@INode_I@AdobeXMPCore_Int@@$R2DA@CE@PPPPPPPM@DI@EBA_KAEAPEBVIError_v1@AdobeXMPCommon@@@Z 000000018008055c f i MetadataImpl.obj
 0001:0007f578       ?insertNode@IStructureNode_I@AdobeXMPCore_Int@@$R2II@DA@PPPPPPPM@GI@EAAXPEAVINode_v1@AdobeXMPCore@@AEAPEBVIError_v1@AdobeXMPCommon@@@Z 0000000180080578 f i MetadataImpl.obj
 0001:0007f594       ?convertToSimpleNode@INode_I@AdobeXMPCore_Int@@$R2FI@CI@PPPPPPPM@DI@EAAPEAVISimpleNode_v1@AdobeXMPCore@@AEAPEBVIError_v1@AdobeXMPCommon@@@Z 0000000180080594 f i MetadataImpl.obj
 0001:0007f5b0       ?hasContent@INode_I@AdobeXMPCore_Int@@$R2FA@CE@PPPPPPPM@DI@EBAKAEAPEBVIError_v1@AdobeXMPCommon@@@Z 00000001800805b0 f i MetadataImpl.obj
 0001:0007f5cc       ?getIndex@INode_I@AdobeXMPCore_Int@@$R2FA@CE@PPPPPPPM@DI@EBA_KAEAPEBVIError_v1@AdobeXMPCommon@@@Z 00000001800805cc f i MetadataImpl.obj
 0001:0007f5e8       ?isThreadSafe@IThreadSafe_I@AdobeXMPCommon_Int@@$R4EA@CA@PPPPPPPM@BA@EBAKXZ 00000001800805e8 f i MetadataImpl.obj
 0001:0007f604       ?GetICompositeNode_I@ICompositeNode_I@AdobeXMPCore_Int@@$R4FA@CM@PPPPPPPM@EI@EAAPEAV12@XZ 0000000180080604 f i MetadataImpl.obj
 0001:0007f620       ?GetICompositeNode_I@ICompositeNode_I@AdobeXMPCore_Int@@$R4HA@CM@PPPPPPPM@EI@EAAPEAV12@XZ 0000000180080620 f i MetadataImpl.obj
 0001:0007f63c       ?ChildCount@StructureNodeImpl@AdobeXMPCore_Int@@$R4HA@EM@PPPPPPPM@GI@EBA_KXZ 000000018008063c f i MetadataImpl.obj
 0001:0007f658       ?HasChanged@NodeImpl@AdobeXMPCore_Int@@$R4FI@EE@PPPPPPPM@KI@EBA_NXZ 0000000180080658 f i MetadataImpl.obj
 0001:0007f674       ?QualifiersIterator@NodeImpl@AdobeXMPCore_Int@@$R4FI@EE@PPPPPPPM@KI@EAA?AV?$shared_ptr@VINodeIterator_v1@AdobeXMPCore@@@std@@XZ 0000000180080674 f i MetadataImpl.obj
 0001:0007f690       ?GetIThreadSafe_I@IThreadSafe_I@AdobeXMPCommon_Int@@$R4EI@CE@PPPPPPPM@BA@EAAPEAV12@XZ 0000000180080690 f i MetadataImpl.obj
 0001:0007f6ac       ?GetNodeAtPath@CompositeNodeImpl@AdobeXMPCore_Int@@$R4GI@EA@PPPPPPPM@GA@EAA?AV?$shared_ptr@VINode_v1@AdobeXMPCore@@@std@@AEBV?$shared_ptr@$$CBVIPath_v1@AdobeXMPCore@@@4@@Z 00000001800806ac f i MetadataImpl.obj
 0001:0007f6c8       ?ConvertToArrayNode@NodeImpl@AdobeXMPCore_Int@@$R4FA@DM@PPPPPPPM@KI@EAA?AV?$shared_ptr@VIArrayNode_v1@AdobeXMPCore@@@std@@XZ 00000001800806c8 f i MetadataImpl.obj
 0001:0007f6c8       ?ConvertToMetadata@NodeImpl@AdobeXMPCore_Int@@$R4FA@DM@PPPPPPPM@KI@EAA?AV?$shared_ptr@VIMetadata_v1@AdobeXMPCore@@@std@@XZ 00000001800806c8 f i MetadataImpl.obj
 0001:0007f6c8       ?ConvertToSimpleNode@NodeImpl@AdobeXMPCore_Int@@$R4FA@DM@PPPPPPPM@KI@EAA?AV?$shared_ptr@VISimpleNode_v1@AdobeXMPCore@@@std@@XZ 00000001800806c8 f i MetadataImpl.obj
 0001:0007f6e4       ?GetNodeType@StructureNodeImpl@AdobeXMPCore_Int@@$4PPPPPPPM@A@EBA?AW4eNodeType@INode_v1@AdobeXMPCore@@XZ 00000001800806e4 f i MetadataImpl.obj
 0001:0007f6f0       ?getChildNodeType@IStructureNode_I@AdobeXMPCore_Int@@$R2GI@DA@PPPPPPPM@GI@EBAKPEBD_K01AEAPEBVIError_v1@AdobeXMPCommon@@@Z 00000001800806f0 f i MetadataImpl.obj
 0001:0007f708       ?convertToArrayNode@INode_I@AdobeXMPCore_Int@@$R2DI@CI@PPPPPPPM@DI@EAAPEAVIArrayNode_v1@AdobeXMPCore@@AEAPEBVIError_v1@AdobeXMPCommon@@@Z 0000000180080708 f i MetadataImpl.obj
 0001:0007f720       ?removeQualifier@INode_I@AdobeXMPCore_Int@@$R2DI@CI@PPPPPPPM@DI@EAAPEAVINode_v1@AdobeXMPCore@@PEBD_K01AEAPEBVIError_v1@AdobeXMPCommon@@@Z 0000000180080720 f i MetadataImpl.obj
 0001:0007f738       ??_EIMetadata_I@AdobeXMPCore_Int@@OBI@EAAPEAXI@Z 0000000180080738 f i MetadataImpl.obj
 0001:0007f744       ?clear@INode_I@AdobeXMPCore_Int@@$R2DA@CE@PPPPPPPM@DI@EAAXKKAEAPEBVIError_v1@AdobeXMPCommon@@@Z 0000000180080744 f i MetadataImpl.obj
 0001:0007f760       ?getInterfacePointer@IStructureNode_I@AdobeXMPCore_Int@@$2PPPPPPPM@A@EAAPEAX_KKAEAPEBVIError_v1@AdobeXMPCommon@@@Z 0000000180080760 f i MetadataImpl.obj
 0001:0007f76c       ?getChildNodeType@IStructureNode_I@AdobeXMPCore_Int@@$R2II@DA@PPPPPPPM@GI@EBAKPEBD_K01AEAPEBVIError_v1@AdobeXMPCommon@@@Z 000000018008076c f i MetadataImpl.obj
 0001:0007f788       ?AppendNode@StructureNodeImpl@AdobeXMPCore_Int@@$R4HA@EM@PPPPPPPM@GI@EAAXAEBV?$shared_ptr@VINode_v1@AdobeXMPCore@@@std@@@Z 0000000180080788 f i MetadataImpl.obj
 0001:0007f7a4       ?convertToArrayNode@INode_I@AdobeXMPCore_Int@@$R2FI@CI@PPPPPPPM@DI@EAAPEAVIArrayNode_v1@AdobeXMPCore@@AEAPEBVIError_v1@AdobeXMPCommon@@@Z 00000001800807a4 f i MetadataImpl.obj
 0001:0007f7c0       ?removeQualifier@INode_I@AdobeXMPCore_Int@@$R2FI@CI@PPPPPPPM@DI@EAAPEAVINode_v1@AdobeXMPCore@@PEBD_K01AEAPEBVIError_v1@AdobeXMPCommon@@@Z 00000001800807c0 f i MetadataImpl.obj
 0001:0007f7dc       ?GetNode@StructureNodeImpl@AdobeXMPCore_Int@@$4PPPPPPPM@A@EAA?AV?$shared_ptr@VINode_v1@AdobeXMPCore@@@std@@AEBV?$shared_ptr@$$CBVIUTF8String_v1@AdobeXMPCommon@@@4@0@Z 00000001800807dc f i MetadataImpl.obj
 0001:0007f7e8       ?GetNode@StructureNodeImpl@AdobeXMPCore_Int@@$4PPPPPPPM@A@EAA?AV?$shared_ptr@VINode_v1@AdobeXMPCore@@@std@@PEBD_K01@Z 00000001800807e8 f i MetadataImpl.obj
 0001:0007f7f4       ?clear@INode_I@AdobeXMPCore_Int@@$R2FA@CE@PPPPPPPM@DI@EAAXKKAEAPEBVIError_v1@AdobeXMPCommon@@@Z 00000001800807f4 f i MetadataImpl.obj
 0001:0007f810       ?InsertQualifier@NodeImpl@AdobeXMPCore_Int@@$R4FA@DM@PPPPPPPM@KI@EAAXAEBV?$shared_ptr@VINode_v1@AdobeXMPCore@@@std@@@Z 0000000180080810 f i MetadataImpl.obj
 0001:0007f82c       ?getQualifier@INode_I@AdobeXMPCore_Int@@$R2DI@CI@PPPPPPPM@DI@EAAPEAVINode_v1@AdobeXMPCore@@PEBD_K01AEAPEBVIError_v1@AdobeXMPCommon@@@Z 000000018008082c f i MetadataImpl.obj
 0001:0007f844       ?getName@INode_I@AdobeXMPCore_Int@@$R2DI@CI@PPPPPPPM@DI@EBAPEBVIUTF8String_v1@AdobeXMPCommon@@AEAPEBVIError_v1@4@@Z 0000000180080844 f i MetadataImpl.obj
 0001:0007f85c       ?UnRegisterChange@NodeImpl@AdobeXMPCore_Int@@$R4OI@EE@PPPPPPPM@PA@EAAXXZ 000000018008085c f i MetadataImpl.obj
 0001:0007f878       ?UnShareMutex@ThreadSafeImpl@AdobeXMPCore_Int@@$R2NA@EA@PPPPPPPM@DA@EAAXXZ 0000000180080878 f i MetadataImpl.obj
 0001:0007f898       ?GetNode@StructureNodeImpl@AdobeXMPCore_Int@@$R4II@EM@PPPPPPPM@IA@EAA?AV?$shared_ptr@VINode_v1@AdobeXMPCore@@@std@@PEBD_K01@Z 0000000180080898 f i MetadataImpl.obj
 0001:0007f8b4       ?getQualifier@INode_I@AdobeXMPCore_Int@@$R2FI@CI@PPPPPPPM@DI@EAAPEAVINode_v1@AdobeXMPCore@@PEBD_K01AEAPEBVIError_v1@AdobeXMPCommon@@@Z 00000001800808b4 f i MetadataImpl.obj
 0001:0007f8d0       ?getName@INode_I@AdobeXMPCore_Int@@$R2FI@CI@PPPPPPPM@DI@EBAPEBVIUTF8String_v1@AdobeXMPCommon@@AEAPEBVIError_v1@4@@Z 00000001800808d0 f i MetadataImpl.obj
 0001:0007f8ec       ?ConvertToStructureNode@StructureNodeImpl@AdobeXMPCore_Int@@$R4FI@EM@PPPPPPPM@FA@EAA?AV?$shared_ptr@VIStructureNode_v1@AdobeXMPCore@@@std@@XZ 00000001800808ec f i MetadataImpl.obj
 0001:0007f908       ?AcquireInternal@NodeImpl@AdobeXMPCore_Int@@$R4JI@DM@PPPPPPPM@MA@EBAXXZ 0000000180080908 f i MetadataImpl.obj
 0001:0007f924       ?RemoveNodeAtPath@CompositeNodeImpl@AdobeXMPCore_Int@@$R4GI@EA@PPPPPPPM@GA@EAA?AV?$shared_ptr@VINode_v1@AdobeXMPCore@@@std@@AEBV?$shared_ptr@$$CBVIPath_v1@AdobeXMPCore@@@4@@Z 0000000180080924 f i MetadataImpl.obj
 0001:0007f940       ?getInterfacePointer@IStructureNode_I@AdobeXMPCore_Int@@$R2DA@CM@PPPPPPPM@CA@EAAPEAX_KKAEAPEBVIError_v1@AdobeXMPCommon@@@Z 0000000180080940 f i MetadataImpl.obj
 0001:0007f95c       ?isArrayItem@INode_I@AdobeXMPCore_Int@@$R2DI@CI@PPPPPPPM@DI@EBAKAEAPEBVIError_v1@AdobeXMPCommon@@@Z 000000018008095c f i MetadataImpl.obj
 0001:0007f974       ?RegisterChange@NodeImpl@AdobeXMPCore_Int@@$R4OI@EE@PPPPPPPM@PA@EAAXXZ 0000000180080974 f i MetadataImpl.obj
 0001:0007f990       ?SetIndex@NodeImpl@AdobeXMPCore_Int@@$R4OI@EE@PPPPPPPM@PA@EAAX_K@Z 0000000180080990 f i MetadataImpl.obj
 0001:0007f9ac       ?SetAboutURI@MetadataImpl@AdobeXMPCore_Int@@$2PPPPPPPM@A@EAAXPEBD_K@Z 00000001800809ac f i MetadataImpl.obj
 0001:0007f9b8       ?GetAboutURI@MetadataImpl@AdobeXMPCore_Int@@$2PPPPPPPM@A@EBA?AV?$shared_ptr@$$CBVIUTF8String_v1@AdobeXMPCommon@@@std@@XZ 00000001800809b8 f i MetadataImpl.obj
 0001:0007f9c4       ?isArrayItem@INode_I@AdobeXMPCore_Int@@$R2FI@CI@PPPPPPPM@DI@EBAKAEAPEBVIError_v1@AdobeXMPCommon@@@Z 00000001800809c4 f i MetadataImpl.obj
 0001:0007f9e0       ?ReplaceQualifier@NodeImpl@AdobeXMPCore_Int@@$R4FI@EE@PPPPPPPM@KI@EAA?AV?$shared_ptr@VINode_v1@AdobeXMPCore@@@std@@AEBV34@@Z 00000001800809e0 f i MetadataImpl.obj
 0001:0007f9fc       ?GetActualIMetadata@IMetadata_I@AdobeXMPCore_Int@@$4PPPPPPPM@A@EAAPEAVIMetadata_v1@AdobeXMPCore@@XZ 00000001800809fc f i MetadataImpl.obj
 0001:0007fa08       ?getQualifierNodeType@INode_I@AdobeXMPCore_Int@@$R2DA@CE@PPPPPPPM@DI@EBAKPEBD_K01AEAPEBVIError_v1@AdobeXMPCommon@@@Z 0000000180080a08 f i MetadataImpl.obj
 0001:0007fa24       ?qualifiersIterator@INode_I@AdobeXMPCore_Int@@$R2DA@CE@PPPPPPPM@DI@EAAPEAVINodeIterator_v1@AdobeXMPCore@@AEAPEBVIError_v1@AdobeXMPCommon@@@Z 0000000180080a24 f i MetadataImpl.obj
 0001:0007fa40       ?GetInterfacePointer@IStructureNode_I@AdobeXMPCore_Int@@$4PPPPPPPM@A@EAAPEAX_KK@Z 0000000180080a40 f i MetadataImpl.obj
 0001:0007fa4c       ?RemoveQualifier@NodeImpl@AdobeXMPCore_Int@@$R4OI@EE@PPPPPPPM@PA@EAA?AV?$shared_ptr@VINode_v1@AdobeXMPCore@@@std@@AEBV?$shared_ptr@$$CBVIUTF8String_v1@AdobeXMPCommon@@@4@0@Z 0000000180080a4c f i MetadataImpl.obj
 0001:0007fa68       ?GetActualIMetadata@IMetadata_I@AdobeXMPCore_Int@@$R4KA@DE@PPPPPPPM@IA@EAAPEAVIMetadata_v1@AdobeXMPCore@@XZ 0000000180080a68 f i MetadataImpl.obj
 0001:0007fa84       ?DisableFeature@MetadataImpl@AdobeXMPCore_Int@@$2PPPPPPPM@A@EBAXPEBD_K@Z 0000000180080a84 f i MetadataImpl.obj
 0001:0007fa90       ?Clear@NodeImpl@AdobeXMPCore_Int@@$R4FI@EE@PPPPPPPM@KI@EAAX_N0@Z 0000000180080a90 f i MetadataImpl.obj
 0001:0007faac       ?IsQualifierNode@NodeImpl@AdobeXMPCore_Int@@$R4FI@EE@PPPPPPPM@KI@EBA_NXZ 0000000180080aac f i MetadataImpl.obj
 0001:0007fac8       ?getInterfacePointer@IMetadata_I@AdobeXMPCore_Int@@$R2DI@DE@PPPPPPPM@CA@EAAPEAX_KKAEAPEBVIError_v1@AdobeXMPCommon@@@Z 0000000180080ac8 f i MetadataImpl.obj
 0001:0007fae4       ?getQualifierNodeType@INode_I@AdobeXMPCore_Int@@$R2FA@CE@PPPPPPPM@DI@EBAKPEBD_K01AEAPEBVIError_v1@AdobeXMPCommon@@@Z 0000000180080ae4 f i MetadataImpl.obj
 0001:0007fb00       ?qualifiersIterator@INode_I@AdobeXMPCore_Int@@$R2FA@CE@PPPPPPPM@DI@EAAPEAVINodeIterator_v1@AdobeXMPCore@@AEAPEBVIError_v1@AdobeXMPCommon@@@Z 0000000180080b00 f i MetadataImpl.obj
 0001:0007fb1c       ?ConvertToStructureNode@StructureNodeImpl@AdobeXMPCore_Int@@$4PPPPPPPM@A@EAA?AV?$shared_ptr@VIStructureNode_v1@AdobeXMPCore@@@std@@XZ 0000000180080b1c f i MetadataImpl.obj
 0001:0007fb28       ?GetISharedObject_I@ISharedObject_I@AdobeXMPCommon_Int@@$R4CA@BM@PPPPPPPM@BA@EAAPEAV12@XZ 0000000180080b28 f i MetadataImpl.obj
 0001:0007fb44       ?appendNode@ICompositeNode_I@AdobeXMPCore_Int@@$R2FA@CM@PPPPPPPM@EI@EAAXPEAVINode_v1@AdobeXMPCore@@AEAPEBVIError_v1@AdobeXMPCommon@@@Z 0000000180080b44 f i MetadataImpl.obj
 0001:0007fb60       ?GetActualINode@INode_I@AdobeXMPCore_Int@@$R4DA@CE@PPPPPPPM@DI@EAAPEAVINode_v1@AdobeXMPCore@@XZ 0000000180080b60 f i MetadataImpl.obj
 0001:0007fb7c       ??_EIStructureNode_I@AdobeXMPCore_Int@@OBI@EAAPEAXI@Z 0000000180080b7c f i MetadataImpl.obj
 0001:0007fb88       ??_EIStructureNode_v1@AdobeXMPCore@@O7EAAPEAXI@Z 0000000180080b88 f i MetadataImpl.obj
 0001:0007fb94       ?SetIsQualifierNode@NodeImpl@AdobeXMPCore_Int@@$R4OI@EE@PPPPPPPM@PA@EAAX_N@Z 0000000180080b94 f i MetadataImpl.obj
 0001:0007fbb0       ?appendNode@ICompositeNode_I@AdobeXMPCore_Int@@$R2HA@CM@PPPPPPPM@EI@EAAXPEAVINode_v1@AdobeXMPCore@@AEAPEBVIError_v1@AdobeXMPCommon@@@Z 0000000180080bb0 f i MetadataImpl.obj
 0001:0007fbcc       ?Clone@NodeImpl@AdobeXMPCore_Int@@$R4FI@EE@PPPPPPPM@KI@EBA?AV?$shared_ptr@VINode_v1@AdobeXMPCore@@@std@@_N0@Z 0000000180080bcc f i MetadataImpl.obj
 0001:0007fbe8       ?IsEmpty@NodeImpl@AdobeXMPCore_Int@@$R4FI@EE@PPPPPPPM@KI@EBA_NXZ 0000000180080be8 f i MetadataImpl.obj
 0001:0007fc04       ?RemoveQualifier@NodeImpl@AdobeXMPCore_Int@@$R4FI@EE@PPPPPPPM@KI@EAA?AV?$shared_ptr@VINode_v1@AdobeXMPCore@@@std@@PEBD_K01@Z 0000000180080c04 f i MetadataImpl.obj
 0001:0007fc20       ?GetPath@NodeImpl@AdobeXMPCore_Int@@$R4FI@EE@PPPPPPPM@KI@EBA?AV?$shared_ptr@VIPath_v1@AdobeXMPCore@@@std@@XZ 0000000180080c20 f i MetadataImpl.obj
 0001:0007fc3c       ?GetActualIStructureNode@IStructureNode_I@AdobeXMPCore_Int@@$R4IA@CM@PPPPPPPM@GI@EAAPEAVIStructureNode_v1@AdobeXMPCore@@XZ 0000000180080c3c f i MetadataImpl.obj
 0001:0007fc58       ?GetActualINode@INode_I@AdobeXMPCore_Int@@$R4FA@CE@PPPPPPPM@DI@EAAPEAVINode_v1@AdobeXMPCore@@XZ 0000000180080c58 f i MetadataImpl.obj
 0001:0007fc74       ?HasQualifiers@NodeImpl@AdobeXMPCore_Int@@$R4FA@DM@PPPPPPPM@KI@EBA_NXZ 0000000180080c74 f i MetadataImpl.obj
 0001:0007fc90       ?EnableThreadSafety@ThreadSafeImpl@AdobeXMPCore_Int@@$R2EA@DI@PPPPPPPM@CA@EBAXXZ 0000000180080c90 f i MetadataImpl.obj
 0001:0007fcac       ?GetInterfacePointer@IStructureNode_I@AdobeXMPCore_Int@@$R4DA@CM@PPPPPPPM@CA@EAAPEAX_KK@Z 0000000180080cac f i MetadataImpl.obj
 0001:0007fcc8       ?setNameSpace@INode_I@AdobeXMPCore_Int@@$R2DI@CI@PPPPPPPM@DI@EAAXPEBD_KAEAPEBVIError_v1@AdobeXMPCommon@@@Z 0000000180080cc8 f i MetadataImpl.obj
 0001:0007fce0       ?replaceNodeAtPath@ICompositeNode_I@AdobeXMPCore_Int@@$R2EI@CI@PPPPPPPM@EI@EAAPEAVINode_v1@AdobeXMPCore@@PEAV34@PEBVIPath_v1@4@AEAPEBVIError_v1@AdobeXMPCommon@@@Z 0000000180080ce0 f i MetadataImpl.obj
 0001:0007fcf8       ?setNameSpace@INode_I@AdobeXMPCore_Int@@$R2FI@CI@PPPPPPPM@DI@EAAXPEBD_KAEAPEBVIError_v1@AdobeXMPCommon@@@Z 0000000180080cf8 f i MetadataImpl.obj
 0001:0007fd14       ?ConvertToArrayNode@NodeImpl@AdobeXMPCore_Int@@$R4FI@EE@PPPPPPPM@KI@EAA?AV?$shared_ptr@VIArrayNode_v1@AdobeXMPCore@@@std@@XZ 0000000180080d14 f i MetadataImpl.obj
 0001:0007fd14       ?ConvertToSimpleNode@NodeImpl@AdobeXMPCore_Int@@$R4FI@EE@PPPPPPPM@KI@EAA?AV?$shared_ptr@VISimpleNode_v1@AdobeXMPCore@@@std@@XZ 0000000180080d14 f i MetadataImpl.obj
 0001:0007fd30       ?replaceNodeAtPath@ICompositeNode_I@AdobeXMPCore_Int@@$R2GI@CI@PPPPPPPM@EI@EAAPEAVINode_v1@AdobeXMPCore@@PEAV34@PEBVIPath_v1@4@AEAPEBVIError_v1@AdobeXMPCommon@@@Z 0000000180080d30 f i MetadataImpl.obj
 0001:0007fd4c       ?GetINode_I@INode_I@AdobeXMPCore_Int@@$R4DI@CI@PPPPPPPM@DI@EAAPEAV12@XZ 0000000180080d4c f i MetadataImpl.obj
 0001:0007fd64       ??_EIMetadata_I@AdobeXMPCore_Int@@$2PPPPPPPM@A@EAAPEAXI@Z 0000000180080d64 f i MetadataImpl.obj
 0001:0007fd70       ?GetActualIStructureNode@IStructureNode_I@AdobeXMPCore_Int@@$4PPPPPPPM@A@EAAPEAVIStructureNode_v1@AdobeXMPCore@@XZ 0000000180080d70 f i MetadataImpl.obj
 0001:0007fd7c       ??_EIMetadata_v1@AdobeXMPCore@@O7EAAPEAXI@Z 0000000180080d7c f i MetadataImpl.obj
 0001:0007fd88       ?ReplaceNodeAtPath@CompositeNodeImpl@AdobeXMPCore_Int@@$R4HA@EI@PPPPPPPM@GA@EAA?AV?$shared_ptr@VINode_v1@AdobeXMPCore@@@std@@AEBV34@AEBV?$shared_ptr@$$CBVIPath_v1@AdobeXMPCore@@@4@@Z 0000000180080d88 f i MetadataImpl.obj
 0001:0007fda4       ?GetINode_I@INode_I@AdobeXMPCore_Int@@$R4FI@CI@PPPPPPPM@DI@EAAPEAV12@XZ 0000000180080da4 f i MetadataImpl.obj
 0001:0007fdc0       ?replaceNode@IStructureNode_I@AdobeXMPCore_Int@@$R2GI@DA@PPPPPPPM@GI@EAAPEAVINode_v1@AdobeXMPCore@@PEAV34@AEAPEBVIError_v1@AdobeXMPCommon@@@Z 0000000180080dc0 f i MetadataImpl.obj
 0001:0007fdd8       ?getNode@IStructureNode_I@AdobeXMPCore_Int@@$R2GI@DA@PPPPPPPM@GI@EAAPEAVINode_v1@AdobeXMPCore@@PEBD_K01AEAPEBVIError_v1@AdobeXMPCommon@@@Z 0000000180080dd8 f i MetadataImpl.obj
 0001:0007fdf0       ?convertToStructureNode@INode_I@AdobeXMPCore_Int@@$R2DA@CE@PPPPPPPM@DI@EAAPEAVIStructureNode_v1@AdobeXMPCore@@AEAPEBVIError_v1@AdobeXMPCommon@@@Z 0000000180080df0 f i MetadataImpl.obj
 0001:0007fe0c       ?hasChanged@INode_I@AdobeXMPCore_Int@@$R2DA@CE@PPPPPPPM@DI@EBAKAEAPEBVIError_v1@AdobeXMPCommon@@@Z 0000000180080e0c f i MetadataImpl.obj
 0001:0007fe28       ?resetChangesForChildren@StructureNodeImpl@AdobeXMPCore_Int@@$R2BFI@EM@PPPPPPPM@BDA@EBAXXZ 0000000180080e28 f i MetadataImpl.obj
 0001:0007fe44       ?replaceNode@IStructureNode_I@AdobeXMPCore_Int@@$R2II@DA@PPPPPPPM@GI@EAAPEAVINode_v1@AdobeXMPCore@@PEAV34@AEAPEBVIError_v1@AdobeXMPCommon@@@Z 0000000180080e44 f i MetadataImpl.obj
 0001:0007fe60       ?getNode@IStructureNode_I@AdobeXMPCore_Int@@$R2II@DA@PPPPPPPM@GI@EAAPEAVINode_v1@AdobeXMPCore@@PEBD_K01AEAPEBVIError_v1@AdobeXMPCommon@@@Z 0000000180080e60 f i MetadataImpl.obj
 0001:0007fe7c       ?GetName@MetadataImpl@AdobeXMPCore_Int@@$2PPPPPPPM@A@EBA?AV?$shared_ptr@$$CBVIUTF8String_v1@AdobeXMPCommon@@@std@@XZ 0000000180080e7c f i MetadataImpl.obj
 0001:0007fe7c       ?GetNameSpace@MetadataImpl@AdobeXMPCore_Int@@$2PPPPPPPM@A@EBA?AV?$shared_ptr@$$CBVIUTF8String_v1@AdobeXMPCommon@@@std@@XZ 0000000180080e7c f i MetadataImpl.obj
 0001:0007fe88       ?InsertNode@StructureNodeImpl@AdobeXMPCore_Int@@$4PPPPPPPM@A@EAAXAEBV?$shared_ptr@VINode_v1@AdobeXMPCore@@@std@@@Z 0000000180080e88 f i MetadataImpl.obj
 0001:0007fe94       ?InsertNodeAtPath@CompositeNodeImpl@AdobeXMPCore_Int@@$R4GI@EA@PPPPPPPM@GA@EAAXAEBV?$shared_ptr@VINode_v1@AdobeXMPCore@@@std@@AEBV?$shared_ptr@$$CBVIPath_v1@AdobeXMPCore@@@4@@Z 0000000180080e94 f i MetadataImpl.obj
 0001:0007feb0       ?convertToStructureNode@INode_I@AdobeXMPCore_Int@@$R2FA@CE@PPPPPPPM@DI@EAAPEAVIStructureNode_v1@AdobeXMPCore@@AEAPEBVIError_v1@AdobeXMPCommon@@@Z 0000000180080eb0 f i MetadataImpl.obj
 0001:0007fecc       ?hasChanged@INode_I@AdobeXMPCore_Int@@$R2FA@CE@PPPPPPPM@DI@EBAKAEAPEBVIError_v1@AdobeXMPCommon@@@Z 0000000180080ecc f i MetadataImpl.obj
 0001:0007fee8       ?GetActualICompositeNode@ICompositeNode_I@AdobeXMPCore_Int@@$R4FA@CM@PPPPPPPM@EI@EAAPEAVICompositeNode_v1@AdobeXMPCore@@XZ 0000000180080ee8 f i MetadataImpl.obj
 0001:0007ff04       ?isEmpty@INode_I@AdobeXMPCore_Int@@$R2DI@CI@PPPPPPPM@DI@EBAKAEAPEBVIError_v1@AdobeXMPCommon@@@Z 0000000180080f04 f i MetadataImpl.obj
 0001:0007ff1c       ?getParent@INode_I@AdobeXMPCore_Int@@$R2DI@CI@PPPPPPPM@DI@EAAPEAVINode_v1@AdobeXMPCore@@AEAPEBVIError_v1@AdobeXMPCommon@@@Z 0000000180080f1c f i MetadataImpl.obj
 0001:0007ff34       ?GetInterfacePointer@IMetadata_I@AdobeXMPCore_Int@@$4PPPPPPPM@A@EAAPEAX_KK@Z 0000000180080f34 f i MetadataImpl.obj
 0001:0007ff40       ?GetISharedObject_I@IMetadata_I@AdobeXMPCore_Int@@$4PPPPPPPM@A@EAAPEAVISharedObject_I@AdobeXMPCommon_Int@@XZ 0000000180080f40 f i MetadataImpl.obj
 0001:0007ff4c       ?getNodeAtPath@ICompositeNode_I@AdobeXMPCore_Int@@$R2EI@CI@PPPPPPPM@EI@EAAPEAVINode_v1@AdobeXMPCore@@PEBVIPath_v1@4@AEAPEBVIError_v1@AdobeXMPCommon@@@Z 0000000180080f4c f i MetadataImpl.obj
 0001:0007ff64       ?GetActualICompositeNode@ICompositeNode_I@AdobeXMPCore_Int@@$R4HA@CM@PPPPPPPM@EI@EAAPEAVICompositeNode_v1@AdobeXMPCore@@XZ 0000000180080f64 f i MetadataImpl.obj
 0001:0007ff80       ?isEmpty@INode_I@AdobeXMPCore_Int@@$R2FI@CI@PPPPPPPM@DI@EBAKAEAPEBVIError_v1@AdobeXMPCommon@@@Z 0000000180080f80 f i MetadataImpl.obj
 0001:0007ff9c       ?getParent@INode_I@AdobeXMPCore_Int@@$R2FI@CI@PPPPPPPM@DI@EAAPEAVINode_v1@AdobeXMPCore@@AEAPEBVIError_v1@AdobeXMPCommon@@@Z 0000000180080f9c f i MetadataImpl.obj
 0001:0007ffb8       ?AcknowledgeChanges@NodeImpl@AdobeXMPCore_Int@@$R4FI@EE@PPPPPPPM@KI@EBAXXZ 0000000180080fb8 f i MetadataImpl.obj
 0001:0007ffd4       ?IsThreadSafe@ThreadSafeImpl@AdobeXMPCore_Int@@$R2EI@EA@PPPPPPPM@CA@EBA_NXZ 0000000180080fd4 f i MetadataImpl.obj
 0001:0007fff0       ?getNodeAtPath@ICompositeNode_I@AdobeXMPCore_Int@@$R2GI@CI@PPPPPPPM@EI@EAAPEAVINode_v1@AdobeXMPCore@@PEBVIPath_v1@4@AEAPEBVIError_v1@AdobeXMPCommon@@@Z 0000000180080ff0 f i MetadataImpl.obj
 0001:0008000c       ?GetIndex@NodeImpl@AdobeXMPCore_Int@@$R4FA@DM@PPPPPPPM@KI@EBA_KXZ 000000018008100c f i MetadataImpl.obj
 0001:00080028       ?Release@NodeImpl@AdobeXMPCore_Int@@$R4CA@DM@PPPPPPPM@HI@EBAXXZ 0000000180081028 f i MetadataImpl.obj
 0001:00080044       ?GetIMetadata_I@IMetadata_I@AdobeXMPCore_Int@@$4PPPPPPPM@A@EAAPEAV12@XZ 0000000180081044 f i MetadataImpl.obj
 0001:00080050       ?removeNodeAtPath@ICompositeNode_I@AdobeXMPCore_Int@@$R2FA@CM@PPPPPPPM@EI@EAAPEAVINode_v1@AdobeXMPCore@@PEBVIPath_v1@4@AEAPEBVIError_v1@AdobeXMPCommon@@@Z 0000000180081050 f i MetadataImpl.obj
 0001:0008006c       ?setName@INode_I@AdobeXMPCore_Int@@$R2DI@CI@PPPPPPPM@DI@EAAXPEBD_KAEAPEBVIError_v1@AdobeXMPCommon@@@Z 000000018008106c f i MetadataImpl.obj
 0001:00080084       ?insertNodeAtPath@ICompositeNode_I@AdobeXMPCore_Int@@$R2EI@CI@PPPPPPPM@EI@EAAXPEAVINode_v1@AdobeXMPCore@@PEBVIPath_v1@4@AEAPEBVIError_v1@AdobeXMPCommon@@@Z 0000000180081084 f i MetadataImpl.obj
 0001:0008009c       ?getNodeTypeAtPath@ICompositeNode_I@AdobeXMPCore_Int@@$R2EI@CI@PPPPPPPM@EI@EBAKPEBVIPath_v1@AdobeXMPCore@@AEAPEBVIError_v1@AdobeXMPCommon@@@Z 000000018008109c f i MetadataImpl.obj
 0001:000800b4       ?getPath@INode_I@AdobeXMPCore_Int@@$R2DA@CE@PPPPPPPM@DI@EBAPEAVIPath_v1@AdobeXMPCore@@AEAPEBVIError_v1@AdobeXMPCommon@@@Z 00000001800810b4 f i MetadataImpl.obj
 0001:000800d0       ?GetIMetadata_I@IMetadata_I@AdobeXMPCore_Int@@$R4KA@DE@PPPPPPPM@IA@EAAPEAV12@XZ 00000001800810d0 f i MetadataImpl.obj
 0001:000800ec       ?removeNodeAtPath@ICompositeNode_I@AdobeXMPCore_Int@@$R2HA@CM@PPPPPPPM@EI@EAAPEAVINode_v1@AdobeXMPCore@@PEBVIPath_v1@4@AEAPEBVIError_v1@AdobeXMPCommon@@@Z 00000001800810ec f i MetadataImpl.obj
 0001:00080108       ?setName@INode_I@AdobeXMPCore_Int@@$R2FI@CI@PPPPPPPM@DI@EAAXPEBD_KAEAPEBVIError_v1@AdobeXMPCommon@@@Z 0000000180081108 f i MetadataImpl.obj
 0001:00080124       ?QualifiersCount@NodeImpl@AdobeXMPCore_Int@@$R4FI@EE@PPPPPPPM@KI@EBA_KXZ 0000000180081124 f i MetadataImpl.obj
 0001:00080140       ?RemoveNode@StructureNodeImpl@AdobeXMPCore_Int@@$4PPPPPPPM@A@EAA?AV?$shared_ptr@VINode_v1@AdobeXMPCore@@@std@@AEBV?$shared_ptr@$$CBVIUTF8String_v1@AdobeXMPCommon@@@4@0@Z 0000000180081140 f i MetadataImpl.obj
 0001:0008014c       ?RemoveNode@StructureNodeImpl@AdobeXMPCore_Int@@$4PPPPPPPM@A@EAA?AV?$shared_ptr@VINode_v1@AdobeXMPCore@@@std@@PEBD_K01@Z 000000018008114c f i MetadataImpl.obj
 0001:00080158       ?insertNodeAtPath@ICompositeNode_I@AdobeXMPCore_Int@@$R2GI@CI@PPPPPPPM@EI@EAAXPEAVINode_v1@AdobeXMPCore@@PEBVIPath_v1@4@AEAPEBVIError_v1@AdobeXMPCommon@@@Z 0000000180081158 f i MetadataImpl.obj
 0001:00080174       ?getNodeTypeAtPath@ICompositeNode_I@AdobeXMPCore_Int@@$R2GI@CI@PPPPPPPM@EI@EBAKPEBVIPath_v1@AdobeXMPCore@@AEAPEBVIError_v1@AdobeXMPCommon@@@Z 0000000180081174 f i MetadataImpl.obj
 0001:00080190       ?getPath@INode_I@AdobeXMPCore_Int@@$R2FA@CE@PPPPPPPM@DI@EBAPEAVIPath_v1@AdobeXMPCore@@AEAPEBVIError_v1@AdobeXMPCommon@@@Z 0000000180081190 f i MetadataImpl.obj
 0001:000801ac       ?GetParentNodeType@NodeImpl@AdobeXMPCore_Int@@$R4FA@DM@PPPPPPPM@KI@EBA?AW4eNodeType@INode_v1@AdobeXMPCore@@XZ 00000001800811ac f i MetadataImpl.obj
 0001:000801c8       ??_EStructureNodeImpl@AdobeXMPCore_Int@@$2PPPPPPPM@A@EAAPEAXI@Z 00000001800811c8 f i MetadataImpl.obj
 0001:000801d4       ?hasContent@INode_I@AdobeXMPCore_Int@@$R2DI@CI@PPPPPPPM@DI@EBAKAEAPEBVIError_v1@AdobeXMPCommon@@@Z 00000001800811d4 f i MetadataImpl.obj
 0001:000801ec       ?getIndex@INode_I@AdobeXMPCore_Int@@$R2DI@CI@PPPPPPPM@DI@EBA_KAEAPEBVIError_v1@AdobeXMPCommon@@@Z 00000001800811ec f i MetadataImpl.obj
 0001:00080204       ?hasQualifiers@INode_I@AdobeXMPCore_Int@@$R2DA@CE@PPPPPPPM@DI@EBAKAEAPEBVIError_v1@AdobeXMPCommon@@@Z 0000000180081204 f i MetadataImpl.obj
 0001:00080220       ?isQualifierNode@INode_I@AdobeXMPCore_Int@@$R2DA@CE@PPPPPPPM@DI@EBAKAEAPEBVIError_v1@AdobeXMPCommon@@@Z 0000000180081220 f i MetadataImpl.obj
 0001:0008023c       ?getParentNodeType@INode_I@AdobeXMPCore_Int@@$R2DA@CE@PPPPPPPM@DI@EBAKAEAPEBVIError_v1@AdobeXMPCommon@@@Z 000000018008123c f i MetadataImpl.obj
 0001:00080258       ?AcquireInternal@NodeImpl@AdobeXMPCore_Int@@$R4LI@EE@PPPPPPPM@MA@EBAXXZ 0000000180081258 f i MetadataImpl.obj
 0001:00080274       ?RemoveNode@StructureNodeImpl@AdobeXMPCore_Int@@$R4II@EM@PPPPPPPM@IA@EAA?AV?$shared_ptr@VINode_v1@AdobeXMPCore@@@std@@PEBD_K01@Z 0000000180081274 f i MetadataImpl.obj
 0001:00080290       ?GetNodeTypeAtPath@CompositeNodeImpl@AdobeXMPCore_Int@@$R4HA@EI@PPPPPPPM@GA@EBA?AW4eNodeType@INode_v1@AdobeXMPCore@@AEBV?$shared_ptr@$$CBVIPath_v1@AdobeXMPCore@@@std@@@Z 0000000180081290 f i MetadataImpl.obj
 0001:000802ac       ?hasContent@INode_I@AdobeXMPCore_Int@@$R2FI@CI@PPPPPPPM@DI@EBAKAEAPEBVIError_v1@AdobeXMPCommon@@@Z 00000001800812ac f i MetadataImpl.obj
 0001:000802c8       ?getIndex@INode_I@AdobeXMPCore_Int@@$R2FI@CI@PPPPPPPM@DI@EBA_KAEAPEBVIError_v1@AdobeXMPCommon@@@Z 00000001800812c8 f i MetadataImpl.obj
 0001:000802e4       ?GetQualifierNodeType@NodeImpl@AdobeXMPCore_Int@@$R4FI@EE@PPPPPPPM@KI@EBA?AW4eNodeType@INode_v1@AdobeXMPCore@@PEBD_K01@Z 00000001800812e4 f i MetadataImpl.obj
 0001:00080300       ?isThreadSafe@IThreadSafe_I@AdobeXMPCommon_Int@@$R4EI@CE@PPPPPPPM@BA@EBAKXZ 0000000180081300 f i MetadataImpl.obj
 0001:0008031c       ??_EMetadataImpl@AdobeXMPCore_Int@@$2PPPPPPPM@A@EAAPEAXI@Z 000000018008131c f i MetadataImpl.obj
 0001:00080328       ?CloneContents@StructureNodeImpl@AdobeXMPCore_Int@@$4PPPPPPPM@A@EBA?AV?$shared_ptr@VINode_v1@AdobeXMPCore@@@std@@_N0_K@Z 0000000180081328 f i MetadataImpl.obj
 0001:00080334       ?ValidateNameOrNameSpaceChangeForAChild@StructureNodeImpl@AdobeXMPCore_Int@@$4PPPPPPPM@A@EAA_NAEBV?$shared_ptr@$$CBVIUTF8String_v1@AdobeXMPCommon@@@std@@000@Z 0000000180081334 f i MetadataImpl.obj
 0001:00080340       ?GetRawParentPointer@NodeImpl@AdobeXMPCore_Int@@$R4MI@DM@PPPPPPPM@PA@EAAPEAVINode_v1@AdobeXMPCore@@XZ 0000000180081340 f i MetadataImpl.obj
 0001:0008035c       ?removeNode@IStructureNode_I@AdobeXMPCore_Int@@$R2IA@CM@PPPPPPPM@GI@EAAPEAVINode_v1@AdobeXMPCore@@PEBD_K01AEAPEBVIError_v1@AdobeXMPCommon@@@Z 000000018008135c f i MetadataImpl.obj
 0001:00080378       ?hasQualifiers@INode_I@AdobeXMPCore_Int@@$R2FA@CE@PPPPPPPM@DI@EBAKAEAPEBVIError_v1@AdobeXMPCommon@@@Z 0000000180081378 f i MetadataImpl.obj
 0001:00080394       ?isQualifierNode@INode_I@AdobeXMPCore_Int@@$R2FA@CE@PPPPPPPM@DI@EBAKAEAPEBVIError_v1@AdobeXMPCommon@@@Z 0000000180081394 f i MetadataImpl.obj
 0001:000803b0       ?getParentNodeType@INode_I@AdobeXMPCore_Int@@$R2FA@CE@PPPPPPPM@DI@EBAKAEAPEBVIError_v1@AdobeXMPCommon@@@Z 00000001800813b0 f i MetadataImpl.obj
 0001:000803cc       ??_EStructureNodeImpl@AdobeXMPCore_Int@@$2PPPPPPPM@CA@EAAPEAXI@Z 00000001800813cc f i MetadataImpl.obj
 0001:000803dc       ?Iterator@StructureNodeImpl@AdobeXMPCore_Int@@$R4HA@EM@PPPPPPPM@GI@EAA?AV?$shared_ptr@VINodeIterator_v1@AdobeXMPCore@@@std@@XZ 00000001800813dc f i MetadataImpl.obj
 0001:000803f8       ?IsArrayItem@NodeImpl@AdobeXMPCore_Int@@$R4FI@EE@PPPPPPPM@KI@EBA_NXZ 00000001800813f8 f i MetadataImpl.obj
 0001:00080414       ??_EMetadataImpl@AdobeXMPCore_Int@@$2PPPPPPPM@CA@EAAPEAXI@Z 0000000180081414 f i MetadataImpl.obj
 0001:00080424       ?Acquire@NodeImpl@AdobeXMPCore_Int@@$R4CA@DM@PPPPPPPM@HI@EBAXXZ 0000000180081424 f i MetadataImpl.obj
 0001:00080440       ?getAboutURI@IMetadata_I@AdobeXMPCore_Int@@$2PPPPPPPM@A@EBAPEBVIUTF8String_v1@AdobeXMPCommon@@AEAPEBVIError_v1@4@@Z 0000000180081440 f i MetadataImpl.obj
 0001:0008044c       ?clear@INode_I@AdobeXMPCore_Int@@$R2DI@CI@PPPPPPPM@DI@EAAXKKAEAPEBVIError_v1@AdobeXMPCommon@@@Z 000000018008144c f i MetadataImpl.obj
 0001:00080464       ?removeNode@IStructureNode_I@AdobeXMPCore_Int@@$2PPPPPPPM@A@EAAPEAVINode_v1@AdobeXMPCore@@PEBD_K01AEAPEBVIError_v1@AdobeXMPCommon@@@Z 0000000180081464 f i MetadataImpl.obj
 0001:00080470       ?getNodeType@INode_I@AdobeXMPCore_Int@@$R2DA@CE@PPPPPPPM@DI@EBAKAEAPEBVIError_v1@AdobeXMPCommon@@@Z 0000000180081470 f i MetadataImpl.obj
 0001:0008048c       ?replaceQualifier@INode_I@AdobeXMPCore_Int@@$R2DA@CE@PPPPPPPM@DI@EAAPEAVINode_v1@AdobeXMPCore@@PEAV34@AEAPEBVIError_v1@AdobeXMPCommon@@@Z 000000018008148c f i MetadataImpl.obj
 0001:000804a8       ??_EIStructureNode_v1@AdobeXMPCore@@OBA@EAAPEAXI@Z 00000001800814a8 f i MetadataImpl.obj
 0001:000804b4       ?getAboutURI@IMetadata_I@AdobeXMPCore_Int@@$R2KA@DE@PPPPPPPM@IA@EBAPEBVIUTF8String_v1@AdobeXMPCommon@@AEAPEBVIError_v1@4@@Z 00000001800814b4 f i MetadataImpl.obj
 0001:000804d0       ?clear@INode_I@AdobeXMPCore_Int@@$R2FI@CI@PPPPPPPM@DI@EAAXKKAEAPEBVIError_v1@AdobeXMPCommon@@@Z 00000001800814d0 f i MetadataImpl.obj
 0001:000804ec       ?getNodeType@INode_I@AdobeXMPCore_Int@@$R2FA@CE@PPPPPPPM@DI@EBAKAEAPEBVIError_v1@AdobeXMPCommon@@@Z 00000001800814ec f i MetadataImpl.obj
 0001:00080508       ?replaceQualifier@INode_I@AdobeXMPCore_Int@@$R2FA@CE@PPPPPPPM@DI@EAAPEAVINode_v1@AdobeXMPCore@@PEAV34@AEAPEBVIError_v1@AdobeXMPCommon@@@Z 0000000180081508 f i MetadataImpl.obj
 0001:00080524       ?GetQualifier@NodeImpl@AdobeXMPCore_Int@@$R4FA@DM@PPPPPPPM@KI@EAA?AV?$shared_ptr@VINode_v1@AdobeXMPCore@@@std@@PEBD_K01@Z 0000000180081524 f i MetadataImpl.obj
 0001:00080540       ?iterator@ICompositeNode_I@AdobeXMPCore_Int@@$R2EI@CI@PPPPPPPM@EI@EAAPEAVINodeIterator_v1@AdobeXMPCore@@AEAPEBVIError_v1@AdobeXMPCommon@@@Z 0000000180081540 f i MetadataImpl.obj
 0001:00080558       ?insertQualifier@INode_I@AdobeXMPCore_Int@@$R2DA@CE@PPPPPPPM@DI@EAAXPEAVINode_v1@AdobeXMPCore@@AEAPEBVIError_v1@AdobeXMPCommon@@@Z 0000000180081558 f i MetadataImpl.obj
 0001:00080574       ?DisableThreadSafety@ThreadSafeImpl@AdobeXMPCore_Int@@$R2EI@EA@PPPPPPPM@CA@EBAXXZ 0000000180081574 f i MetadataImpl.obj
 0001:00080590       ?GetIStructureNode_I@IStructureNode_I@AdobeXMPCore_Int@@$R4IA@CM@PPPPPPPM@GI@EAAPEAV12@XZ 0000000180081590 f i MetadataImpl.obj
 0001:000805ac       ?iterator@ICompositeNode_I@AdobeXMPCore_Int@@$R2GI@CI@PPPPPPPM@EI@EAAPEAVINodeIterator_v1@AdobeXMPCore@@AEAPEBVIError_v1@AdobeXMPCommon@@@Z 00000001800815ac f i MetadataImpl.obj
 0001:000805c8       ?insertQualifier@INode_I@AdobeXMPCore_Int@@$R2FA@CE@PPPPPPPM@DI@EAAXPEAVINode_v1@AdobeXMPCore@@AEAPEBVIError_v1@AdobeXMPCommon@@@Z 00000001800815c8 f i MetadataImpl.obj
 0001:000805e4       ?GetName@NodeImpl@AdobeXMPCore_Int@@$R4FA@DM@PPPPPPPM@KI@EBA?AV?$shared_ptr@$$CBVIUTF8String_v1@AdobeXMPCommon@@@std@@XZ 00000001800815e4 f i MetadataImpl.obj
 0001:00080600       ?GetParent@NodeImpl@AdobeXMPCore_Int@@$R4FA@DM@PPPPPPPM@KI@EAA?AV?$shared_ptr@VINode_v1@AdobeXMPCore@@@std@@XZ 0000000180081600 f i MetadataImpl.obj
 0001:0008061c       ?getNameSpace@INode_I@AdobeXMPCore_Int@@$R2DA@CE@PPPPPPPM@DI@EBAPEBVIUTF8String_v1@AdobeXMPCommon@@AEAPEBVIError_v1@4@@Z 000000018008161c f i MetadataImpl.obj
 0001:00080638       ??_EIMetadata_v1@AdobeXMPCore@@OBA@EAAPEAXI@Z 0000000180081638 f i MetadataImpl.obj
 0001:00080644       ?ClearContents@MetadataImpl@AdobeXMPCore_Int@@$2PPPPPPPM@A@EAAXXZ 0000000180081644 f i MetadataImpl.obj
 0001:00080650       ?GetChildNodeType@StructureNodeImpl@AdobeXMPCore_Int@@$4PPPPPPPM@A@EBA?AW4eNodeType@INode_v1@AdobeXMPCore@@PEBD_K01@Z 0000000180081650 f i MetadataImpl.obj
 0001:0008065c       ?getNameSpace@INode_I@AdobeXMPCore_Int@@$R2FA@CE@PPPPPPPM@DI@EBAPEBVIUTF8String_v1@AdobeXMPCommon@@AEAPEBVIError_v1@4@@Z 000000018008165c f i MetadataImpl.obj
 0001:00080678       ?HasChanged@NodeImpl@AdobeXMPCore_Int@@$R4FA@DM@PPPPPPPM@KI@EBA_NXZ 0000000180081678 f i MetadataImpl.obj
 0001:00080694       ?QualifiersIterator@NodeImpl@AdobeXMPCore_Int@@$R4FA@DM@PPPPPPPM@KI@EAA?AV?$shared_ptr@VINodeIterator_v1@AdobeXMPCore@@@std@@XZ 0000000180081694 f i MetadataImpl.obj
 0001:000806b0       ?getQualifierNodeType@INode_I@AdobeXMPCore_Int@@$R2DI@CI@PPPPPPPM@DI@EBAKPEBD_K01AEAPEBVIError_v1@AdobeXMPCommon@@@Z 00000001800816b0 f i MetadataImpl.obj
 0001:000806c8       ?qualifiersIterator@INode_I@AdobeXMPCore_Int@@$R2DI@CI@PPPPPPPM@DI@EAAPEAVINodeIterator_v1@AdobeXMPCore@@AEAPEBVIError_v1@AdobeXMPCommon@@@Z 00000001800816c8 f i MetadataImpl.obj
 0001:000806e0       ?clone@INode_I@AdobeXMPCore_Int@@$R2DA@CE@PPPPPPPM@DI@EBAPEAVINode_v1@AdobeXMPCore@@KKAEAPEBVIError_v1@AdobeXMPCommon@@@Z 00000001800816e0 f i MetadataImpl.obj
 0001:000806fc       ?GetChildNodeType@StructureNodeImpl@AdobeXMPCore_Int@@$R4II@EM@PPPPPPPM@IA@EBA?AW4eNodeType@INode_v1@AdobeXMPCore@@PEBD_K01@Z 00000001800816fc f i MetadataImpl.obj
 0001:00080718       ?GetNodeAtPath@CompositeNodeImpl@AdobeXMPCore_Int@@$R4HA@EI@PPPPPPPM@GA@EAA?AV?$shared_ptr@VINode_v1@AdobeXMPCore@@@std@@AEBV?$shared_ptr@$$CBVIPath_v1@AdobeXMPCore@@@4@@Z 0000000180081718 f i MetadataImpl.obj
 0001:00080734       ?getQualifierNodeType@INode_I@AdobeXMPCore_Int@@$R2FI@CI@PPPPPPPM@DI@EBAKPEBD_K01AEAPEBVIError_v1@AdobeXMPCommon@@@Z 0000000180081734 f i MetadataImpl.obj
 0001:00080750       ?qualifiersIterator@INode_I@AdobeXMPCore_Int@@$R2FI@CI@PPPPPPPM@DI@EAAPEAVINodeIterator_v1@AdobeXMPCore@@AEAPEBVIError_v1@AdobeXMPCommon@@@Z 0000000180081750 f i MetadataImpl.obj
 0001:0008076c       ?ChildCount@StructureNodeImpl@AdobeXMPCore_Int@@$4PPPPPPPM@A@EBA_KXZ 000000018008176c f i MetadataImpl.obj
 0001:00080778       ?clone@INode_I@AdobeXMPCore_Int@@$R2FA@CE@PPPPPPPM@DI@EBAPEAVINode_v1@AdobeXMPCore@@KKAEAPEBVIError_v1@AdobeXMPCommon@@@Z 0000000180081778 f i MetadataImpl.obj
 0001:00080794       ?SetNameSpace@NodeImpl@AdobeXMPCore_Int@@$R4FA@DM@PPPPPPPM@KI@EAAXPEBD_K@Z 0000000180081794 f i MetadataImpl.obj
 0001:000807b0       ?GetActualIStructureNode@IStructureNode_I@AdobeXMPCore_Int@@$R4GI@DA@PPPPPPPM@GI@EAAPEAVIStructureNode_v1@AdobeXMPCore@@XZ 00000001800817b0 f i MetadataImpl.obj
 0001:000807c8       ?GetActualINode@INode_I@AdobeXMPCore_Int@@$R4DI@CI@PPPPPPPM@DI@EAAPEAVINode_v1@AdobeXMPCore@@XZ 00000001800817c8 f i MetadataImpl.obj
 0001:000807e0       ?convertToMetadata@INode_I@AdobeXMPCore_Int@@$R2DA@CE@PPPPPPPM@DI@EAAPEAVIMetadata_v1@AdobeXMPCore@@AEAPEBVIError_v1@AdobeXMPCommon@@@Z 00000001800817e0 f i MetadataImpl.obj
 0001:000807fc       ?GetActualIStructureNode@IStructureNode_I@AdobeXMPCore_Int@@$R4II@DA@PPPPPPPM@GI@EAAPEAVIStructureNode_v1@AdobeXMPCore@@XZ 00000001800817fc f i MetadataImpl.obj
 0001:00080818       ?GetActualINode@INode_I@AdobeXMPCore_Int@@$R4FI@CI@PPPPPPPM@DI@EAAPEAVINode_v1@AdobeXMPCore@@XZ 0000000180081818 f i MetadataImpl.obj
 0001:00080834       ?InsertQualifier@NodeImpl@AdobeXMPCore_Int@@$R4FI@EE@PPPPPPPM@KI@EAAXAEBV?$shared_ptr@VINode_v1@AdobeXMPCore@@@std@@@Z 0000000180081834 f i MetadataImpl.obj
 0001:00080850       ?ShareMutex@ThreadSafeImpl@AdobeXMPCore_Int@@$R2LA@DI@PPPPPPPM@DA@EAAXAEBV?$shared_ptr@VISharedMutex@AdobeXMPCore_Int@@@std@@@Z 0000000180081850 f i MetadataImpl.obj
 0001:0008086c       ?AppendNode@StructureNodeImpl@AdobeXMPCore_Int@@$4PPPPPPPM@A@EAAXAEBV?$shared_ptr@VINode_v1@AdobeXMPCore@@@std@@@Z 000000018008186c f i MetadataImpl.obj
 0001:00080878       ?convertToMetadata@INode_I@AdobeXMPCore_Int@@$R2FA@CE@PPPPPPPM@DI@EAAPEAVIMetadata_v1@AdobeXMPCore@@AEAPEBVIError_v1@AdobeXMPCommon@@@Z 0000000180081878 f i MetadataImpl.obj
 0001:00080894       ?replaceNodeAtPath@ICompositeNode_I@AdobeXMPCore_Int@@$R2FA@CM@PPPPPPPM@EI@EAAPEAVINode_v1@AdobeXMPCore@@PEAV34@PEBVIPath_v1@4@AEAPEBVIError_v1@AdobeXMPCommon@@@Z 0000000180081894 f i MetadataImpl.obj
 0001:000808b0       ?getInterfacePointer@IMetadata_I@AdobeXMPCore_Int@@$2PPPPPPPM@A@EAAPEAX_KKAEAPEBVIError_v1@AdobeXMPCommon@@@Z 00000001800818b0 f i MetadataImpl.obj
 0001:000808bc       ?convertToSimpleNode@INode_I@AdobeXMPCore_Int@@$R2DA@CE@PPPPPPPM@DI@EAAPEAVISimpleNode_v1@AdobeXMPCore@@AEAPEBVIError_v1@AdobeXMPCommon@@@Z 00000001800818bc f i MetadataImpl.obj
 0001:000808d8       ?GetNode@MetadataImpl@AdobeXMPCore_Int@@$2PPPPPPPM@A@EAA?AV?$shared_ptr@VINode_v1@AdobeXMPCore@@@std@@AEBV?$shared_ptr@$$CBVIUTF8String_v1@AdobeXMPCommon@@@4@0@Z 00000001800818d8 f i MetadataImpl.obj
 0001:000808e4       ?replaceNodeAtPath@ICompositeNode_I@AdobeXMPCore_Int@@$R2HA@CM@PPPPPPPM@EI@EAAPEAVINode_v1@AdobeXMPCore@@PEAV34@PEBVIPath_v1@4@AEAPEBVIError_v1@AdobeXMPCommon@@@Z 00000001800818e4 f i MetadataImpl.obj
 0001:00080900       ?RemoveNodeAtPath@CompositeNodeImpl@AdobeXMPCore_Int@@$R4HA@EI@PPPPPPPM@GA@EAA?AV?$shared_ptr@VINode_v1@AdobeXMPCore@@@std@@AEBV?$shared_ptr@$$CBVIPath_v1@AdobeXMPCore@@@4@@Z 0000000180081900 f i MetadataImpl.obj
 0001:0008091c       ?ChangeParent@NodeImpl@AdobeXMPCore_Int@@$R4MI@DM@PPPPPPPM@PA@EAAXPEAVINode_v1@AdobeXMPCore@@@Z 000000018008191c f i MetadataImpl.obj
 0001:00080938       ?insertNode@IStructureNode_I@AdobeXMPCore_Int@@$R2IA@CM@PPPPPPPM@GI@EAAXPEAVINode_v1@AdobeXMPCore@@AEAPEBVIError_v1@AdobeXMPCommon@@@Z 0000000180081938 f i MetadataImpl.obj
 0001:00080954       ?convertToSimpleNode@INode_I@AdobeXMPCore_Int@@$R2FA@CE@PPPPPPPM@DI@EAAPEAVISimpleNode_v1@AdobeXMPCore@@AEAPEBVIError_v1@AdobeXMPCommon@@@Z 0000000180081954 f i MetadataImpl.obj
 0001:00080970       ?ReplaceQualifier@NodeImpl@AdobeXMPCore_Int@@$R4FA@DM@PPPPPPPM@KI@EAA?AV?$shared_ptr@VINode_v1@AdobeXMPCore@@@std@@AEBV34@@Z 0000000180081970 f i MetadataImpl.obj
 0001:0008098c       ?GetIThreadSafe_I@IThreadSafe_I@AdobeXMPCommon_Int@@WPPPPPPHI@EAAPEAV12@XZ 000000018008198c f i MetadataImpl.obj
 0001:00080998       ?GetICompositeNode_I@ICompositeNode_I@AdobeXMPCore_Int@@$R4EI@CI@PPPPPPPM@EI@EAAPEAV12@XZ 0000000180081998 f i MetadataImpl.obj
 0001:000809b0       ?CloneContents@MetadataImpl@AdobeXMPCore_Int@@$2PPPPPPPM@A@EBA?AV?$shared_ptr@VINode_v1@AdobeXMPCore@@@std@@_N0_K@Z 00000001800819b0 f i MetadataImpl.obj
 0001:000809bc       ?GetQualifier@NodeImpl@AdobeXMPCore_Int@@$R4MI@DM@PPPPPPPM@PA@EAA?AV?$shared_ptr@VINode_v1@AdobeXMPCore@@@std@@AEBV?$shared_ptr@$$CBVIUTF8String_v1@AdobeXMPCommon@@@4@0@Z 00000001800819bc f i MetadataImpl.obj
 0001:000809d8       ?GetICompositeNode_I@ICompositeNode_I@AdobeXMPCore_Int@@$R4GI@CI@PPPPPPPM@EI@EAAPEAV12@XZ 00000001800819d8 f i MetadataImpl.obj
 0001:000809f4       ?Clear@NodeImpl@AdobeXMPCore_Int@@$R4FA@DM@PPPPPPPM@KI@EAAX_N0@Z 00000001800819f4 f i MetadataImpl.obj
 0001:00080a10       ?IsQualifierNode@NodeImpl@AdobeXMPCore_Int@@$R4FA@DM@PPPPPPPM@KI@EBA_NXZ 0000000180081a10 f i MetadataImpl.obj
 0001:00080a2c       ?GetIThreadSafe_I@IThreadSafe_I@AdobeXMPCommon_Int@@$R4EA@CA@PPPPPPPM@BA@EAAPEAV12@XZ 0000000180081a2c f i MetadataImpl.obj
 0001:00080a48       ?convertToStructureNode@INode_I@AdobeXMPCore_Int@@$R2DI@CI@PPPPPPPM@DI@EAAPEAVIStructureNode_v1@AdobeXMPCore@@AEAPEBVIError_v1@AdobeXMPCommon@@@Z 0000000180081a48 f i MetadataImpl.obj
 0001:00080a60       ?hasChanged@INode_I@AdobeXMPCore_Int@@$R2DI@CI@PPPPPPPM@DI@EBAKAEAPEBVIError_v1@AdobeXMPCommon@@@Z 0000000180081a60 f i MetadataImpl.obj
 0001:00080a78       ?insertNode@IStructureNode_I@AdobeXMPCore_Int@@$2PPPPPPPM@A@EAAXPEAVINode_v1@AdobeXMPCore@@AEAPEBVIError_v1@AdobeXMPCommon@@@Z 0000000180081a78 f i MetadataImpl.obj
 0001:00080a84       ?convertToArrayNode@INode_I@AdobeXMPCore_Int@@$R2DA@CE@PPPPPPPM@DI@EAAPEAVIArrayNode_v1@AdobeXMPCore@@AEAPEBVIError_v1@AdobeXMPCommon@@@Z 0000000180081a84 f i MetadataImpl.obj
 0001:00080aa0       ?removeQualifier@INode_I@AdobeXMPCore_Int@@$R2DA@CE@PPPPPPPM@DI@EAAPEAVINode_v1@AdobeXMPCore@@PEBD_K01AEAPEBVIError_v1@AdobeXMPCommon@@@Z 0000000180081aa0 f i MetadataImpl.obj
 0001:00080abc       ?GetRawParentPointer@NodeImpl@AdobeXMPCore_Int@@$R4OI@EE@PPPPPPPM@PA@EAAPEAVINode_v1@AdobeXMPCore@@XZ 0000000180081abc f i MetadataImpl.obj
 0001:00080ad8       ?InsertNode@MetadataImpl@AdobeXMPCore_Int@@$2PPPPPPPM@A@EAAXAEBV?$shared_ptr@VINode_v1@AdobeXMPCore@@@std@@@Z 0000000180081ad8 f i MetadataImpl.obj
 0001:00080ae4       ?convertToStructureNode@INode_I@AdobeXMPCore_Int@@$R2FI@CI@PPPPPPPM@DI@EAAPEAVIStructureNode_v1@AdobeXMPCore@@AEAPEBVIError_v1@AdobeXMPCommon@@@Z 0000000180081ae4 f i MetadataImpl.obj
 0001:00080b00       ?hasChanged@INode_I@AdobeXMPCore_Int@@$R2FI@CI@PPPPPPPM@DI@EBAKAEAPEBVIError_v1@AdobeXMPCommon@@@Z 0000000180081b00 f i MetadataImpl.obj
 0001:00080b1c       ?ConvertToMetadata@MetadataImpl@AdobeXMPCore_Int@@$2PPPPPPPM@A@EAA?AV?$shared_ptr@VIMetadata_v1@AdobeXMPCore@@@std@@XZ 0000000180081b1c f i MetadataImpl.obj
 0001:00080b28       ?SetQualifiers@NodeImpl@AdobeXMPCore_Int@@$R4MI@DM@PPPPPPPM@PA@EAAXAEBV?$shared_ptr@VIStructureNode_v1@AdobeXMPCore@@@std@@@Z 0000000180081b28 f i MetadataImpl.obj
 0001:00080b44       ?getChildNodeType@IStructureNode_I@AdobeXMPCore_Int@@$R2IA@CM@PPPPPPPM@GI@EBAKPEBD_K01AEAPEBVIError_v1@AdobeXMPCommon@@@Z 0000000180081b44 f i MetadataImpl.obj
 0001:00080b60       ?ReplaceNode@StructureNodeImpl@AdobeXMPCore_Int@@$4PPPPPPPM@A@EAA?AV?$shared_ptr@VINode_v1@AdobeXMPCore@@@std@@AEBV34@@Z 0000000180081b60 f i MetadataImpl.obj
 0001:00080b6c       ?convertToArrayNode@INode_I@AdobeXMPCore_Int@@$R2FA@CE@PPPPPPPM@DI@EAAPEAVIArrayNode_v1@AdobeXMPCore@@AEAPEBVIError_v1@AdobeXMPCommon@@@Z 0000000180081b6c f i MetadataImpl.obj
 0001:00080b88       ?removeQualifier@INode_I@AdobeXMPCore_Int@@$R2FA@CE@PPPPPPPM@DI@EAAPEAVINode_v1@AdobeXMPCore@@PEBD_K01AEAPEBVIError_v1@AdobeXMPCommon@@@Z 0000000180081b88 f i MetadataImpl.obj
 0001:00080ba4       ?Clone@NodeImpl@AdobeXMPCore_Int@@$R4FA@DM@PPPPPPPM@KI@EBA?AV?$shared_ptr@VINode_v1@AdobeXMPCore@@@std@@_N0@Z 0000000180081ba4 f i MetadataImpl.obj
 0001:00080bc0       ?IsEmpty@NodeImpl@AdobeXMPCore_Int@@$R4FA@DM@PPPPPPPM@KI@EBA_NXZ 0000000180081bc0 f i MetadataImpl.obj
 0001:00080bdc       ?RemoveQualifier@NodeImpl@AdobeXMPCore_Int@@$R4FA@DM@PPPPPPPM@KI@EAA?AV?$shared_ptr@VINode_v1@AdobeXMPCore@@@std@@PEBD_K01@Z 0000000180081bdc f i MetadataImpl.obj
 0001:00080bf8       ?GetPath@NodeImpl@AdobeXMPCore_Int@@$R4FA@DM@PPPPPPPM@KI@EBA?AV?$shared_ptr@VIPath_v1@AdobeXMPCore@@@std@@XZ 0000000180081bf8 f i MetadataImpl.obj
 0001:00080c14       ?getNodeAtPath@ICompositeNode_I@AdobeXMPCore_Int@@$R2FA@CM@PPPPPPPM@EI@EAAPEAVINode_v1@AdobeXMPCore@@PEBVIPath_v1@4@AEAPEBVIError_v1@AdobeXMPCommon@@@Z 0000000180081c14 f i MetadataImpl.obj
 0001:00080c30       ?getQualifier@INode_I@AdobeXMPCore_Int@@$R2DA@CE@PPPPPPPM@DI@EAAPEAVINode_v1@AdobeXMPCore@@PEBD_K01AEAPEBVIError_v1@AdobeXMPCommon@@@Z 0000000180081c30 f i MetadataImpl.obj
 0001:00080c4c       ?getName@INode_I@AdobeXMPCore_Int@@$R2DA@CE@PPPPPPPM@DI@EBAPEBVIUTF8String_v1@AdobeXMPCommon@@AEAPEBVIError_v1@4@@Z 0000000180081c4c f i MetadataImpl.obj
 0001:00080c68       ?getNodeAtPath@ICompositeNode_I@AdobeXMPCore_Int@@$R2HA@CM@PPPPPPPM@EI@EAAPEAVINode_v1@AdobeXMPCore@@PEBVIPath_v1@4@AEAPEBVIError_v1@AdobeXMPCommon@@@Z 0000000180081c68 f i MetadataImpl.obj
 0001:00080c84       ?HasContent@StructureNodeImpl@AdobeXMPCore_Int@@$R4FI@EM@PPPPPPPM@FA@EBA_NXZ 0000000180081c84 f i MetadataImpl.obj
 0001:00080ca0       ?HasQualifiers@NodeImpl@AdobeXMPCore_Int@@$R4FI@EE@PPPPPPPM@KI@EBA_NXZ 0000000180081ca0 f i MetadataImpl.obj
 0001:00080cbc       ?EnableThreadSafety@ThreadSafeImpl@AdobeXMPCore_Int@@$R2EI@EA@PPPPPPPM@CA@EBAXXZ 0000000180081cbc f i MetadataImpl.obj
 0001:00080cd8       ?getQualifier@INode_I@AdobeXMPCore_Int@@$R2FA@CE@PPPPPPPM@DI@EAAPEAVINode_v1@AdobeXMPCore@@PEBD_K01AEAPEBVIError_v1@AdobeXMPCommon@@@Z 0000000180081cd8 f i MetadataImpl.obj
 0001:00080cf4       ?getName@INode_I@AdobeXMPCore_Int@@$R2FA@CE@PPPPPPPM@DI@EBAPEBVIUTF8String_v1@AdobeXMPCommon@@AEAPEBVIError_v1@4@@Z 0000000180081cf4 f i MetadataImpl.obj
 0001:00080d10       ?insertNodeAtPath@ICompositeNode_I@AdobeXMPCore_Int@@$R2FA@CM@PPPPPPPM@EI@EAAXPEAVINode_v1@AdobeXMPCore@@PEBVIPath_v1@4@AEAPEBVIError_v1@AdobeXMPCommon@@@Z 0000000180081d10 f i MetadataImpl.obj
 0001:00080d2c       ?getNodeTypeAtPath@ICompositeNode_I@AdobeXMPCore_Int@@$R2FA@CM@PPPPPPPM@EI@EBAKPEBVIPath_v1@AdobeXMPCore@@AEAPEBVIError_v1@AdobeXMPCommon@@@Z 0000000180081d2c f i MetadataImpl.obj
 0001:00080d48       ?getPath@INode_I@AdobeXMPCore_Int@@$R2DI@CI@PPPPPPPM@DI@EBAPEAVIPath_v1@AdobeXMPCore@@AEAPEBVIError_v1@AdobeXMPCommon@@@Z 0000000180081d48 f i MetadataImpl.obj
 0001:00080d60       ?getChildNodeType@IStructureNode_I@AdobeXMPCore_Int@@$2PPPPPPPM@A@EBAKPEBD_K01AEAPEBVIError_v1@AdobeXMPCommon@@@Z 0000000180081d60 f i MetadataImpl.obj
 0001:00080d6c       ?isArrayItem@INode_I@AdobeXMPCore_Int@@$R2DA@CE@PPPPPPPM@DI@EBAKAEAPEBVIError_v1@AdobeXMPCommon@@@Z 0000000180081d6c f i MetadataImpl.obj
 0001:00080d88       ?insertNodeAtPath@ICompositeNode_I@AdobeXMPCore_Int@@$R2HA@CM@PPPPPPPM@EI@EAAXPEAVINode_v1@AdobeXMPCore@@PEBVIPath_v1@4@AEAPEBVIError_v1@AdobeXMPCommon@@@Z 0000000180081d88 f i MetadataImpl.obj
 0001:00080da4       ?getNodeTypeAtPath@ICompositeNode_I@AdobeXMPCore_Int@@$R2HA@CM@PPPPPPPM@EI@EBAKPEBVIPath_v1@AdobeXMPCore@@AEAPEBVIError_v1@AdobeXMPCommon@@@Z 0000000180081da4 f i MetadataImpl.obj
 0001:00080dc0       ?getPath@INode_I@AdobeXMPCore_Int@@$R2FI@CI@PPPPPPPM@DI@EBAPEAVIPath_v1@AdobeXMPCore@@AEAPEBVIError_v1@AdobeXMPCommon@@@Z 0000000180081dc0 f i MetadataImpl.obj
 0001:00080ddc       ?ClearContents@StructureNodeImpl@AdobeXMPCore_Int@@$4PPPPPPPM@A@EAAXXZ 0000000180081ddc f i MetadataImpl.obj
 0001:00080de8       ?ReplaceNodeAtPath@CompositeNodeImpl@AdobeXMPCore_Int@@$R4GI@EA@PPPPPPPM@GA@EAA?AV?$shared_ptr@VINode_v1@AdobeXMPCore@@@std@@AEBV34@AEBV?$shared_ptr@$$CBVIPath_v1@AdobeXMPCore@@@4@@Z 0000000180081de8 f i MetadataImpl.obj
 0001:00080e04       ?isArrayItem@INode_I@AdobeXMPCore_Int@@$R2FA@CE@PPPPPPPM@DI@EBAKAEAPEBVIError_v1@AdobeXMPCommon@@@Z 0000000180081e04 f i MetadataImpl.obj
 0001:00080e20       ?removeNode@IStructureNode_I@AdobeXMPCore_Int@@$R2GI@DA@PPPPPPPM@GI@EAAPEAVINode_v1@AdobeXMPCore@@PEBD_K01AEAPEBVIError_v1@AdobeXMPCommon@@@Z 0000000180081e20 f i MetadataImpl.obj
 0001:00080e38       ?hasQualifiers@INode_I@AdobeXMPCore_Int@@$R2DI@CI@PPPPPPPM@DI@EBAKAEAPEBVIError_v1@AdobeXMPCommon@@@Z 0000000180081e38 f i MetadataImpl.obj
 0001:00080e50       ?isQualifierNode@INode_I@AdobeXMPCore_Int@@$R2DI@CI@PPPPPPPM@DI@EBAKAEAPEBVIError_v1@AdobeXMPCommon@@@Z 0000000180081e50 f i MetadataImpl.obj
 0001:00080e68       ?getParentNodeType@INode_I@AdobeXMPCore_Int@@$R2DI@CI@PPPPPPPM@DI@EBAKAEAPEBVIError_v1@AdobeXMPCommon@@@Z 0000000180081e68 f i MetadataImpl.obj
 0001:00080e80       ??_EIMetadata_I@AdobeXMPCore_Int@@$2PPPPPPPM@BA@EAAPEAXI@Z 0000000180081e80 f i MetadataImpl.obj
 0001:00080e90       ?removeNode@IStructureNode_I@AdobeXMPCore_Int@@$R2II@DA@PPPPPPPM@GI@EAAPEAVINode_v1@AdobeXMPCore@@PEBD_K01AEAPEBVIError_v1@AdobeXMPCommon@@@Z 0000000180081e90 f i MetadataImpl.obj
 0001:00080eac       ?hasQualifiers@INode_I@AdobeXMPCore_Int@@$R2FI@CI@PPPPPPPM@DI@EBAKAEAPEBVIError_v1@AdobeXMPCommon@@@Z 0000000180081eac f i MetadataImpl.obj
 0001:00080ec8       ?isQualifierNode@INode_I@AdobeXMPCore_Int@@$R2FI@CI@PPPPPPPM@DI@EBAKAEAPEBVIError_v1@AdobeXMPCommon@@@Z 0000000180081ec8 f i MetadataImpl.obj
 0001:00080ee4       ?getParentNodeType@INode_I@AdobeXMPCore_Int@@$R2FI@CI@PPPPPPPM@DI@EBAKAEAPEBVIError_v1@AdobeXMPCommon@@@Z 0000000180081ee4 f i MetadataImpl.obj
 0001:00080f00       ?HasContent@StructureNodeImpl@AdobeXMPCore_Int@@$4PPPPPPPM@A@EBA_NXZ 0000000180081f00 f i MetadataImpl.obj
 0001:00080f0c       ?GetNameSpace@NodeImpl@AdobeXMPCore_Int@@$R4FA@DM@PPPPPPPM@KI@EBA?AV?$shared_ptr@$$CBVIUTF8String_v1@AdobeXMPCommon@@@std@@XZ 0000000180081f0c f i MetadataImpl.obj
 0001:00080f28       ?SetName@NodeImpl@AdobeXMPCore_Int@@$R4FA@DM@PPPPPPPM@KI@EAAXPEBD_K@Z 0000000180081f28 f i MetadataImpl.obj
 0001:00080f44       ?appendNode@ICompositeNode_I@AdobeXMPCore_Int@@$R2EI@CI@PPPPPPPM@EI@EAAXPEAVINode_v1@AdobeXMPCore@@AEAPEBVIError_v1@AdobeXMPCommon@@@Z 0000000180081f44 f i MetadataImpl.obj
 0001:00080f5c       ?InsertNodeAtPath@CompositeNodeImpl@AdobeXMPCore_Int@@$R4HA@EI@PPPPPPPM@GA@EAAXAEBV?$shared_ptr@VINode_v1@AdobeXMPCore@@@std@@AEBV?$shared_ptr@$$CBVIPath_v1@AdobeXMPCore@@@4@@Z 0000000180081f5c f i MetadataImpl.obj
 0001:00080f78       ?UnRegisterChange@NodeImpl@AdobeXMPCore_Int@@$R4MI@DM@PPPPPPPM@PA@EAAXXZ 0000000180081f78 f i MetadataImpl.obj
 0001:00080f94       ?UnShareMutex@ThreadSafeImpl@AdobeXMPCore_Int@@$R2LA@DI@PPPPPPPM@DA@EAAXXZ 0000000180081f94 f i MetadataImpl.obj
 0001:00080fb0       ?appendNode@ICompositeNode_I@AdobeXMPCore_Int@@$R2GI@CI@PPPPPPPM@EI@EAAXPEAVINode_v1@AdobeXMPCore@@AEAPEBVIError_v1@AdobeXMPCommon@@@Z 0000000180081fb0 f i MetadataImpl.obj
 0001:00080fcc       ?AcknowledgeChanges@NodeImpl@AdobeXMPCore_Int@@$R4FA@DM@PPPPPPPM@KI@EBAXXZ 0000000180081fcc f i MetadataImpl.obj
 0001:00080fe8       ?IsThreadSafe@ThreadSafeImpl@AdobeXMPCore_Int@@$R2EA@DI@PPPPPPPM@CA@EBA_NXZ 0000000180081fe8 f i MetadataImpl.obj
 0001:00081004       ?getNodeType@INode_I@AdobeXMPCore_Int@@$R2DI@CI@PPPPPPPM@DI@EBAKAEAPEBVIError_v1@AdobeXMPCommon@@@Z 0000000180082004 f i MetadataImpl.obj
 0001:0008101c       ?replaceQualifier@INode_I@AdobeXMPCore_Int@@$R2DI@CI@PPPPPPPM@DI@EAAPEAVINode_v1@AdobeXMPCore@@PEAV34@AEAPEBVIError_v1@AdobeXMPCommon@@@Z 000000018008201c f i MetadataImpl.obj
 0001:00081034       ?setNameSpace@INode_I@AdobeXMPCore_Int@@$R2DA@CE@PPPPPPPM@DI@EAAXPEBD_KAEAPEBVIError_v1@AdobeXMPCommon@@@Z 0000000180082034 f i MetadataImpl.obj
 0001:00081050       ?GetISharedObject_I@ISharedObject_I@AdobeXMPCommon_Int@@WPPPPPPII@EAAPEAV12@XZ 0000000180082050 f i MetadataImpl.obj
 0001:0008105c       ?ValidateNameOrNameSpaceChangeForAChild@StructureNodeImpl@AdobeXMPCore_Int@@$R4OI@EM@PPPPPPPM@MI@EAA_NAEBV?$shared_ptr@$$CBVIUTF8String_v1@AdobeXMPCommon@@@std@@000@Z 000000018008205c f i MetadataImpl.obj
 0001:00081078       ?getNodeType@INode_I@AdobeXMPCore_Int@@$R2FI@CI@PPPPPPPM@DI@EBAKAEAPEBVIError_v1@AdobeXMPCommon@@@Z 0000000180082078 f i MetadataImpl.obj
 0001:00081094       ?replaceQualifier@INode_I@AdobeXMPCore_Int@@$R2FI@CI@PPPPPPPM@DI@EAAPEAVINode_v1@AdobeXMPCore@@PEAV34@AEAPEBVIError_v1@AdobeXMPCommon@@@Z 0000000180082094 f i MetadataImpl.obj
 0001:000810b0       ?GetIndex@NodeImpl@AdobeXMPCore_Int@@$R4FI@EE@PPPPPPPM@KI@EBA_KXZ 00000001800820b0 f i MetadataImpl.obj
 0001:000810cc       ?GetISharedObject_I@IMetadata_I@AdobeXMPCore_Int@@$R4CI@DE@PPPPPPPM@BA@EAAPEAVISharedObject_I@AdobeXMPCommon_Int@@XZ 00000001800820cc f i MetadataImpl.obj
 0001:000810e8       ?Release@NodeImpl@AdobeXMPCore_Int@@$R4CI@EE@PPPPPPPM@HI@EBAXXZ 00000001800820e8 f i MetadataImpl.obj
 0001:00081104       ?RegisterChange@NodeImpl@AdobeXMPCore_Int@@$R4MI@DM@PPPPPPPM@PA@EAAXXZ 0000000180082104 f i MetadataImpl.obj
 0001:00081120       ?SetIndex@NodeImpl@AdobeXMPCore_Int@@$R4MI@DM@PPPPPPPM@PA@EAAX_K@Z 0000000180082120 f i MetadataImpl.obj
 0001:0008113c       ?setNameSpace@INode_I@AdobeXMPCore_Int@@$R2FA@CE@PPPPPPPM@DI@EAAXPEBD_KAEAPEBVIError_v1@AdobeXMPCommon@@@Z 000000018008213c f i MetadataImpl.obj
 0001:00081158       ?QualifiersCount@NodeImpl@AdobeXMPCore_Int@@$R4FA@DM@PPPPPPPM@KI@EBA_KXZ 0000000180082158 f i MetadataImpl.obj
 0001:00081174       ?GetIStructureNode_I@IStructureNode_I@AdobeXMPCore_Int@@$R4GI@DA@PPPPPPPM@GI@EAAPEAV12@XZ 0000000180082174 f i MetadataImpl.obj
 0001:0008118c       ?iterator@ICompositeNode_I@AdobeXMPCore_Int@@$R2FA@CM@PPPPPPPM@EI@EAAPEAVINodeIterator_v1@AdobeXMPCore@@AEAPEBVIError_v1@AdobeXMPCommon@@@Z 000000018008218c f i MetadataImpl.obj
 0001:000811a8       ?insertQualifier@INode_I@AdobeXMPCore_Int@@$R2DI@CI@PPPPPPPM@DI@EAAXPEAVINode_v1@AdobeXMPCore@@AEAPEBVIError_v1@AdobeXMPCommon@@@Z 00000001800821a8 f i MetadataImpl.obj
 0001:000811c0       ?GetINode_I@INode_I@AdobeXMPCore_Int@@$R4DA@CE@PPPPPPPM@DI@EAAPEAV12@XZ 00000001800821c0 f i MetadataImpl.obj
 0001:000811dc       ??_EINameSpacePrefixMap_v1@AdobeXMPCore@@MEAAPEAXI@Z 00000001800821dc f i * CIL library *:* CIL module *
 0001:000811dc       ??_GINameSpacePrefixMap_v1@AdobeXMPCore@@MEAAPEAXI@Z 00000001800821dc f i NameSpacePrefixMapImpl.obj
 0001:0008124c       ??1INameSpacePrefixMap_I@AdobeXMPCore_Int@@MEAA@XZ 000000018008224c f i NameSpacePrefixMapImpl.obj
 0001:000812f4       ??_EINameSpacePrefixMap_I@AdobeXMPCore_Int@@MEAAPEAXI@Z 00000001800822f4 f i * CIL library *:* CIL module *
 0001:000812f4       ??_GINameSpacePrefixMap_I@AdobeXMPCore_Int@@MEAAPEAXI@Z 00000001800822f4 f i NameSpacePrefixMapImpl.obj
 0001:0008132c       ??1NameSpacePrefixMapImpl@AdobeXMPCore_Int@@MEAA@XZ 000000018008232c f i NameSpacePrefixMapImpl.obj
 0001:000814ac       ??_ENameSpacePrefixMapImpl@AdobeXMPCore_Int@@MEAAPEAXI@Z 00000001800824ac f i * CIL library *:* CIL module *
 0001:000814ac       ??_GNameSpacePrefixMapImpl@AdobeXMPCore_Int@@MEAAPEAXI@Z 00000001800824ac f i NameSpacePrefixMapImpl.obj
 0001:00081ef8       ??0NameSpacePrefixMapImpl@AdobeXMPCore_Int@@QEAA@XZ 0000000180082ef8 f   NameSpacePrefixMapImpl.obj
 0001:00082338       ?Insert@NameSpacePrefixMapImpl@AdobeXMPCore_Int@@MEAA_NPEBD_K01@Z 0000000180083338 f   NameSpacePrefixMapImpl.obj
 0001:0008275c       ?RemovePrefix@NameSpacePrefixMapImpl@AdobeXMPCore_Int@@MEAA_NPEBD_K@Z 000000018008375c f   NameSpacePrefixMapImpl.obj
 0001:00082950       ?RemoveNameSpace@NameSpacePrefixMapImpl@AdobeXMPCore_Int@@MEAA_NPEBD_K@Z 0000000180083950 f   NameSpacePrefixMapImpl.obj
 0001:00082b44       ?IsPrefixPresent@NameSpacePrefixMapImpl@AdobeXMPCore_Int@@MEBA_NPEBD_K@Z 0000000180083b44 f   NameSpacePrefixMapImpl.obj
 0001:00082c78       ?IsNameSpacePresent@NameSpacePrefixMapImpl@AdobeXMPCore_Int@@MEBA_NPEBD_K@Z 0000000180083c78 f   NameSpacePrefixMapImpl.obj
 0001:00082dac       ?GetNameSpace@NameSpacePrefixMapImpl@AdobeXMPCore_Int@@MEBA?AV?$shared_ptr@$$CBVIUTF8String_v1@AdobeXMPCommon@@@std@@PEBD_K@Z 0000000180083dac f   NameSpacePrefixMapImpl.obj
 0001:00082f6c       ?GetNameSpace@NameSpacePrefixMapImpl@AdobeXMPCore_Int@@MEBA?AV?$shared_ptr@$$CBVIUTF8String_v1@AdobeXMPCommon@@@std@@AEBV34@@Z 0000000180083f6c f   NameSpacePrefixMapImpl.obj
 0001:00083050       ?GetPrefix@NameSpacePrefixMapImpl@AdobeXMPCore_Int@@MEBA?AV?$shared_ptr@$$CBVIUTF8String_v1@AdobeXMPCommon@@@std@@PEBD_K@Z 0000000180084050 f   NameSpacePrefixMapImpl.obj
 0001:00083214       ?GetPrefix@NameSpacePrefixMapImpl@AdobeXMPCore_Int@@MEBA?AV?$shared_ptr@$$CBVIUTF8String_v1@AdobeXMPCommon@@@std@@AEBV34@@Z 0000000180084214 f   NameSpacePrefixMapImpl.obj
 0001:000832fc       ?Size@NameSpacePrefixMapImpl@AdobeXMPCore_Int@@MEBA_KXZ 00000001800842fc f   NameSpacePrefixMapImpl.obj
 0001:00083338       ?Clear@NameSpacePrefixMapImpl@AdobeXMPCore_Int@@MEAAXXZ 0000000180084338 f   NameSpacePrefixMapImpl.obj
 0001:000833d4       ?Clone@NameSpacePrefixMapImpl@AdobeXMPCore_Int@@MEBA?AV?$shared_ptr@VINameSpacePrefixMap_v1@AdobeXMPCore@@@std@@XZ 00000001800843d4 f   NameSpacePrefixMapImpl.obj
 0001:00083734       ?Merge@NameSpacePrefixMapImpl@AdobeXMPCore_Int@@MEAAXAEBV?$shared_ptr@$$CBVINameSpacePrefixMap_v1@AdobeXMPCore@@@std@@@Z 0000000180084734 f   NameSpacePrefixMapImpl.obj
 0001:00083a34       ?CreateNameSpacePrefixMap@INameSpacePrefixMap_v1@AdobeXMPCore@@SA?AV?$shared_ptr@VINameSpacePrefixMap_v1@AdobeXMPCore@@@std@@XZ 0000000180084a34 f   NameSpacePrefixMapImpl.obj
 0001:00083af4       ?GetDefaultNameSpacePrefixMap@INameSpacePrefixMap_v1@AdobeXMPCore@@SA?AV?$shared_ptr@$$CBVINameSpacePrefixMap_v1@AdobeXMPCore@@@std@@XZ 0000000180084af4 f   NameSpacePrefixMapImpl.obj
 0001:00083b70       ??$MakeUncheckedSharedPointer@VNameSpacePrefixMapImpl@AdobeXMPCore_Int@@@AdobeXMPCore_Int@@YA?AV?$shared_ptr@VNameSpacePrefixMapImpl@AdobeXMPCore_Int@@@std@@PEAVNameSpacePrefixMapImpl@0@PEBD_K_N@Z 0000000180084b70 f i NameSpacePrefixMapImpl.obj
 0001:00083cc0       ?find@?$_Tree@V?$_Tmap_traits@V?$shared_ptr@$$CBVIUTF8String_v1@AdobeXMPCommon@@@std@@V12@UIUTF8StringComparator@AdobeXMPCore_Int@@V?$TAllocator@U?$pair@$$CBV?$shared_ptr@$$CBVIUTF8String_v1@AdobeXMPCommon@@@std@@V12@@std@@@4@$0A@@std@@@std@@QEAA?AV?$_Tree_iterator@V?$_Tree_val@U?$_Tree_simple_types@U?$pair@$$CBV?$shared_ptr@$$CBVIUTF8String_v1@AdobeXMPCommon@@@std@@V12@@std@@@std@@@std@@@2@AEBV?$shared_ptr@$$CBVIUTF8String_v1@AdobeXMPCommon@@@2@@Z 0000000180084cc0 f i NameSpacePrefixMapImpl.obj
 0001:00083cc0       ?find@?$_Tree@V?$_Tmap_traits@V?$shared_ptr@$$CBVIUTF8String_v1@AdobeXMPCommon@@@std@@V12@UIUTF8StringComparator@AdobeXMPCore_Int@@V?$TAllocator@U?$pair@$$CBV?$shared_ptr@$$CBVIUTF8String_v1@AdobeXMPCommon@@@std@@V12@@std@@@4@$0A@@std@@@std@@QEBA?AV?$_Tree_const_iterator@V?$_Tree_val@U?$_Tree_simple_types@U?$pair@$$CBV?$shared_ptr@$$CBVIUTF8String_v1@AdobeXMPCommon@@@std@@V12@@std@@@std@@@std@@@2@AEBV?$shared_ptr@$$CBVIUTF8String_v1@AdobeXMPCommon@@@2@@Z 0000000180084cc0 f i NameSpacePrefixMapImpl.obj
 0001:00083d50       ?erase@?$_Tree@V?$_Tmap_traits@V?$shared_ptr@$$CBVIUTF8String_v1@AdobeXMPCommon@@@std@@V12@UIUTF8StringComparator@AdobeXMPCore_Int@@V?$TAllocator@U?$pair@$$CBV?$shared_ptr@$$CBVIUTF8String_v1@AdobeXMPCommon@@@std@@V12@@std@@@4@$0A@@std@@@std@@QEAA_KAEBV?$shared_ptr@$$CBVIUTF8String_v1@AdobeXMPCommon@@@2@@Z 0000000180084d50 f i NameSpacePrefixMapImpl.obj
 0001:00083f64       ??A?$map@V?$shared_ptr@$$CBVIUTF8String_v1@AdobeXMPCommon@@@std@@V12@UIUTF8StringComparator@AdobeXMPCore_Int@@V?$TAllocator@U?$pair@$$CBV?$shared_ptr@$$CBVIUTF8String_v1@AdobeXMPCommon@@@std@@V12@@std@@@4@@std@@QEAAAEAV?$shared_ptr@$$CBVIUTF8String_v1@AdobeXMPCommon@@@1@AEBV21@@Z 0000000180084f64 f i NameSpacePrefixMapImpl.obj
 0001:000840b0       ?IsPrefixPresent@NameSpacePrefixMapImpl@AdobeXMPCore_Int@@$2PPPPPPPM@A@EBA_NPEBD_K@Z 00000001800850b0 f i NameSpacePrefixMapImpl.obj
 0001:000840bc       ?GetIThreadSafe_I@IThreadSafe_I@AdobeXMPCommon_Int@@$R4FA@BI@PPPPPPPM@BA@EAAPEAV12@XZ 00000001800850bc f i NameSpacePrefixMapImpl.obj
 0001:000840d8       ??_EINameSpacePrefixMap_I@AdobeXMPCore_Int@@OBI@EAAPEAXI@Z 00000001800850d8 f i NameSpacePrefixMapImpl.obj
 0001:000840e4       ?DisableThreadSafety@ThreadSafeImpl@AdobeXMPCore_Int@@$R2FA@CI@PPPPPPPM@CA@EBAXXZ 00000001800850e4 f i NameSpacePrefixMapImpl.obj
 0001:00084100       ?remove@INameSpacePrefixMap_I@AdobeXMPCore_Int@@$2PPPPPPPM@A@EAAKKPEBD_KAEAPEBVIError_v1@AdobeXMPCommon@@@Z 0000000180085100 f i NameSpacePrefixMapImpl.obj
 0001:0008410c       ?Merge@NameSpacePrefixMapImpl@AdobeXMPCore_Int@@$2PPPPPPPM@A@EAAXAEBV?$shared_ptr@$$CBVINameSpacePrefixMap_v1@AdobeXMPCore@@@std@@@Z 000000018008510c f i NameSpacePrefixMapImpl.obj
 0001:00084118       ??_ENameSpacePrefixMapImpl@AdobeXMPCore_Int@@$2PPPPPPPM@A@EAAPEAXI@Z 0000000180085118 f i NameSpacePrefixMapImpl.obj
 0001:00084124       ?isThreadSafe@IThreadSafe_I@AdobeXMPCommon_Int@@WPPPPPPLI@EBAKXZ 0000000180085124 f i NameSpacePrefixMapImpl.obj
 0001:00084130       ?AcquireInternal@SharedObjectImpl@AdobeXMPCore_Int@@$R4IA@CA@PPPPPPPM@DA@EBAXXZ 0000000180085130 f i NameSpacePrefixMapImpl.obj
 0001:0008414c       ??_ENameSpacePrefixMapImpl@AdobeXMPCore_Int@@$2PPPPPPPM@CA@EAAPEAXI@Z 000000018008514c f i NameSpacePrefixMapImpl.obj
 0001:0008415c       ?GetNameSpace@NameSpacePrefixMapImpl@AdobeXMPCore_Int@@$2PPPPPPPM@A@EBA?AV?$shared_ptr@$$CBVIUTF8String_v1@AdobeXMPCommon@@@std@@AEBV34@@Z 000000018008515c f i NameSpacePrefixMapImpl.obj
 0001:00084168       ?GetNameSpace@NameSpacePrefixMapImpl@AdobeXMPCore_Int@@$2PPPPPPPM@A@EBA?AV?$shared_ptr@$$CBVIUTF8String_v1@AdobeXMPCommon@@@std@@PEBD_K@Z 0000000180085168 f i NameSpacePrefixMapImpl.obj
 0001:00084174       ?getInterfacePointer@INameSpacePrefixMap_I@AdobeXMPCore_Int@@$2PPPPPPPM@A@EAAPEAX_KKAEAPEBVIError_v1@AdobeXMPCommon@@@Z 0000000180085174 f i NameSpacePrefixMapImpl.obj
 0001:00084180       ?GetISharedObject_I@ISharedObject_I@AdobeXMPCommon_Int@@WPPPPPPLA@EAAPEAV12@XZ 0000000180085180 f i NameSpacePrefixMapImpl.obj
 0001:0008418c       ?insert@INameSpacePrefixMap_I@AdobeXMPCore_Int@@$R2GA@BM@PPPPPPPM@DI@EAAKPEBD_K01AEAPEBVIError_v1@AdobeXMPCommon@@@Z 000000018008518c f i NameSpacePrefixMapImpl.obj
 0001:000841a8       ?GetActualINameSpacePrefixMap@INameSpacePrefixMap_I@AdobeXMPCore_Int@@$R4GA@BM@PPPPPPPM@DI@EAAPEAVINameSpacePrefixMap_v1@AdobeXMPCore@@XZ 00000001800851a8 f i NameSpacePrefixMapImpl.obj
 0001:000841c4       ?getInterfacePointer@INameSpacePrefixMap_I@AdobeXMPCore_Int@@$R2EA@BM@PPPPPPPM@CA@EAAPEAX_KKAEAPEBVIError_v1@AdobeXMPCommon@@@Z 00000001800851c4 f i NameSpacePrefixMapImpl.obj
 0001:000841e0       ?EnableThreadSafety@ThreadSafeImpl@AdobeXMPCore_Int@@$R2FA@CI@PPPPPPPM@CA@EBAXXZ 00000001800851e0 f i NameSpacePrefixMapImpl.obj
 0001:000841fc       ?isPresent@INameSpacePrefixMap_I@AdobeXMPCore_Int@@$R2GA@BM@PPPPPPPM@DI@EBAKKPEBD_KAEAPEBVIError_v1@AdobeXMPCommon@@@Z 00000001800851fc f i NameSpacePrefixMapImpl.obj
 0001:00084218       ?isThreadSafe@IThreadSafe_I@AdobeXMPCommon_Int@@$R4FA@BI@PPPPPPPM@BA@EBAKXZ 0000000180085218 f i NameSpacePrefixMapImpl.obj
 0001:00084234       ?insert@INameSpacePrefixMap_I@AdobeXMPCore_Int@@$2PPPPPPPM@A@EAAKPEBD_K01AEAPEBVIError_v1@AdobeXMPCommon@@@Z 0000000180085234 f i NameSpacePrefixMapImpl.obj
 0001:00084240       ?ShareMutex@ThreadSafeImpl@AdobeXMPCore_Int@@$R2JI@CI@PPPPPPPM@DA@EAAXAEBV?$shared_ptr@VISharedMutex@AdobeXMPCore_Int@@@std@@@Z 0000000180085240 f i NameSpacePrefixMapImpl.obj
 0001:0008425c       ?get@INameSpacePrefixMap_I@AdobeXMPCore_Int@@$R2GA@BM@PPPPPPPM@DI@EBAPEBVIUTF8String_v1@AdobeXMPCommon@@KPEBD_KAEAPEBVIError_v1@4@@Z 000000018008525c f i NameSpacePrefixMapImpl.obj
 0001:00084278       ?Acquire@SharedObjectImpl@AdobeXMPCore_Int@@$R4DA@CA@PPPPPPPM@CA@EBAXXZ 0000000180085278 f i NameSpacePrefixMapImpl.obj
 0001:00084294       ?GetPrefix@NameSpacePrefixMapImpl@AdobeXMPCore_Int@@$2PPPPPPPM@A@EBA?AV?$shared_ptr@$$CBVIUTF8String_v1@AdobeXMPCommon@@@std@@AEBV34@@Z 0000000180085294 f i NameSpacePrefixMapImpl.obj
 0001:000842a0       ?GetPrefix@NameSpacePrefixMapImpl@AdobeXMPCore_Int@@$2PPPPPPPM@A@EBA?AV?$shared_ptr@$$CBVIUTF8String_v1@AdobeXMPCommon@@@std@@PEBD_K@Z 00000001800852a0 f i NameSpacePrefixMapImpl.obj
 0001:000842ac       ?clone@INameSpacePrefixMap_I@AdobeXMPCore_Int@@$R2GA@BM@PPPPPPPM@DI@EBAPEAVINameSpacePrefixMap_v1@AdobeXMPCore@@AEAPEBVIError_v1@AdobeXMPCommon@@@Z 00000001800852ac f i NameSpacePrefixMapImpl.obj
 0001:000842c8       ?isPresent@INameSpacePrefixMap_I@AdobeXMPCore_Int@@$2PPPPPPPM@A@EBAKKPEBD_KAEAPEBVIError_v1@AdobeXMPCommon@@@Z 00000001800852c8 f i NameSpacePrefixMapImpl.obj
 0001:000842d4       ?Size@NameSpacePrefixMapImpl@AdobeXMPCore_Int@@$2PPPPPPPM@A@EBA_KXZ 00000001800852d4 f i NameSpacePrefixMapImpl.obj
 0001:000842e0       ?RemovePrefix@NameSpacePrefixMapImpl@AdobeXMPCore_Int@@$2PPPPPPPM@A@EAA_NPEBD_K@Z 00000001800852e0 f i NameSpacePrefixMapImpl.obj
 0001:000842ec       ?GetISharedObject_I@ISharedObject_I@AdobeXMPCommon_Int@@$R4DA@BE@PPPPPPPM@BA@EAAPEAV12@XZ 00000001800852ec f i NameSpacePrefixMapImpl.obj
 0001:00084308       ?get@INameSpacePrefixMap_I@AdobeXMPCore_Int@@$2PPPPPPPM@A@EBAPEBVIUTF8String_v1@AdobeXMPCommon@@KPEBD_KAEAPEBVIError_v1@4@@Z 0000000180085308 f i NameSpacePrefixMapImpl.obj
 0001:00084314       ?GetInterfacePointer@INameSpacePrefixMap_I@AdobeXMPCore_Int@@$4PPPPPPPM@A@EAAPEAX_KK@Z 0000000180085314 f i NameSpacePrefixMapImpl.obj
 0001:00084320       ?UnShareMutex@ThreadSafeImpl@AdobeXMPCore_Int@@$R2JI@CI@PPPPPPPM@DA@EAAXXZ 0000000180085320 f i NameSpacePrefixMapImpl.obj
 0001:0008433c       ?GetINameSpacePrefixMap_I@INameSpacePrefixMap_I@AdobeXMPCore_Int@@$R4GA@BM@PPPPPPPM@DI@EAAPEAV12@XZ 000000018008533c f i NameSpacePrefixMapImpl.obj
 0001:00084358       ?RemoveNameSpace@NameSpacePrefixMapImpl@AdobeXMPCore_Int@@$2PPPPPPPM@A@EAA_NPEBD_K@Z 0000000180085358 f i NameSpacePrefixMapImpl.obj
 0001:00084364       ?GetInterfacePointer@INameSpacePrefixMap_I@AdobeXMPCore_Int@@$R4EA@BM@PPPPPPPM@CA@EAAPEAX_KK@Z 0000000180085364 f i NameSpacePrefixMapImpl.obj
 0001:00084380       ?clone@INameSpacePrefixMap_I@AdobeXMPCore_Int@@$2PPPPPPPM@A@EBAPEAVINameSpacePrefixMap_v1@AdobeXMPCore@@AEAPEBVIError_v1@AdobeXMPCommon@@@Z 0000000180085380 f i NameSpacePrefixMapImpl.obj
 0001:0008438c       ??_EINameSpacePrefixMap_v1@AdobeXMPCore@@O7EAAPEAXI@Z 000000018008538c f i NameSpacePrefixMapImpl.obj
 0001:00084398       ??_ENameSpacePrefixMapImpl@AdobeXMPCore_Int@@$2PPPPPPPM@BA@EAAPEAXI@Z 0000000180085398 f i NameSpacePrefixMapImpl.obj
 0001:000843a8       ?Clear@NameSpacePrefixMapImpl@AdobeXMPCore_Int@@$2PPPPPPPM@A@EAAXXZ 00000001800853a8 f i NameSpacePrefixMapImpl.obj
 0001:000843b4       ??_EINameSpacePrefixMap_I@AdobeXMPCore_Int@@$2PPPPPPPM@BA@EAAPEAXI@Z 00000001800853b4 f i NameSpacePrefixMapImpl.obj
 0001:000843c4       ?IsNameSpacePresent@NameSpacePrefixMapImpl@AdobeXMPCore_Int@@$2PPPPPPPM@A@EBA_NPEBD_K@Z 00000001800853c4 f i NameSpacePrefixMapImpl.obj
 0001:000843d0       ?Release@SharedObjectImpl@AdobeXMPCore_Int@@$R4DA@CA@PPPPPPPM@CA@EBAXXZ 00000001800853d0 f i NameSpacePrefixMapImpl.obj
 0001:000843ec       ?Clone@NameSpacePrefixMapImpl@AdobeXMPCore_Int@@$2PPPPPPPM@A@EBA?AV?$shared_ptr@VINameSpacePrefixMap_v1@AdobeXMPCore@@@std@@XZ 00000001800853ec f i NameSpacePrefixMapImpl.obj
 0001:000843f8       ?Insert@NameSpacePrefixMapImpl@AdobeXMPCore_Int@@$2PPPPPPPM@A@EAA_NPEBD_K01@Z 00000001800853f8 f i NameSpacePrefixMapImpl.obj
 0001:00084404       ??_EINameSpacePrefixMap_v1@AdobeXMPCore@@OBA@EAAPEAXI@Z 0000000180085404 f i NameSpacePrefixMapImpl.obj
 0001:00084410       ?IsThreadSafe@ThreadSafeImpl@AdobeXMPCore_Int@@$R2FA@CI@PPPPPPPM@CA@EBA_NXZ 0000000180085410 f i NameSpacePrefixMapImpl.obj
 0001:0008442c       ?remove@INameSpacePrefixMap_I@AdobeXMPCore_Int@@$R2GA@BM@PPPPPPPM@DI@EAAKKPEBD_KAEAPEBVIError_v1@AdobeXMPCommon@@@Z 000000018008542c f i NameSpacePrefixMapImpl.obj
 0001:0008479c       ??0NodeImpl@AdobeXMPCore_Int@@QEAA@PEBD_K01@Z 000000018008579c f   NodeImpl.obj
 0001:0008494c       ?ChangeParent@NodeImpl@AdobeXMPCore_Int@@UEAAXPEAVINode_v1@AdobeXMPCore@@@Z 000000018008594c f   NodeImpl.obj
 0001:00084af4       ?GetRawParentPointer@NodeImpl@AdobeXMPCore_Int@@UEAAPEAVINode_v1@AdobeXMPCore@@XZ 0000000180085af4 f   NodeImpl.obj
 0001:00084b3c       ?GetParent@NodeImpl@AdobeXMPCore_Int@@UEAA?AV?$shared_ptr@VINode_v1@AdobeXMPCore@@@std@@XZ 0000000180085b3c f   NodeImpl.obj
 0001:00084bec       ?SetName@NodeImpl@AdobeXMPCore_Int@@UEAAXPEBD_K@Z 0000000180085bec f   NodeImpl.obj
 0001:000850e0       ?GetName@NodeImpl@AdobeXMPCore_Int@@UEBA?AV?$shared_ptr@$$CBVIUTF8String_v1@AdobeXMPCommon@@@std@@XZ 00000001800860e0 f   NodeImpl.obj
 0001:00085188       ?SetNameSpace@NodeImpl@AdobeXMPCore_Int@@UEAAXPEBD_K@Z 0000000180086188 f   NodeImpl.obj
 0001:0008567c       ?GetNameSpace@NodeImpl@AdobeXMPCore_Int@@UEBA?AV?$shared_ptr@$$CBVIUTF8String_v1@AdobeXMPCommon@@@std@@XZ 000000018008667c f   NodeImpl.obj
 0001:00085728       ?GetPath@NodeImpl@AdobeXMPCore_Int@@UEBA?AV?$shared_ptr@VIPath_v1@AdobeXMPCore@@@std@@XZ 0000000180086728 f   NodeImpl.obj
 0001:00085a40       ?GetQualifier@NodeImpl@AdobeXMPCore_Int@@UEAA?AV?$shared_ptr@VINode_v1@AdobeXMPCore@@@std@@PEBD_K01@Z 0000000180086a40 f   NodeImpl.obj
 0001:00085af8       ?GetQualifier@NodeImpl@AdobeXMPCore_Int@@UEAA?AV?$shared_ptr@VINode_v1@AdobeXMPCore@@@std@@AEBV?$shared_ptr@$$CBVIUTF8String_v1@AdobeXMPCommon@@@4@0@Z 0000000180086af8 f   NodeImpl.obj
 0001:00085ba4       ?InsertQualifier@NodeImpl@AdobeXMPCore_Int@@UEAAXAEBV?$shared_ptr@VINode_v1@AdobeXMPCore@@@std@@@Z 0000000180086ba4 f   NodeImpl.obj
 0001:00085bf4       ?ReplaceQualifier@NodeImpl@AdobeXMPCore_Int@@UEAA?AV?$shared_ptr@VINode_v1@AdobeXMPCore@@@std@@AEBV34@@Z 0000000180086bf4 f   NodeImpl.obj
 0001:00085c6c       ?RemoveQualifier@NodeImpl@AdobeXMPCore_Int@@UEAA?AV?$shared_ptr@VINode_v1@AdobeXMPCore@@@std@@PEBD_K01@Z 0000000180086c6c f   NodeImpl.obj
 0001:00085cdc       ?RemoveQualifier@NodeImpl@AdobeXMPCore_Int@@UEAA?AV?$shared_ptr@VINode_v1@AdobeXMPCore@@@std@@AEBV?$shared_ptr@$$CBVIUTF8String_v1@AdobeXMPCommon@@@4@0@Z 0000000180086cdc f   NodeImpl.obj
 0001:00085d4c       ?IsArrayItem@NodeImpl@AdobeXMPCore_Int@@UEBA_NXZ 0000000180086d4c f   NodeImpl.obj
 0001:00085d94       ?HasQualifiers@NodeImpl@AdobeXMPCore_Int@@UEBA_NXZ 0000000180086d94 f   NodeImpl.obj
 0001:00085e00       ?IsEmpty@NodeImpl@AdobeXMPCore_Int@@UEBA_NXZ 0000000180086e00 f   NodeImpl.obj
 0001:00085e64       ?HasChanged@NodeImpl@AdobeXMPCore_Int@@UEBA_NXZ 0000000180086e64 f   NodeImpl.obj
 0001:00085e70       ?AcknowledgeChanges@NodeImpl@AdobeXMPCore_Int@@UEBAXXZ 0000000180086e70 f   NodeImpl.obj
 0001:00085f74       ?Clear@NodeImpl@AdobeXMPCore_Int@@UEAAX_N0@Z 0000000180086f74 f   NodeImpl.obj
