 XMPFiles

 Timestamp is 69a93a9f (Thu Mar  5 09:11:11 2026)

 Preferred load address is 0000000180000000

 Start         Length     Name                   Class
 0001:00000000 000012b0H .text$di                CODE
 0001:000012b0 000b0170H .text$mn                CODE
 0001:000b1420 00000036H .text$mn$00             CODE
 0001:000b1456 0000485eH .text$x                 CODE
 0001:000b5cb4 000003a0H .text$yd                CODE
 0002:00000000 000006a0H .idata$5                DATA
 0002:000006a0 00000038H .00cfg                  DATA
 0002:000006d8 00000008H .CRT$XCA                DATA
 0002:000006e0 000002d8H .CRT$XCU                DATA
 0002:000009b8 00000008H .CRT$XCZ                DATA
 0002:000009c0 00000008H .CRT$XIA                DATA
 0002:000009c8 00000008H .CRT$XIC                DATA
 0002:000009d0 00000008H .CRT$XIZ                DATA
 0002:000009d8 00000008H .CRT$XLA                DATA
 0002:000009e0 00000008H .CRT$XLZ                DATA
 0002:000009e8 00000008H .CRT$XPA                DATA
 0002:000009f0 00000008H .CRT$XPZ                DATA
 0002:000009f8 00000008H .CRT$XTA                DATA
 0002:00000a00 00000020H .CRT$XTZ                DATA
 0002:00000a08 00000000H .gehcont$y              DATA
 0002:00000a08 00000000H .gfids$y                DATA
 0002:00000a20 0001ff60H .rdata                  DATA
 0002:00020980 00000000H .rdata$CastGuardVftablesA DATA
 0002:00020980 00000000H .rdata$CastGuardVftablesC DATA
 0002:00020980 00000030H .rdata$T                DATA
 0002:000209b0 000037ecH .rdata$r                DATA
 0002:0002419c 0000097cH .rdata$voltmd           DATA
 0002:00024b18 000003a0H .rdata$zzzdbg           DATA
 0002:00024eb8 00000008H .rtc$IAA                DATA
 0002:00024ec0 00000008H .rtc$IZZ                DATA
 0002:00024ec8 00000008H .rtc$TAA                DATA
 0002:00024ed0 00000008H .rtc$TZZ                DATA
 0002:00024ed8 00000004H .tls                    DATA
 0002:00024edc 00000004H .tls$                   DATA
 0002:00024ee0 00000008H .tls$ZZZ                DATA
 0002:00024ee8 0000d740H .xdata                  DATA
 0002:00032628 000002c8H .xdata$x                DATA
 0002:000328f0 000003d4H .edata                  DATA
 0002:00032cc4 00000118H .idata$2                DATA
 0002:00032ddc 00000014H .idata$3                DATA
 0002:00032df0 000006a0H .idata$4                DATA
 0002:00033490 0000116cH .idata$6                DATA
 0003:00000000 00000f70H .data                   DATA
 0003:00000f70 000003b0H .data$r                 DATA
 0003:00001320 000011a0H .data$rs                DATA
 0003:000024c0 00030ed8H .bss                    DATA
 0004:00000000 00006024H .pdata                  DATA
 0005:00000000 000000a0H .rsrc$01                DATA
 0005:000000a0 00000480H .rsrc$02                DATA

  Address         Publics by Value              Rva+Base               Lib:Object

 0000:00000000       __AbsoluteZero             0000000000000000     <absolute>
 0000:00000000       ___safe_se_handler_count   0000000000000000     <absolute>
 0000:00000000       ___safe_se_handler_table   0000000000000000     <absolute>
 0000:00000000       __arm64x_extra_rfe_table   0000000000000000     <absolute>
 0000:00000000       __arm64x_extra_rfe_table_size 0000000000000000     <absolute>
 0000:00000000       __arm64x_native_entrypoint 0000000000000000     <absolute>
 0000:00000000       __arm64x_redirection_metadata 0000000000000000     <absolute>
 0000:00000000       __arm64x_redirection_metadata_count 0000000000000000     <absolute>
 0000:00000000       __dynamic_value_reloc_table 0000000000000000     <absolute>
 0000:00000000       __enclave_config           0000000000000000     <absolute>
 0000:00000000       __guard_check_icall_a64n_fptr 0000000000000000     <absolute>
 0000:00000000       __guard_eh_cont_count      0000000000000000     <absolute>
 0000:00000000       __guard_eh_cont_table      0000000000000000     <absolute>
 0000:00000000       __guard_fids_count         0000000000000000     <absolute>
 0000:00000000       __guard_fids_table         0000000000000000     <absolute>
 0000:00000000       __guard_iat_count          0000000000000000     <absolute>
 0000:00000000       __guard_iat_table          0000000000000000     <absolute>
 0000:00000000       __guard_longjmp_count      0000000000000000     <absolute>
 0000:00000000       __guard_longjmp_table      0000000000000000     <absolute>
 0000:00000000       __hybrid_auxiliary_delayload_iat 0000000000000000     <absolute>
 0000:00000000       __hybrid_auxiliary_delayload_iat_copy 0000000000000000     <absolute>
 0000:00000000       __hybrid_auxiliary_iat     0000000000000000     <absolute>
 0000:00000000       __hybrid_auxiliary_iat_copy 0000000000000000     <absolute>
 0000:00000000       __hybrid_code_map          0000000000000000     <absolute>
 0000:00000000       __hybrid_code_map_count    0000000000000000     <absolute>
 0000:00000000       __hybrid_image_info_bitfield 0000000000000000     <absolute>
 0000:00000000       __x64_code_ranges_to_entry_points 0000000000000000     <absolute>
 0000:00000000       __x64_code_ranges_to_entry_points_count 0000000000000000     <absolute>
 0000:00000100       __guard_flags              0000000000000100     <absolute>
 0000:00000000       __ImageBase                0000000180000000     <linker-defined>
 0001:000012b0       adler32_z                  00000001800022b0 f   adler32.obj
 0001:0000163c       crc32_z                    000000018000263c f   crc32.obj
 0001:00001c60       deflateInit2_              0000000180002c60 f   deflate.obj
 0001:00001fc4       deflateReset               0000000180002fc4 f   deflate.obj
 0001:00002128       deflate                    0000000180003128 f   deflate.obj
 0001:00002aa0       deflateEnd                 0000000180003aa0 f   deflate.obj
 0001:00003ff8       inflate_fast               0000000180004ff8 f   inffast.obj
 0001:0000447c       inflateReset               000000018000547c f   inflate.obj
 0001:00004520       inflateInit2_              0000000180005520 f   inflate.obj
 0001:0000479c       inflate                    000000018000579c f   inflate.obj
 0001:00005d84       inflateEnd                 0000000180006d84 f   inflate.obj
 0001:00005de8       inflate_table              0000000180006de8 f   inftrees.obj
 0001:00007170       _tr_stored_block           0000000180008170 f   trees.obj
 0001:00007648       _tr_flush_block            0000000180008648 f   trees.obj
 0001:00007968       zcalloc                    0000000180008968 f   zutil.obj
 0001:00007978       zcfree                     0000000180008978 f   zutil.obj
 0001:00007984       ??0exception@std@@QEAA@AEBV01@@Z 0000000180008984 f i IReconcile.obj
 0001:000079b8       ?what@exception@std@@UEBAPEBDXZ 00000001800089b8 f i IReconcile.obj
 0001:000079cc       ??_EScanError@XMPScanner@@UEAAPEAXI@Z 00000001800089cc f i * CIL library *:* CIL module *
 0001:000079cc       ??_Ebad_alloc@std@@UEAAPEAXI@Z 00000001800089cc f i * CIL library *:* CIL module *
 0001:000079cc       ??_Ebad_array_new_length@std@@UEAAPEAXI@Z 00000001800089cc f i * CIL library *:* CIL module *
 0001:000079cc       ??_Eexception@std@@UEAAPEAXI@Z 00000001800089cc f i * CIL library *:* CIL module *
 0001:000079cc       ??_Elogic_error@std@@UEAAPEAXI@Z 00000001800089cc f i * CIL library *:* CIL module *
 0001:000079cc       ??_Eruntime_error@std@@UEAAPEAXI@Z 00000001800089cc f i * CIL library *:* CIL module *
 0001:000079cc       ??_GScanError@XMPScanner@@UEAAPEAXI@Z 00000001800089cc f i XMPScanner.obj
 0001:000079cc       ??_Gbad_alloc@std@@UEAAPEAXI@Z 00000001800089cc f i IReconcile.obj
 0001:000079cc       ??_Gbad_array_new_length@std@@UEAAPEAXI@Z 00000001800089cc f i IReconcile.obj
 0001:000079cc       ??_Gexception@std@@UEAAPEAXI@Z 00000001800089cc f i IReconcile.obj
 0001:000079cc       ??_Glogic_error@std@@UEAAPEAXI@Z 00000001800089cc f i XMPScanner.obj
 0001:000079cc       ??_Gruntime_error@std@@UEAAPEAXI@Z 00000001800089cc f i XMPScanner.obj
 0001:00007a10       ??1ScanError@XMPScanner@@UEAA@XZ 0000000180008a10 f i XMPScanner.obj
 0001:00007a10       ??1bad_alloc@std@@UEAA@XZ  0000000180008a10 f i IReconcile.obj
 0001:00007a10       ??1bad_array_new_length@std@@UEAA@XZ 0000000180008a10 f i IReconcile.obj
 0001:00007a10       ??1runtime_error@std@@UEAA@XZ 0000000180008a10 f i XMPScanner.obj
 0001:00007a28       ??0bad_array_new_length@std@@QEAA@XZ 0000000180008a28 f i IReconcile.obj
 0001:00007a4c       ?_Throw_bad_array_new_length@std@@YAXXZ 0000000180008a4c f i IReconcile.obj
 0001:00007a4c       ?__scrt_throw_std_bad_array_new_length@@YAXXZ 0000000180008a4c f i MSVCRT:throw_bad_alloc.obj
 0001:00007a6c       ??0bad_array_new_length@std@@QEAA@AEBV01@@Z 0000000180008a6c f i IReconcile.obj
 0001:00007aac       ??0bad_alloc@std@@QEAA@AEBV01@@Z 0000000180008aac f i IReconcile.obj
 0001:00007aec       ?_Xlen_string@std@@YAXXZ   0000000180008aec f i IReconcile.obj
 0001:00007b00       ??0XMP_Error@@QEAA@JPEBD@Z 0000000180008b00 f i IReconcile.obj
 0001:00007b10       ?_Throw_tree_length_error@std@@YAXXZ 0000000180008b10 f i IReconcile.obj
 0001:00007b24       ??1?$TValueObject@G@@UEAA@XZ 0000000180008b24 f i IReconcile.obj
 0001:00007b24       ??1?$TValueObject@J@@UEAA@XZ 0000000180008b24 f i IReconcile.obj
 0001:00007b24       ??1?$TValueObject@K@@UEAA@XZ 0000000180008b24 f i IReconcile.obj
 0001:00007b24       ??1?$TValueObject@_K@@UEAA@XZ 0000000180008b24 f i IReconcile.obj
 0001:00007b24       ??1?$TValueObject@_N@@UEAA@XZ 0000000180008b24 f i IReconcile.obj
 0001:00007b24       ??1ValueObject@@UEAA@XZ    0000000180008b24 f i IReconcile.obj
 0001:00007b30       ??_EValueObject@@UEAAPEAXI@Z 0000000180008b30 f i * CIL library *:* CIL module *
 0001:00007b30       ??_GValueObject@@UEAAPEAXI@Z 0000000180008b30 f i IReconcile.obj
 0001:00007b5c       ??_EBigEndian@@UEAAPEAXI@Z 0000000180008b5c f i * CIL library *:* CIL module *
 0001:00007b5c       ??_EIEndian@@UEAAPEAXI@Z   0000000180008b5c f i * CIL library *:* CIL module *
 0001:00007b5c       ??_ELittleEndian@@UEAAPEAXI@Z 0000000180008b5c f i * CIL library *:* CIL module *
 0001:00007b5c       ??_GBigEndian@@UEAAPEAXI@Z 0000000180008b5c f i AIFF_Handler.obj
 0001:00007b5c       ??_GIEndian@@UEAAPEAXI@Z   0000000180008b5c f i IReconcile.obj
 0001:00007b5c       ??_GLittleEndian@@UEAAPEAXI@Z 0000000180008b5c f i IReconcile.obj
 0001:00007b88       ?getInstance@LittleEndian@@SAAEBV1@XZ 0000000180008b88 f i IReconcile.obj
 0001:00007bf8       ?getUns16@LittleEndian@@UEBAGPEBX@Z 0000000180008bf8 f i IReconcile.obj
 0001:00007bfc       ?getUns32@LittleEndian@@UEBAKPEBX@Z 0000000180008bfc f i IReconcile.obj
 0001:00007c00       ?getUns64@LittleEndian@@UEBA_KPEBX@Z 0000000180008c00 f i IReconcile.obj
 0001:00007c04       ?getFloat@LittleEndian@@UEBAMPEBX@Z 0000000180008c04 f i IReconcile.obj
 0001:00007c0c       ?getDouble@LittleEndian@@UEBANPEBX@Z 0000000180008c0c f i IReconcile.obj
 0001:00007c14       ?putUns16@LittleEndian@@UEBAXGPEAX@Z 0000000180008c14 f i IReconcile.obj
 0001:00007c1c       ?putUns32@LittleEndian@@UEBAXKPEAX@Z 0000000180008c1c f i IReconcile.obj
 0001:00007c20       ?putUns64@LittleEndian@@UEBAX_KPEAX@Z 0000000180008c20 f i IReconcile.obj
 0001:00007c24       ?putFloat@LittleEndian@@UEBAXMPEAX@Z 0000000180008c24 f i IReconcile.obj
 0001:00007c2c       ?putDouble@LittleEndian@@UEBAXNPEAX@Z 0000000180008c2c f i IReconcile.obj
 0001:00007c34       ?importNativeToXMP@IReconcile@@KA_NAEAV?$TXMPMeta@V?$basic_string@DU?$char_traits@D@std@@V?$allocator@D@2@@std@@@@AEBVIMetadata@@PEBUMetadataPropertyInfo@@_N@Z 0000000180008c34 f   IReconcile.obj
 0001:0000811c       ?exportXMPToNative@IReconcile@@KA_NAEAVIMetadata@@AEAV?$TXMPMeta@V?$basic_string@DU?$char_traits@D@std@@V?$allocator@D@2@@std@@@@PEBUMetadataPropertyInfo@@PEAV?$vector@U?$pair@PEBDPEBD@std@@V?$allocator@U?$pair@PEBDPEBD@std@@@2@@std@@@Z 000000018000911c f   IReconcile.obj
 0001:0000897c       ?convertToASCII@IReconcile@@KAXAEBV?$basic_string@DU?$char_traits@D@std@@V?$allocator@D@2@@std@@AEAV23@@Z 000000018000997c f   IReconcile.obj
 0001:00008a5c       ??$getValue@V?$basic_string@DU?$char_traits@D@std@@V?$allocator@D@2@@std@@@IMetadata@@QEBAAEBV?$basic_string@DU?$char_traits@D@std@@V?$allocator@D@2@@std@@K@Z 0000000180009a5c f i IReconcile.obj
 0001:00008b14       ??$getValue@_K@IMetadata@@QEBAAEB_KK@Z 0000000180009b14 f i IReconcile.obj
 0001:00008bcc       ??$getValue@K@IMetadata@@QEBAAEBKK@Z 0000000180009bcc f i IReconcile.obj
 0001:00008c84       ??$getValue@J@IMetadata@@QEBAAEBJK@Z 0000000180009c84 f i IReconcile.obj
 0001:00008d3c       ??$getValue@G@IMetadata@@QEBAAEBGK@Z 0000000180009d3c f i IReconcile.obj
 0001:00008df4       ??$getValue@_N@IMetadata@@QEBAAEB_NK@Z 0000000180009df4 f i IReconcile.obj
 0001:00008eac       ??$setValue@V?$basic_string@DU?$char_traits@D@std@@V?$allocator@D@2@@std@@@IMetadata@@QEAAXKAEBV?$basic_string@DU?$char_traits@D@std@@V?$allocator@D@2@@std@@@Z 0000000180009eac f i IReconcile.obj
 0001:000090e8       ??$setValue@_K@IMetadata@@QEAAXKAEB_K@Z 000000018000a0e8 f i IReconcile.obj
 0001:00009294       ??$setValue@K@IMetadata@@QEAAXKAEBK@Z 000000018000a294 f i IReconcile.obj
 0001:00009434       ??$setValue@J@IMetadata@@QEAAXKAEBJ@Z 000000018000a434 f i IReconcile.obj
 0001:000095d4       ??$setValue@G@IMetadata@@QEAAXKAEBG@Z 000000018000a5d4 f i IReconcile.obj
 0001:00009780       ??$setValue@_N@IMetadata@@QEAAXKAEB_N@Z 000000018000a780 f i IReconcile.obj
 0001:00009920       ?reserve@?$basic_string@DU?$char_traits@D@std@@V?$allocator@D@2@@std@@QEAAX_K@Z 000000018000a920 f i IReconcile.obj
 0001:000099d4       ?size@?$basic_string@DU?$char_traits@D@std@@V?$allocator@D@2@@std@@QEBA_KXZ 000000018000a9d4 f i IReconcile.obj
 0001:000099dc       ?c_str@?$basic_string@DU?$char_traits@D@std@@V?$allocator@D@2@@std@@QEBAPEBDXZ 000000018000a9dc f i IReconcile.obj
 0001:000099ec       ?append@?$basic_string@DU?$char_traits@D@std@@V?$allocator@D@2@@std@@QEAAAEAV12@_KD@Z 000000018000a9ec f i IReconcile.obj
 0001:00009a64       ??4?$basic_string@DU?$char_traits@D@std@@V?$allocator@D@2@@std@@QEAAAEAV01@AEBV01@@Z 000000018000aa64 f i IReconcile.obj
 0001:00009ad0       ??1?$basic_string@DU?$char_traits@D@std@@V?$allocator@D@2@@std@@QEAA@XZ 000000018000aad0 f i IReconcile.obj
 0001:00009b44       ??0?$basic_string@DU?$char_traits@D@std@@V?$allocator@D@2@@std@@QEAA@XZ 000000018000ab44 f i IReconcile.obj
 0001:00009b64       ??$_Reallocate_grow_by@V<lambda_9013ee9e23efe4882b67eff5b0ecf103>@@$$V@?$basic_string@DU?$char_traits@D@std@@V?$allocator@D@2@@std@@AEAAAEAV01@_KV<lambda_9013ee9e23efe4882b67eff5b0ecf103>@@@Z 000000018000ab64 f i IReconcile.obj
 0001:00009c78       ??$_Reallocate_grow_by@V<lambda_e1befb086ad3257e3f042a63030725f7>@@_KD@?$basic_string@DU?$char_traits@D@std@@V?$allocator@D@2@@std@@AEAAAEAV01@_KV<lambda_e1befb086ad3257e3f042a63030725f7>@@_KD@Z 000000018000ac78 f i IReconcile.obj
 0001:00009dd0       ??1?$TValueObject@V?$basic_string@DU?$char_traits@D@std@@V?$allocator@D@2@@std@@@@UEAA@XZ 000000018000add0 f i IReconcile.obj
 0001:00009dfc       ??A?$map@KPEAVID3v2Frame@ID3_Support@@U?$less@K@std@@V?$allocator@U?$pair@$$CBKPEAVID3v2Frame@ID3_Support@@@std@@@4@@std@@QEAAAEAPEAVID3v2Frame@ID3_Support@@AEBK@Z 000000018000adfc f i MP3_Handler.obj
 0001:00009dfc       ??A?$map@KPEAVValueObject@@U?$less@K@std@@V?$allocator@U?$pair@$$CBKPEAVValueObject@@@std@@@3@@std@@QEAAAEAPEAVValueObject@@AEBK@Z 000000018000adfc f i IReconcile.obj
 0001:00009eec       ??_E?$TValueObject@G@@UEAAPEAXI@Z 000000018000aeec f i * CIL library *:* CIL module *
 0001:00009eec       ??_E?$TValueObject@J@@UEAAPEAXI@Z 000000018000aeec f i * CIL library *:* CIL module *
 0001:00009eec       ??_E?$TValueObject@K@@UEAAPEAXI@Z 000000018000aeec f i * CIL library *:* CIL module *
 0001:00009eec       ??_E?$TValueObject@_K@@UEAAPEAXI@Z 000000018000aeec f i * CIL library *:* CIL module *
 0001:00009eec       ??_E?$TValueObject@_N@@UEAAPEAXI@Z 000000018000aeec f i * CIL library *:* CIL module *
 0001:00009eec       ??_G?$TValueObject@G@@UEAAPEAXI@Z 000000018000aeec f i IReconcile.obj
 0001:00009eec       ??_G?$TValueObject@J@@UEAAPEAXI@Z 000000018000aeec f i IReconcile.obj
 0001:00009eec       ??_G?$TValueObject@K@@UEAAPEAXI@Z 000000018000aeec f i IReconcile.obj
 0001:00009eec       ??_G?$TValueObject@_K@@UEAAPEAXI@Z 000000018000aeec f i IReconcile.obj
 0001:00009eec       ??_G?$TValueObject@_N@@UEAAPEAXI@Z 000000018000aeec f i IReconcile.obj
 0001:00009f18       ??_E?$TValueObject@V?$basic_string@DU?$char_traits@D@std@@V?$allocator@D@2@@std@@@@UEAAPEAXI@Z 000000018000af18 f i * CIL library *:* CIL module *
 0001:00009f18       ??_G?$TValueObject@V?$basic_string@DU?$char_traits@D@std@@V?$allocator@D@2@@std@@@@UEAAPEAXI@Z 000000018000af18 f i IReconcile.obj
 0001:00009f64       ??$_Emplace_reallocate@U?$pair@PEBDPEBD@std@@@?$vector@U?$pair@PEBDPEBD@std@@V?$allocator@U?$pair@PEBDPEBD@std@@@2@@std@@AEAAPEAU?$pair@PEBDPEBD@1@QEAU21@$$QEAU21@@Z 000000018000af64 f i IReconcile.obj
 0001:00009f64       ??$_Emplace_reallocate@USpaceInfo@ISOBaseMedia_Manager@@@?$vector@USpaceInfo@ISOBaseMedia_Manager@@V?$allocator@USpaceInfo@ISOBaseMedia_Manager@@@std@@@std@@AEAAPEAUSpaceInfo@ISOBaseMedia_Manager@@QEAU23@$$QEAU23@@Z 000000018000af64 f i ISOBaseMedia_Support.obj
 0001:0000a0d4       ??$_Reallocate_for@V<lambda_66f57f934f28d61049862f64df852ff0>@@PEBD@?$basic_string@DU?$char_traits@D@std@@V?$allocator@D@2@@std@@AEAAAEAV01@_KV<lambda_66f57f934f28d61049862f64df852ff0>@@PEBD@Z 000000018000b0d4 f i IReconcile.obj
 0001:0000a1d4       ?_Xran@?$_String_val@U?$_Simple_types@D@std@@@std@@SAXXZ 000000018000b1d4 f i IReconcile.obj
 0001:0000a1e8       ?_Deallocate_for_capacity@?$basic_string@DU?$char_traits@D@std@@V?$allocator@D@2@@std@@CAXAEAV?$allocator@D@2@QEAD_K@Z 000000018000b1e8 f i IReconcile.obj
 0001:0000a23c       ??0?$basic_string@DU?$char_traits@D@std@@V?$allocator@D@2@@std@@QEAA@AEBV01@@Z 000000018000b23c f i IReconcile.obj
 0001:0000a310       ?_Insert_node@?$_Tree_val@U?$_Tree_simple_types@K@std@@@std@@QEAAPEAU?$_Tree_node@KPEAX@2@U?$_Tree_id@PEAU?$_Tree_node@KPEAX@std@@@2@QEAU32@@Z 000000018000b310 f i ISOBaseMedia_Support.obj
 0001:0000a310       ?_Insert_node@?$_Tree_val@U?$_Tree_simple_types@PEAVP2_Clip@@@std@@@std@@QEAAPEAU?$_Tree_node@PEAVP2_Clip@@PEAX@2@U?$_Tree_id@PEAU?$_Tree_node@PEAVP2_Clip@@PEAX@std@@@2@QEAU32@@Z 000000018000b310 f i P2_Support.obj
 0001:0000a310       ?_Insert_node@?$_Tree_val@U?$_Tree_simple_types@U?$pair@$$CBGUDataSetInfo@IPTC_Manager@@@std@@@std@@@std@@QEAAPEAU?$_Tree_node@U?$pair@$$CBGUDataSetInfo@IPTC_Manager@@@std@@PEAX@2@U?$_Tree_id@PEAU?$_Tree_node@U?$pair@$$CBGUDataSetInfo@IPTC_Manager@@@std@@PEAX@std@@@2@QEAU32@@Z 000000018000b310 f i IPTC_Support.obj
 0001:0000a310       ?_Insert_node@?$_Tree_val@U?$_Tree_simple_types@U?$pair@$$CBGUImgRsrcInfo@PSIR_Manager@@@std@@@std@@@std@@QEAAPEAU?$_Tree_node@U?$pair@$$CBGUImgRsrcInfo@PSIR_Manager@@@std@@PEAX@2@U?$_Tree_id@PEAU?$_Tree_node@U?$pair@$$CBGUImgRsrcInfo@PSIR_Manager@@@std@@PEAX@std@@@2@QEAU32@@Z 000000018000b310 f i PSIR_MemoryReader.obj
 0001:0000a310       ?_Insert_node@?$_Tree_val@U?$_Tree_simple_types@U?$pair@$$CBGUInternalRsrcInfo@PSIR_FileWriter@@@std@@@std@@@std@@QEAAPEAU?$_Tree_node@U?$pair@$$CBGUInternalRsrcInfo@PSIR_FileWriter@@@std@@PEAX@2@U?$_Tree_id@PEAU?$_Tree_node@U?$pair@$$CBGUInternalRsrcInfo@PSIR_FileWriter@@@std@@PEAX@std@@@2@QEAU32@@Z 000000018000b310 f i PSIR_FileWriter.obj
 0001:0000a310       ?_Insert_node@?$_Tree_val@U?$_Tree_simple_types@U?$pair@$$CBGUTagInfo@TIFF_Manager@@@std@@@std@@@std@@QEAAPEAU?$_Tree_node@U?$pair@$$CBGUTagInfo@TIFF_Manager@@@std@@PEAX@2@U?$_Tree_id@PEAU?$_Tree_node@U?$pair@$$CBGUTagInfo@TIFF_Manager@@@std@@PEAX@std@@@2@QEAU32@@Z 000000018000b310 f i TIFF_FileWriter.obj
 0001:0000a310       ?_Insert_node@?$_Tree_val@U?$_Tree_simple_types@U?$pair@$$CBGVInternalTagInfo@TIFF_FileWriter@@@std@@@std@@@std@@QEAAPEAU?$_Tree_node@U?$pair@$$CBGVInternalTagInfo@TIFF_FileWriter@@@std@@PEAX@2@U?$_Tree_id@PEAU?$_Tree_node@U?$pair@$$CBGVInternalTagInfo@TIFF_FileWriter@@@std@@PEAX@std@@@2@QEAU32@@Z 000000018000b310 f i TIFF_FileWriter.obj
 0001:0000a310       ?_Insert_node@?$_Tree_val@U?$_Tree_simple_types@U?$pair@$$CBKPEAUHostAPI@XMP_PLUGIN@@@std@@@std@@@std@@QEAAPEAU?$_Tree_node@U?$pair@$$CBKPEAUHostAPI@XMP_PLUGIN@@@std@@PEAX@2@U?$_Tree_id@PEAU?$_Tree_node@U?$pair@$$CBKPEAUHostAPI@XMP_PLUGIN@@@std@@PEAX@std@@@2@QEAU32@@Z 000000018000b310 f i PluginManager.obj
 0001:0000a310       ?_Insert_node@?$_Tree_val@U?$_Tree_simple_types@U?$pair@$$CBKPEAVID3v2Frame@ID3_Support@@@std@@@std@@@std@@QEAAPEAU?$_Tree_node@U?$pair@$$CBKPEAVID3v2Frame@ID3_Support@@@std@@PEAX@2@U?$_Tree_id@PEAU?$_Tree_node@U?$pair@$$CBKPEAVID3v2Frame@ID3_Support@@@std@@PEAX@std@@@2@QEAU32@@Z 000000018000b310 f i MP3_Handler.obj
 0001:0000a310       ?_Insert_node@?$_Tree_val@U?$_Tree_simple_types@U?$pair@$$CBKPEAVValueChunk@RIFF@@@std@@@std@@@std@@QEAAPEAU?$_Tree_node@U?$pair@$$CBKPEAVValueChunk@RIFF@@@std@@PEAX@2@U?$_Tree_id@PEAU?$_Tree_node@U?$pair@$$CBKPEAVValueChunk@RIFF@@@std@@PEAX@std@@@2@QEAU32@@Z 000000018000b310 f i RIFF.obj
 0001:0000a310       ?_Insert_node@?$_Tree_val@U?$_Tree_simple_types@U?$pair@$$CBKPEAVValueObject@@@std@@@std@@@std@@QEAAPEAU?$_Tree_node@U?$pair@$$CBKPEAVValueObject@@@std@@PEAX@2@U?$_Tree_id@PEAU?$_Tree_node@U?$pair@$$CBKPEAVValueObject@@@std@@PEAX@std@@@2@QEAU32@@Z 000000018000b310 f i IReconcile.obj
 0001:0000a310       ?_Insert_node@?$_Tree_val@U?$_Tree_simple_types@U?$pair@$$CBKUFileHandlerPair@XMP_PLUGIN@@@std@@@std@@@std@@QEAAPEAU?$_Tree_node@U?$pair@$$CBKUFileHandlerPair@XMP_PLUGIN@@@std@@PEAX@2@U?$_Tree_id@PEAU?$_Tree_node@U?$pair@$$CBKUFileHandlerPair@XMP_PLUGIN@@@std@@PEAX@std@@@2@QEAU32@@Z 000000018000b310 f i PluginManager.obj
 0001:0000a310       ?_Insert_node@?$_Tree_val@U?$_Tree_simple_types@U?$pair@$$CBKUParsedBoxInfo@TradQT_Manager@@@std@@@std@@@std@@QEAAPEAU?$_Tree_node@U?$pair@$$CBKUParsedBoxInfo@TradQT_Manager@@@std@@PEAX@2@U?$_Tree_id@PEAU?$_Tree_node@U?$pair@$$CBKUParsedBoxInfo@TradQT_Manager@@@std@@PEAX@std@@@2@QEAU32@@Z 000000018000b310 f i QuickTime_Support.obj
 0001:0000a310       ?_Insert_node@?$_Tree_val@U?$_Tree_simple_types@U?$pair@$$CBKUXMPFileHandlerInfo@Common@@@std@@@std@@@std@@QEAAPEAU?$_Tree_node@U?$pair@$$CBKUXMPFileHandlerInfo@Common@@@std@@PEAX@2@U?$_Tree_id@PEAU?$_Tree_node@U?$pair@$$CBKUXMPFileHandlerInfo@Common@@@std@@PEAX@std@@@2@QEAU32@@Z 000000018000b310 f i HandlerRegistry.obj
 0001:0000a310       ?_Insert_node@?$_Tree_val@U?$_Tree_simple_types@U?$pair@$$CBKV?$basic_string@DU?$char_traits@D@std@@V?$allocator@D@2@@std@@@std@@@std@@@std@@QEAAPEAU?$_Tree_node@U?$pair@$$CBKV?$basic_string@DU?$char_traits@D@std@@V?$allocator@D@2@@std@@@std@@PEAX@2@U?$_Tree_id@PEAU?$_Tree_node@U?$pair@$$CBKV?$basic_string@DU?$char_traits@D@std@@V?$allocator@D@2@@std@@@std@@PEAX@std@@@2@QEAU32@@Z 000000018000b310 f i JPEG_Handler.obj
 0001:0000a310       ?_Insert_node@?$_Tree_val@U?$_Tree_simple_types@U?$pair@$$CBUGUID_32@JPEG_MetaHandler@@UExtXMPContent@@@std@@@std@@@std@@QEAAPEAU?$_Tree_node@U?$pair@$$CBUGUID_32@JPEG_MetaHandler@@UExtXMPContent@@@std@@PEAX@2@U?$_Tree_id@PEAU?$_Tree_node@U?$pair@$$CBUGUID_32@JPEG_MetaHandler@@UExtXMPContent@@@std@@PEAX@std@@@2@QEAU32@@Z 000000018000b310 f i JPEG_Handler.obj
 0001:0000a310       ?_Insert_node@?$_Tree_val@U?$_Tree_simple_types@U?$pair@$$CBUGUID_32@JPEG_MetaHandler@@V?$basic_string@DU?$char_traits@D@std@@V?$allocator@D@2@@std@@@std@@@std@@@std@@QEAAPEAU?$_Tree_node@U?$pair@$$CBUGUID_32@JPEG_MetaHandler@@V?$basic_string@DU?$char_traits@D@std@@V?$allocator@D@2@@std@@@std@@PEAX@2@U?$_Tree_id@PEAU?$_Tree_node@U?$pair@$$CBUGUID_32@JPEG_MetaHandler@@V?$basic_string@DU?$char_traits@D@std@@V?$allocator@D@2@@std@@@std@@PEAX@std@@@2@QEAU32@@Z 000000018000b310 f i JPEG_Handler.obj
 0001:0000a310       ?_Insert_node@?$_Tree_val@U?$_Tree_simple_types@U?$pair@$$CBV?$basic_string@DU?$char_traits@D@std@@V?$allocator@D@2@@std@@K@std@@@std@@@std@@QEAAPEAU?$_Tree_node@U?$pair@$$CBV?$basic_string@DU?$char_traits@D@std@@V?$allocator@D@2@@std@@K@std@@PEAX@2@U?$_Tree_id@PEAU?$_Tree_node@U?$pair@$$CBV?$basic_string@DU?$char_traits@D@std@@V?$allocator@D@2@@std@@K@std@@PEAX@std@@@2@QEAU32@@Z 000000018000b310 f i XMPAtoms.obj
 0001:0000a310       ?_Insert_node@?$_Tree_val@U?$_Tree_simple_types@U?$pair@$$CBV?$basic_string@DU?$char_traits@D@std@@V?$allocator@D@2@@std@@UOffsetStruct@@@std@@@std@@@std@@QEAAPEAU?$_Tree_node@U?$pair@$$CBV?$basic_string@DU?$char_traits@D@std@@V?$allocator@D@2@@std@@UOffsetStruct@@@std@@PEAX@2@U?$_Tree_id@PEAU?$_Tree_node@U?$pair@$$CBV?$basic_string@DU?$char_traits@D@std@@V?$allocator@D@2@@std@@UOffsetStruct@@@std@@PEAX@std@@@2@QEAU32@@Z 000000018000b310 f i SVG_Adapter.obj
 0001:0000a310       ?_Insert_node@?$_Tree_val@U?$_Tree_simple_types@U?$pair@$$CBV?$basic_string@DU?$char_traits@D@std@@V?$allocator@D@2@@std@@V12@@std@@@std@@@std@@QEAAPEAU?$_Tree_node@U?$pair@$$CBV?$basic_string@DU?$char_traits@D@std@@V?$allocator@D@2@@std@@V12@@std@@PEAX@2@U?$_Tree_id@PEAU?$_Tree_node@U?$pair@$$CBV?$basic_string@DU?$char_traits@D@std@@V?$allocator@D@2@@std@@V12@@std@@PEAX@std@@@2@QEAU32@@Z 000000018000b310 f i XML_Node.obj
 0001:0000a310       ?_Insert_node@?$_Tree_val@U?$_Tree_simple_types@U?$pair@$$CBV?$basic_string@DU?$char_traits@D@std@@V?$allocator@D@2@@std@@_J@std@@@std@@@std@@QEAAPEAU?$_Tree_node@U?$pair@$$CBV?$basic_string@DU?$char_traits@D@std@@V?$allocator@D@2@@std@@_J@std@@PEAX@2@U?$_Tree_id@PEAU?$_Tree_node@U?$pair@$$CBV?$basic_string@DU?$char_traits@D@std@@V?$allocator@D@2@@std@@_J@std@@PEAX@std@@@2@QEAU32@@Z 000000018000b310 f i SVG_Adapter.obj
 0001:0000a310       ?_Insert_node@?$_Tree_val@U?$_Tree_simple_types@U?$pair@$$CB_KPEAULayoutInfo@@@std@@@std@@@std@@QEAAPEAU?$_Tree_node@U?$pair@$$CB_KPEAULayoutInfo@@@std@@PEAX@2@U?$_Tree_id@PEAU?$_Tree_node@U?$pair@$$CB_KPEAULayoutInfo@@@std@@PEAX@std@@@2@QEAU32@@Z 000000018000b310 f i MPEG4_Handler.obj
 0001:0000a310       ?_Insert_node@?$_Tree_val@U?$_Tree_simple_types@U?$pair@QEAXPEAVFileHandlerInstance@XMP_PLUGIN@@@std@@@std@@@std@@QEAAPEAU?$_Tree_node@U?$pair@QEAXPEAVFileHandlerInstance@XMP_PLUGIN@@@std@@PEAX@2@U?$_Tree_id@PEAU?$_Tree_node@U?$pair@QEAXPEAVFileHandlerInstance@XMP_PLUGIN@@@std@@PEAX@std@@@2@QEAU32@@Z 000000018000b310 f i PluginManager.obj
 0001:0000a310       ?_Insert_node@?$_Tree_val@U?$_Tree_simple_types@U?$pair@QEBDPEBD@std@@@std@@@std@@QEAAPEAU?$_Tree_node@U?$pair@QEBDPEBD@std@@PEAX@2@U?$_Tree_id@PEAU?$_Tree_node@U?$pair@QEBDPEBD@std@@PEAX@std@@@2@QEAU32@@Z 000000018000b310 f i ID3_Support.obj
 0001:0000a310       ?_Insert_node@?$_Tree_val@U?$_Tree_simple_types@V?$basic_string@DU?$char_traits@D@std@@V?$allocator@D@2@@std@@@std@@@std@@QEAAPEAU?$_Tree_node@V?$basic_string@DU?$char_traits@D@std@@V?$allocator@D@2@@std@@PEAX@2@U?$_Tree_id@PEAU?$_Tree_node@V?$basic_string@DU?$char_traits@D@std@@V?$allocator@D@2@@std@@PEAX@std@@@2@QEAU32@@Z 000000018000b310 f i P2_Support.obj
 0001:0000a53c       ?_Xlength@?$vector@EV?$allocator@E@std@@@std@@CAXXZ 000000018000b53c f i AVCHD_Handler.obj
 0001:0000a53c       ?_Xlength@?$vector@GV?$allocator@G@std@@@std@@CAXXZ 000000018000b53c f i ReconcileTIFF.obj
 0001:0000a53c       ?_Xlength@?$vector@KV?$allocator@K@std@@@std@@CAXXZ 000000018000b53c f i ChunkController.obj
 0001:0000a53c       ?_Xlength@?$vector@PEAVChunk@IFF_RIFF@@V?$allocator@PEAVChunk@IFF_RIFF@@@std@@@std@@CAXXZ 000000018000b53c f i Chunk.obj
 0001:0000a53c       ?_Xlength@?$vector@PEAVChunk@RIFF@@V?$allocator@PEAVChunk@RIFF@@@std@@@std@@CAXXZ 000000018000b53c f i RIFF.obj
 0001:0000a53c       ?_Xlength@?$vector@PEAVContainerChunk@RIFF@@V?$allocator@PEAVContainerChunk@RIFF@@@std@@@std@@CAXXZ 000000018000b53c f i RIFF_Handler.obj
 0001:0000a53c       ?_Xlength@?$vector@PEAVIChunkData@IFF_RIFF@@V?$allocator@PEAVIChunkData@IFF_RIFF@@@std@@@std@@CAXXZ 000000018000b53c f i ChunkController.obj
 0001:0000a53c       ?_Xlength@?$vector@PEAVID3v2Frame@ID3_Support@@V?$allocator@PEAVID3v2Frame@ID3_Support@@@std@@@std@@CAXXZ 000000018000b53c f i MP3_Handler.obj
 0001:0000a53c       ?_Xlength@?$vector@PEAVIMetadata@@V?$allocator@PEAVIMetadata@@@std@@@std@@CAXXZ 000000018000b53c f i MetadataSet.obj
 0001:0000a53c       ?_Xlength@?$vector@PEAVXML_Node@@V?$allocator@PEAVXML_Node@@@std@@@std@@CAXXZ 000000018000b53c f i XML_Node.obj
 0001:0000a53c       ?_Xlength@?$vector@PEBDV?$allocator@PEBD@std@@@std@@CAXXZ 000000018000b53c f i WXMPFiles.obj
 0001:0000a53c       ?_Xlength@?$vector@U?$pair@PEBDPEBD@std@@V?$allocator@U?$pair@PEBDPEBD@std@@@2@@std@@CAXXZ 000000018000b53c f i IReconcile.obj
 0001:0000a53c       ?_Xlength@?$vector@UBoxInfo@ISOBaseMedia_Manager@@V?$allocator@UBoxInfo@ISOBaseMedia_Manager@@@std@@@std@@CAXXZ 000000018000b53c f i MPEG4_Handler.obj
 0001:0000a53c       ?_Xlength@?$vector@UBoxNode@ISOBaseMedia_Manager@@V?$allocator@UBoxNode@ISOBaseMedia_Manager@@@std@@@std@@CAXXZ 000000018000b53c f i ISOBaseMedia_Support.obj
 0001:0000a53c       ?_Xlength@?$vector@UCandidateInfo@@V?$allocator@UCandidateInfo@@@std@@@std@@CAXXZ 000000018000b53c f i Scanner_Handler.obj
 0001:0000a53c       ?_Xlength@?$vector@UCheckFormat@XMP_PLUGIN@@V?$allocator@UCheckFormat@XMP_PLUGIN@@@std@@@std@@CAXXZ 000000018000b53c f i XMPAtoms.obj
 0001:0000a53c       ?_Xlength@?$vector@UChunkIdentifier@IFF_RIFF@@V?$allocator@UChunkIdentifier@IFF_RIFF@@@std@@@std@@CAXXZ 000000018000b53c f i ChunkPath.obj
 0001:0000a53c       ?_Xlength@?$vector@UChunkSize64@WAVEBehavior@IFF_RIFF@@V?$allocator@UChunkSize64@WAVEBehavior@IFF_RIFF@@@std@@@std@@CAXXZ 000000018000b53c f i WAVEBehavior.obj
 0001:0000a53c       ?_Xlength@?$vector@UDateTimeTokens@PostScript_Support@@V?$allocator@UDateTimeTokens@PostScript_Support@@@std@@@std@@CAXXZ 000000018000b53c f i PostScript_Support.obj
 0001:0000a53c       ?_Xlength@?$vector@UIOBuffer@@V?$allocator@UIOBuffer@@@std@@@std@@CAXXZ 000000018000b53c f i PostScript_Handler.obj
 0001:0000a53c       ?_Xlength@?$vector@ULayoutInfo@@V?$allocator@ULayoutInfo@@@std@@@std@@CAXXZ 000000018000b53c f i MPEG4_Handler.obj
 0001:0000a53c       ?_Xlength@?$vector@UOtherRsrcInfo@PSIR_FileWriter@@V?$allocator@UOtherRsrcInfo@PSIR_FileWriter@@@std@@@std@@CAXXZ 000000018000b53c f i PSIR_FileWriter.obj
 0001:0000a53c       ?_Xlength@?$vector@USnipInfo@XMPScanner@@V?$allocator@USnipInfo@XMPScanner@@@std@@@std@@CAXXZ 000000018000b53c f i PostScript_Handler.obj
 0001:0000a53c       ?_Xlength@?$vector@USpaceInfo@ISOBaseMedia_Manager@@V?$allocator@USpaceInfo@ISOBaseMedia_Manager@@@std@@@std@@CAXXZ 000000018000b53c f i ISOBaseMedia_Support.obj
 0001:0000a53c       ?_Xlength@?$vector@UValueInfo@TradQT_Manager@@V?$allocator@UValueInfo@TradQT_Manager@@@std@@@std@@CAXXZ 000000018000b53c f i QuickTime_Support.obj
 0001:0000a53c       ?_Xlength@?$vector@V?$basic_string@DU?$char_traits@D@std@@V?$allocator@D@2@@std@@V?$allocator@V?$basic_string@DU?$char_traits@D@std@@V?$allocator@D@2@@std@@@2@@std@@CAXXZ 000000018000b53c f i IOUtils.obj
 0001:0000a53c       ?_Xlength@?$vector@VCDFileHeader@UCF_MetaHandler@@V?$allocator@VCDFileHeader@UCF_MetaHandler@@@std@@@std@@CAXXZ 000000018000b53c f i UCF_Handler.obj
 0001:0000a53c       ?_Xlength@?$vector@VChunkData@PNG_Support@@V?$allocator@VChunkData@PNG_Support@@@std@@@std@@CAXXZ 000000018000b53c f i PNG_Support.obj
 0001:0000a53c       ?_Xlength@?$vector@VChunkPath@IFF_RIFF@@V?$allocator@VChunkPath@IFF_RIFF@@@std@@@std@@CAXXZ 000000018000b53c f i ChunkController.obj
 0001:0000a53c       ?_Xlength@?$vector@VObjectData@ASF_Support@@V?$allocator@VObjectData@ASF_Support@@@std@@@std@@CAXXZ 000000018000b53c f i ASF_Support.obj
 0001:0000a53c       ?_Xlength@?$vector@VTrackListInfo@iXMLMetadata@IFF_RIFF@@V?$allocator@VTrackListInfo@iXMLMetadata@IFF_RIFF@@@std@@@std@@CAXXZ 000000018000b53c f i WAVEReconcile.obj
 0001:0000a550       ??1?$_Alloc_construct_ptr@V?$allocator@U?$_Tree_node@U?$pair@$$CBKPEAUHostAPI@XMP_PLUGIN@@@std@@PEAX@std@@@std@@@std@@QEAA@XZ 000000018000b550 f i PluginManager.obj
 0001:0000a550       ??1?$_Alloc_construct_ptr@V?$allocator@U?$_Tree_node@U?$pair@$$CBKPEAVID3v2Frame@ID3_Support@@@std@@PEAX@std@@@std@@@std@@QEAA@XZ 000000018000b550 f i MP3_Handler.obj
 0001:0000a550       ??1?$_Alloc_construct_ptr@V?$allocator@U?$_Tree_node@U?$pair@$$CBKPEAVValueChunk@RIFF@@@std@@PEAX@std@@@std@@@std@@QEAA@XZ 000000018000b550 f i RIFF.obj
 0001:0000a550       ??1?$_Alloc_construct_ptr@V?$allocator@U?$_Tree_node@U?$pair@$$CBKPEAVValueObject@@@std@@PEAX@std@@@std@@@std@@QEAA@XZ 000000018000b550 f i IReconcile.obj
 0001:0000a550       ??1?$_Alloc_construct_ptr@V?$allocator@U?$_Tree_node@U?$pair@$$CB_KPEAULayoutInfo@@@std@@PEAX@std@@@std@@@std@@QEAA@XZ 000000018000b550 f i MPEG4_Handler.obj
 0001:0000a550       ??1?$_Alloc_construct_ptr@V?$allocator@U?$_Tree_node@U?$pair@QEAXPEAVFileHandlerInstance@XMP_PLUGIN@@@std@@PEAX@std@@@std@@@std@@QEAA@XZ 000000018000b550 f i PluginManager.obj
 0001:0000a550       ??1?$_Alloc_construct_ptr@V?$allocator@U?$_Tree_node@U?$pair@QEBDPEBD@std@@PEAX@std@@@std@@@std@@QEAA@XZ 000000018000b550 f i ID3_Support.obj
 0001:0000a56c       ??$_Allocate@$0BA@U_Default_allocate_traits@std@@@std@@YAPEAX_K@Z 000000018000b56c f i IReconcile.obj
 0001:0000a5d4       ??1MetadataSet@@QEAA@XZ    000000018000b5d4 f   MetadataSet.obj
 0001:0000a600       ?append@MetadataSet@@QEAAXPEAVIMetadata@@@Z 000000018000b600 f   MetadataSet.obj
 0001:0000a66c       ??1?$vector@PEAVChunk@IFF_RIFF@@V?$allocator@PEAVChunk@IFF_RIFF@@@std@@@std@@QEAA@XZ 000000018000b66c f i Chunk.obj
 0001:0000a66c       ??1?$vector@PEAVChunk@RIFF@@V?$allocator@PEAVChunk@RIFF@@@std@@@std@@QEAA@XZ 000000018000b66c f i RIFF.obj
 0001:0000a66c       ??1?$vector@PEAVContainerChunk@RIFF@@V?$allocator@PEAVContainerChunk@RIFF@@@std@@@std@@QEAA@XZ 000000018000b66c f i RIFF_Handler.obj
 0001:0000a66c       ??1?$vector@PEAVIChunkData@IFF_RIFF@@V?$allocator@PEAVIChunkData@IFF_RIFF@@@std@@@std@@QEAA@XZ 000000018000b66c f i ChunkController.obj
 0001:0000a66c       ??1?$vector@PEAVID3v2Frame@ID3_Support@@V?$allocator@PEAVID3v2Frame@ID3_Support@@@std@@@std@@QEAA@XZ 000000018000b66c f i MP3_Handler.obj
 0001:0000a66c       ??1?$vector@PEAVIMetadata@@V?$allocator@PEAVIMetadata@@@std@@@std@@QEAA@XZ 000000018000b66c f i MetadataSet.obj
 0001:0000a66c       ??1?$vector@PEAVXML_Node@@V?$allocator@PEAVXML_Node@@@std@@@std@@QEAA@XZ 000000018000b66c f i XML_Node.obj
 0001:0000a66c       ??1?$vector@PEBDV?$allocator@PEBD@std@@@std@@QEAA@XZ 000000018000b66c f i WXMPFiles.obj
 0001:0000a66c       ??1?$vector@UChunkIdentifier@IFF_RIFF@@V?$allocator@UChunkIdentifier@IFF_RIFF@@@std@@@std@@QEAA@XZ 000000018000b66c f i ChunkPath.obj
 0001:0000a66c       ??1?$vector@UOtherRsrcInfo@PSIR_FileWriter@@V?$allocator@UOtherRsrcInfo@PSIR_FileWriter@@@std@@@std@@QEAA@XZ 000000018000b66c f i JPEG_Handler.obj
 0001:0000a6e8       ??$_Emplace_reallocate@AEBQEAVChunk@IFF_RIFF@@@?$vector@PEAVChunk@IFF_RIFF@@V?$allocator@PEAVChunk@IFF_RIFF@@@std@@@std@@AEAAPEAPEAVChunk@IFF_RIFF@@QEAPEAV23@AEBQEAV23@@Z 000000018000b6e8 f i Chunk.obj
 0001:0000a6e8       ??$_Emplace_reallocate@AEBQEAVID3v2Frame@ID3_Support@@@?$vector@PEAVID3v2Frame@ID3_Support@@V?$allocator@PEAVID3v2Frame@ID3_Support@@@std@@@std@@AEAAPEAPEAVID3v2Frame@ID3_Support@@QEAPEAV23@AEBQEAV23@@Z 000000018000b6e8 f i MP3_Handler.obj
 0001:0000a6e8       ??$_Emplace_reallocate@AEBQEAVIMetadata@@@?$vector@PEAVIMetadata@@V?$allocator@PEAVIMetadata@@@std@@@std@@AEAAPEAPEAVIMetadata@@QEAPEAV2@AEBQEAV2@@Z 000000018000b6e8 f i MetadataSet.obj
 0001:0000a6e8       ??$_Emplace_reallocate@AEBUChunkIdentifier@IFF_RIFF@@@?$vector@UChunkIdentifier@IFF_RIFF@@V?$allocator@UChunkIdentifier@IFF_RIFF@@@std@@@std@@AEAAPEAUChunkIdentifier@IFF_RIFF@@QEAU23@AEBU23@@Z 000000018000b6e8 f i ChunkPath.obj
 0001:0000a6e8       ??$_Emplace_reallocate@PEAVContainerChunk@RIFF@@@?$vector@PEAVContainerChunk@RIFF@@V?$allocator@PEAVContainerChunk@RIFF@@@std@@@std@@AEAAPEAPEAVContainerChunk@RIFF@@QEAPEAV23@$$QEAPEAV23@@Z 000000018000b6e8 f i RIFF_Handler.obj
 0001:0000a6e8       ??$_Emplace_reallocate@PEAVIChunkData@IFF_RIFF@@@?$vector@PEAVIChunkData@IFF_RIFF@@V?$allocator@PEAVIChunkData@IFF_RIFF@@@std@@@std@@AEAAPEAPEAVIChunkData@IFF_RIFF@@QEAPEAV23@$$QEAPEAV23@@Z 000000018000b6e8 f i ChunkController.obj
 0001:0000a6e8       ??$_Emplace_reallocate@UOtherRsrcInfo@PSIR_FileWriter@@@?$vector@UOtherRsrcInfo@PSIR_FileWriter@@V?$allocator@UOtherRsrcInfo@PSIR_FileWriter@@@std@@@std@@AEAAPEAUOtherRsrcInfo@PSIR_FileWriter@@QEAU23@$$QEAU23@@Z 000000018000b6e8 f i PSIR_FileWriter.obj
 0001:0000a858       ?MD5Update@@YAXPEAUMD5_CTX@@PEAEK@Z 000000018000b858 f   MD5.obj
 0001:0000a91c       ?MD5Final@@YAXQEAEPEAUMD5_CTX@@@Z 000000018000b91c f   MD5.obj
 0001:0000b324       ?ToUTF16@@YAXPEBE_KPEAV?$basic_string@DU?$char_traits@D@std@@V?$allocator@D@2@@std@@_N@Z 000000018000c324 f   UnicodeConversions.obj
 0001:0000b41c       ?ToUTF16Native@@YAXPEBE_KPEAV?$basic_string@DU?$char_traits@D@std@@V?$allocator@D@2@@std@@@Z 000000018000c41c f   UnicodeConversions.obj
 0001:0000b504       ?FromUTF16@@YAXPEBG_KPEAV?$basic_string@DU?$char_traits@D@std@@V?$allocator@D@2@@std@@_N@Z 000000018000c504 f   UnicodeConversions.obj
 0001:0000b608       ?FromUTF16Native@@YAXPEBG_KPEAV?$basic_string@DU?$char_traits@D@std@@V?$allocator@D@2@@std@@@Z 000000018000c608 f   UnicodeConversions.obj
 0001:0000c098       ?append@?$basic_string@DU?$char_traits@D@std@@V?$allocator@D@2@@std@@QEAAAEAV12@QEBD_K@Z 000000018000d098 f i UnicodeConversions.obj
 0001:0000c10c       ??$_Reallocate_grow_by@V<lambda_65e615be2a453ca0576c979606f46740>@@PEBD_K@?$basic_string@DU?$char_traits@D@std@@V?$allocator@D@2@@std@@AEAAAEAV01@_KV<lambda_65e615be2a453ca0576c979606f46740>@@PEBD_K@Z 000000018000d10c f i UnicodeConversions.obj
 0001:0000c26c       ?getInstance@HandlerRegistry@Common@@SAAEAV12@XZ 000000018000d26c f   HandlerRegistry.obj
 0001:0000c2a0       ??0HandlerRegistry@Common@@AEAA@XZ 000000018000d2a0 f   HandlerRegistry.obj
 0001:0000c3cc       ??1HandlerRegistry@Common@@AEAA@XZ 000000018000d3cc f   HandlerRegistry.obj
 0001:0000c538       ?initialize@HandlerRegistry@Common@@QEAAXXZ 000000018000d538 f   HandlerRegistry.obj
 0001:0000ca80       ?registerFolderHandler@HandlerRegistry@Common@@QEAA_NKKP6A_NKAEBV?$basic_string@DU?$char_traits@D@std@@V?$allocator@D@2@@std@@000PEAVXMPFiles@@@ZP6APEAVXMPFileHandler@@1@Z_N@Z 000000018000da80 f   HandlerRegistry.obj
 0001:0000cb88       ?registerNormalHandler@HandlerRegistry@Common@@QEAA_NKKP6A_NKPEBDPEAVXMP_IO@@PEAVXMPFiles@@@ZP6APEAVXMPFileHandler@@2@Z_N@Z 000000018000db88 f   HandlerRegistry.obj
 0001:0000cc90       ?registerOwningHandler@HandlerRegistry@Common@@QEAA_NKKP6A_NKPEBDPEAVXMP_IO@@PEAVXMPFiles@@@ZP6APEAVXMPFileHandler@@2@Z_N@Z 000000018000dc90 f   HandlerRegistry.obj
 0001:0000cd98       ?removeHandler@HandlerRegistry@Common@@QEAAXK@Z 000000018000dd98 f   HandlerRegistry.obj
 0001:0000cf20       ?getFileFormat@HandlerRegistry@Common@@QEAAKAEBV?$basic_string@DU?$char_traits@D@std@@V?$allocator@D@2@@std@@_N@Z 000000018000df20 f   HandlerRegistry.obj
 0001:0000d0e0       ?getHandlerInfo@HandlerRegistry@Common@@QEAAPEAUXMPFileHandlerInfo@2@K@Z 000000018000e0e0 f   HandlerRegistry.obj
 0001:0000d1ac       ?getStandardHandlerInfo@HandlerRegistry@Common@@QEAAPEAUXMPFileHandlerInfo@2@K@Z 000000018000e1ac f   HandlerRegistry.obj
 0001:0000d1f4       ?isReplaced@HandlerRegistry@Common@@QEAA_NK@Z 000000018000e1f4 f   HandlerRegistry.obj
 0001:0000d234       ?pickDefaultHandler@HandlerRegistry@Common@@AEAAPEAUXMPFileHandlerInfo@2@KAEBV?$basic_string@DU?$char_traits@D@std@@V?$allocator@D@2@@std@@@Z 000000018000e234 f   HandlerRegistry.obj
 0001:0000d328       ?selectSmartHandler@HandlerRegistry@Common@@QEAAPEAUXMPFileHandlerInfo@2@PEAVXMPFiles@@PEBDKK@Z 000000018000e328 f   HandlerRegistry.obj
 0001:0000dc10       ?tryFolderHandlers@HandlerRegistry@Common@@AEAAPEAUXMPFileHandlerInfo@2@KAEBV?$basic_string@DU?$char_traits@D@std@@V?$allocator@D@2@@std@@000PEAVXMPFiles@@@Z 000000018000ec10 f   HandlerRegistry.obj
 0001:0000dd6c       ?checkTopFolderName@HandlerRegistry@Common@@SAKAEBV?$basic_string@DU?$char_traits@D@std@@V?$allocator@D@2@@std@@@Z 000000018000ed6c f   HandlerRegistry.obj
 0001:0000e11c       ?checkParentFolderNames@HandlerRegistry@Common@@SAKAEBV?$basic_string@DU?$char_traits@D@std@@V?$allocator@D@2@@std@@000@Z 000000018000f11c f   HandlerRegistry.obj
 0001:0000e6d8       ??$_Construct@$00PEBD@?$basic_string@DU?$char_traits@D@std@@V?$allocator@D@2@@std@@AEAAXQEBD_K@Z 000000018000f6d8 f i HandlerRegistry.obj
 0001:0000e794       ?assign@?$basic_string@DU?$char_traits@D@std@@V?$allocator@D@2@@std@@QEAAAEAV12@QEBD@Z 000000018000f794 f i HandlerRegistry.obj
 0001:0000e800       ??$_Emplace_hint@U?$pair@KUXMPFileHandlerInfo@Common@@@std@@@?$_Tree@V?$_Tmap_traits@KUXMPFileHandlerInfo@Common@@U?$less@K@std@@V?$allocator@U?$pair@$$CBKUXMPFileHandlerInfo@Common@@@std@@@4@$0A@@std@@@std@@IEAAPEAU?$_Tree_node@U?$pair@$$CBKUXMPFileHandlerInfo@Common@@@std@@PEAX@1@QEAU21@$$QEAU?$pair@KUXMPFileHandlerInfo@Common@@@1@@Z 000000018000f800 f i HandlerRegistry.obj
 0001:0000ea64       ??$_Erase_tree@V?$allocator@U?$_Tree_node@U?$pair@$$CBGUImgRsrcInfo@PSIR_Manager@@@std@@PEAX@std@@@std@@@?$_Tree_val@U?$_Tree_simple_types@U?$pair@$$CBGUImgRsrcInfo@PSIR_Manager@@@std@@@std@@@std@@QEAAXAEAV?$allocator@U?$_Tree_node@U?$pair@$$CBGUImgRsrcInfo@PSIR_Manager@@@std@@PEAX@std@@@1@PEAU?$_Tree_node@U?$pair@$$CBGUImgRsrcInfo@PSIR_Manager@@@std@@PEAX@1@@Z 000000018000fa64 f i JPEG_Handler.obj
 0001:0000ea64       ??$_Erase_tree@V?$allocator@U?$_Tree_node@U?$pair@$$CBGUTagInfo@TIFF_Manager@@@std@@PEAX@std@@@std@@@?$_Tree_val@U?$_Tree_simple_types@U?$pair@$$CBGUTagInfo@TIFF_Manager@@@std@@@std@@@std@@QEAAXAEAV?$allocator@U?$_Tree_node@U?$pair@$$CBGUTagInfo@TIFF_Manager@@@std@@PEAX@std@@@1@PEAU?$_Tree_node@U?$pair@$$CBGUTagInfo@TIFF_Manager@@@std@@PEAX@1@@Z 000000018000fa64 f i JPEG_Handler.obj
 0001:0000ea64       ??$_Erase_tree@V?$allocator@U?$_Tree_node@U?$pair@$$CBKUXMPFileHandlerInfo@Common@@@std@@PEAX@std@@@std@@@?$_Tree_val@U?$_Tree_simple_types@U?$pair@$$CBKUXMPFileHandlerInfo@Common@@@std@@@std@@@std@@QEAAXAEAV?$allocator@U?$_Tree_node@U?$pair@$$CBKUXMPFileHandlerInfo@Common@@@std@@PEAX@std@@@1@PEAU?$_Tree_node@U?$pair@$$CBKUXMPFileHandlerInfo@Common@@@std@@PEAX@1@@Z 000000018000fa64 f i HandlerRegistry.obj
 0001:0000eab8       ??$_Reallocate_grow_by@V<lambda_319d5e083f45f90dcdce5dce53cbb275>@@D@?$basic_string@DU?$char_traits@D@std@@V?$allocator@D@2@@std@@AEAAAEAV01@_KV<lambda_319d5e083f45f90dcdce5dce53cbb275>@@D@Z 000000018000fab8 f i HandlerRegistry.obj
 0001:0000ebf0       ?_Extract@?$_Tree_val@U?$_Tree_simple_types@U?$pair@$$CBGUDataSetInfo@IPTC_Manager@@@std@@@std@@@std@@QEAAPEAU?$_Tree_node@U?$pair@$$CBGUDataSetInfo@IPTC_Manager@@@std@@PEAX@2@V?$_Tree_unchecked_const_iterator@V?$_Tree_val@U?$_Tree_simple_types@U?$pair@$$CBGUDataSetInfo@IPTC_Manager@@@std@@@std@@@std@@U_Iterator_base0@2@@2@@Z 000000018000fbf0 f i IPTC_Support.obj
 0001:0000ebf0       ?_Extract@?$_Tree_val@U?$_Tree_simple_types@U?$pair@$$CBGUInternalRsrcInfo@PSIR_FileWriter@@@std@@@std@@@std@@QEAAPEAU?$_Tree_node@U?$pair@$$CBGUInternalRsrcInfo@PSIR_FileWriter@@@std@@PEAX@2@V?$_Tree_unchecked_const_iterator@V?$_Tree_val@U?$_Tree_simple_types@U?$pair@$$CBGUInternalRsrcInfo@PSIR_FileWriter@@@std@@@std@@@std@@U_Iterator_base0@2@@2@@Z 000000018000fbf0 f i PSIR_FileWriter.obj
 0001:0000ebf0       ?_Extract@?$_Tree_val@U?$_Tree_simple_types@U?$pair@$$CBGVInternalTagInfo@TIFF_FileWriter@@@std@@@std@@@std@@QEAAPEAU?$_Tree_node@U?$pair@$$CBGVInternalTagInfo@TIFF_FileWriter@@@std@@PEAX@2@V?$_Tree_unchecked_const_iterator@V?$_Tree_val@U?$_Tree_simple_types@U?$pair@$$CBGVInternalTagInfo@TIFF_FileWriter@@@std@@@std@@@std@@U_Iterator_base0@2@@2@@Z 000000018000fbf0 f i TIFF_FileWriter.obj
 0001:0000ebf0       ?_Extract@?$_Tree_val@U?$_Tree_simple_types@U?$pair@$$CBKPEAVValueChunk@RIFF@@@std@@@std@@@std@@QEAAPEAU?$_Tree_node@U?$pair@$$CBKPEAVValueChunk@RIFF@@@std@@PEAX@2@V?$_Tree_unchecked_const_iterator@V?$_Tree_val@U?$_Tree_simple_types@U?$pair@$$CBKPEAVValueChunk@RIFF@@@std@@@std@@@std@@U_Iterator_base0@2@@2@@Z 000000018000fbf0 f i RIFF.obj
 0001:0000ebf0       ?_Extract@?$_Tree_val@U?$_Tree_simple_types@U?$pair@$$CBKPEAVValueObject@@@std@@@std@@@std@@QEAAPEAU?$_Tree_node@U?$pair@$$CBKPEAVValueObject@@@std@@PEAX@2@V?$_Tree_unchecked_const_iterator@V?$_Tree_val@U?$_Tree_simple_types@U?$pair@$$CBKPEAVValueObject@@@std@@@std@@@std@@U_Iterator_base0@2@@2@@Z 000000018000fbf0 f i IMetadata.cpp.obj
 0001:0000ebf0       ?_Extract@?$_Tree_val@U?$_Tree_simple_types@U?$pair@$$CBKUParsedBoxInfo@TradQT_Manager@@@std@@@std@@@std@@QEAAPEAU?$_Tree_node@U?$pair@$$CBKUParsedBoxInfo@TradQT_Manager@@@std@@PEAX@2@V?$_Tree_unchecked_const_iterator@V?$_Tree_val@U?$_Tree_simple_types@U?$pair@$$CBKUParsedBoxInfo@TradQT_Manager@@@std@@@std@@@std@@U_Iterator_base0@2@@2@@Z 000000018000fbf0 f i QuickTime_Support.obj
 0001:0000ebf0       ?_Extract@?$_Tree_val@U?$_Tree_simple_types@U?$pair@$$CBKUXMPFileHandlerInfo@Common@@@std@@@std@@@std@@QEAAPEAU?$_Tree_node@U?$pair@$$CBKUXMPFileHandlerInfo@Common@@@std@@PEAX@2@V?$_Tree_unchecked_const_iterator@V?$_Tree_val@U?$_Tree_simple_types@U?$pair@$$CBKUXMPFileHandlerInfo@Common@@@std@@@std@@@std@@U_Iterator_base0@2@@2@@Z 000000018000fbf0 f i HandlerRegistry.obj
 0001:0000ebf0       ?_Extract@?$_Tree_val@U?$_Tree_simple_types@U?$pair@QEAXPEAVFileHandlerInstance@XMP_PLUGIN@@@std@@@std@@@std@@QEAAPEAU?$_Tree_node@U?$pair@QEAXPEAVFileHandlerInstance@XMP_PLUGIN@@@std@@PEAX@2@V?$_Tree_unchecked_const_iterator@V?$_Tree_val@U?$_Tree_simple_types@U?$pair@QEAXPEAVFileHandlerInstance@XMP_PLUGIN@@@std@@@std@@@std@@U_Iterator_base0@2@@2@@Z 000000018000fbf0 f i PluginManager.obj
 0001:0000f068       ??1?$_Alloc_construct_ptr@V?$allocator@U?$_List_node@VInternalSnip@XMPScanner@@PEAX@std@@@std@@@std@@QEAA@XZ 0000000180010068 f i XMPScanner.obj
 0001:0000f068       ??1?$_Alloc_construct_ptr@V?$allocator@U?$_Tree_node@U?$pair@$$CBGUImgRsrcInfo@PSIR_Manager@@@std@@PEAX@std@@@std@@@std@@QEAA@XZ 0000000180010068 f i PSIR_MemoryReader.obj
 0001:0000f068       ??1?$_Alloc_construct_ptr@V?$allocator@U?$_Tree_node@U?$pair@$$CBGUTagInfo@TIFF_Manager@@@std@@PEAX@std@@@std@@@std@@QEAA@XZ 0000000180010068 f i TIFF_FileWriter.obj
 0001:0000f068       ??1?$_Alloc_construct_ptr@V?$allocator@U?$_Tree_node@U?$pair@$$CBKUXMPFileHandlerInfo@Common@@@std@@PEAX@std@@@std@@@std@@QEAA@XZ 0000000180010068 f i HandlerRegistry.obj
 0001:0000f068       ??1?$_Alloc_construct_ptr@V?$allocator@U?$_Tree_node@V?$basic_string@DU?$char_traits@D@std@@V?$allocator@D@2@@std@@PEAX@std@@@std@@@std@@QEAA@XZ 0000000180010068 f i P2_Support.obj
 0001:0000f068       ??1?$_Tree_temp_node_alloc@V?$allocator@U?$_Tree_node@V?$basic_string@DU?$char_traits@D@std@@V?$allocator@D@2@@std@@PEAX@std@@@std@@@std@@QEAA@XZ 0000000180010068 f i P2_Support.obj
 0001:0000f084       __local_stdio_printf_options 0000000180010084 f i SafeStringAPIs.obj
 0001:0000f08c       _snprintf                  000000018001008c f i PerfUtils.obj
 0001:0000f0e8       ?NoteThisMoment@PerfUtils@@YA_JXZ 00000001800100e8 f   PerfUtils.obj
 0001:0000f130       ?GetElapsedSeconds@PerfUtils@@YAN_J0@Z 0000000180010130 f   PerfUtils.obj
 0001:0000f19c       ??1XMP_AutoLock@@QEAA@XZ   000000018001019c f i WXMPFiles.obj
 0001:0000f1d4       WXMPFiles_GetVersionInfo_1 00000001800101d4 f   WXMPFiles.obj
 0001:0000f1f0       WXMPFiles_Initialize_1     00000001800101f0 f   WXMPFiles.obj
 0001:0000f220       WXMPFiles_Initialize_2     0000000180010220 f   WXMPFiles.obj
 0001:0000f24c       WXMPFiles_Terminate_1      000000018001024c f   WXMPFiles.obj
 0001:0000f268       WXMPFiles_CTor_1           0000000180010268 f   WXMPFiles.obj
 0001:0000f2a8       WXMPFiles_IncrementRefCount_1 00000001800102a8 f   WXMPFiles.obj
 0001:0000f344       WXMPFiles_DecrementRefCount_1 0000000180010344 f   WXMPFiles.obj
 0001:0000f424       WXMPFiles_GetFormatInfo_1  0000000180010424 f   WXMPFiles.obj
 0001:0000f450       WXMPFiles_CheckFileFormat_1 0000000180010450 f   WXMPFiles.obj
 0001:0000f478       WXMPFiles_CheckPackageFormat_1 0000000180010478 f   WXMPFiles.obj
 0001:0000f4a0       WXMPFiles_GetFileModDate_1 00000001800104a0 f   WXMPFiles.obj
 0001:0000f4c8       WXMPFiles_GetAssociatedResources_1 00000001800104c8 f   WXMPFiles.obj
 0001:0000f648       WXMPFiles_IsMetadataWritable_1 0000000180010648 f   WXMPFiles.obj
 0001:0000f670       WXMPFiles_OpenFile_1       0000000180010670 f   WXMPFiles.obj
 0001:0000f750       WXMPFiles_CloseFile_1      0000000180010750 f   WXMPFiles.obj
 0001:0000f804       WXMPFiles_GetFileInfo_1    0000000180010804 f   WXMPFiles.obj
 0001:0000f924       WXMPFiles_SetAbortProc_1   0000000180010924 f   WXMPFiles.obj
 0001:0000f9e8       WXMPFiles_GetXMP_1         00000001800109e8 f   WXMPFiles.obj
 0001:0000fb68       WXMPFiles_PutXMP_1         0000000180010b68 f   WXMPFiles.obj
 0001:0000fc6c       WXMPFiles_CanPutXMP_1      0000000180010c6c f   WXMPFiles.obj
 0001:0000fd7c       WXMPFiles_SetDefaultProgressCallback_1 0000000180010d7c f   WXMPFiles.obj
 0001:0000fdc4       WXMPFiles_SetProgressCallback_1 0000000180010dc4 f   WXMPFiles.obj
 0001:0000febc       WXMPFiles_SetDefaultErrorCallback_1 0000000180010ebc f   WXMPFiles.obj
 0001:0000fedc       WXMPFiles_SetErrorCallback_1 0000000180010edc f   WXMPFiles.obj
 0001:0000ffc0       WXMPFiles_ResetErrorCallbackLimit_1 0000000180010fc0 f   WXMPFiles.obj
 0001:00010074       ?reserve@?$vector@PEBDV?$allocator@PEBD@std@@@std@@QEAAX_K@Z 0000000180011074 f i WXMPFiles.obj
 0001:00010108       ??1?$vector@V?$basic_string@DU?$char_traits@D@std@@V?$allocator@D@2@@std@@V?$allocator@V?$basic_string@DU?$char_traits@D@std@@V?$allocator@D@2@@std@@@2@@std@@QEAA@XZ 0000000180011108 f i WXMPFiles.obj
 0001:00010110       ?_Tidy@?$vector@V?$basic_string@DU?$char_traits@D@std@@V?$allocator@D@2@@std@@V?$allocator@V?$basic_string@DU?$char_traits@D@std@@V?$allocator@D@2@@std@@@2@@std@@AEAAXXZ 0000000180011110 f i WXMPFiles.obj
 0001:000101b8       ??$_Emplace_reallocate@AEBQEAVChunk@RIFF@@@?$vector@PEAVChunk@RIFF@@V?$allocator@PEAVChunk@RIFF@@@std@@@std@@AEAAPEAPEAVChunk@RIFF@@QEAPEAV23@AEBQEAV23@@Z 00000001800111b8 f i RIFF.obj
 0001:000101b8       ??$_Emplace_reallocate@AEBQEAVXML_Node@@@?$vector@PEAVXML_Node@@V?$allocator@PEAVXML_Node@@@std@@@std@@AEAAPEAPEAVXML_Node@@QEAPEAV2@AEBQEAV2@@Z 00000001800111b8 f i XML_Node.obj
 0001:000101b8       ??$_Emplace_reallocate@PEAVChunk@RIFF@@@?$vector@PEAVChunk@RIFF@@V?$allocator@PEAVChunk@RIFF@@@std@@@std@@AEAAPEAPEAVChunk@RIFF@@QEAPEAV23@$$QEAPEAV23@@Z 00000001800111b8 f i RIFF.obj
 0001:000101b8       ??$_Emplace_reallocate@PEAVXML_Node@@@?$vector@PEAVXML_Node@@V?$allocator@PEAVXML_Node@@@std@@@std@@AEAAPEAPEAVXML_Node@@QEAPEAV2@$$QEAPEAV2@@Z 00000001800111b8 f i SVG_Adapter.obj
 0001:000101b8       ??$_Emplace_reallocate@PEBD@?$vector@PEBDV?$allocator@PEBD@std@@@std@@AEAAPEAPEBDQEAPEBD$$QEAPEBD@Z 00000001800111b8 f i WXMPFiles.obj
 0001:000102cc       ?_Change_array@?$vector@PEAVChunk@RIFF@@V?$allocator@PEAVChunk@RIFF@@@std@@@std@@AEAAXQEAPEAVChunk@RIFF@@_K1@Z 00000001800112cc f i RIFF.obj
 0001:000102cc       ?_Change_array@?$vector@PEAVXML_Node@@V?$allocator@PEAVXML_Node@@@std@@@std@@AEAAXQEAPEAVXML_Node@@_K1@Z 00000001800112cc f i XML_Node.obj
 0001:000102cc       ?_Change_array@?$vector@PEBDV?$allocator@PEBD@std@@@std@@AEAAXQEAPEBD_K1@Z 00000001800112cc f i WXMPFiles.obj
 0001:00010368       ?SplitLeafName@XIO@@YAXPEAV?$basic_string@DU?$char_traits@D@std@@V?$allocator@D@2@@std@@0@Z 0000000180011368 f   XIO.obj
 0001:00010518       ?SplitFileExtension@XIO@@YAXPEAV?$basic_string@DU?$char_traits@D@std@@V?$allocator@D@2@@std@@0_N@Z 0000000180011518 f   XIO.obj
 0001:00010604       ?ReplaceTextFile@XIO@@YAXPEAVXMP_IO@@AEBV?$basic_string@DU?$char_traits@D@std@@V?$allocator@D@2@@std@@_N@Z 0000000180011604 f   XIO.obj
 0001:000107d0       ?Copy@XIO@@YAXPEAVXMP_IO@@0_JP6A_NPEAX@Z2@Z 00000001800117d0 f   XIO.obj
 0001:000108a4       ?Move@XIO@@YAXPEAVXMP_IO@@_J011P6A_NPEAX@Z2@Z 00000001800118a4 f   XIO.obj
 0001:000109e4       ?swap@?$basic_string@DU?$char_traits@D@std@@V?$allocator@D@2@@std@@QEAAXAEAV12@@Z 00000001800119e4 f i XIO.obj
 0001:00010a64       ?assign@?$basic_string@DU?$char_traits@D@std@@V?$allocator@D@2@@std@@QEAAAEAV12@_KD@Z 0000000180011a64 f i XIO.obj
 0001:00010ac4       ??$_Reallocate_for@V<lambda_138c3d7c38c85abb84c7fc7bfe5747b7>@@D@?$basic_string@DU?$char_traits@D@std@@V?$allocator@D@2@@std@@AEAAAEAV01@_KV<lambda_138c3d7c38c85abb84c7fc7bfe5747b7>@@D@Z 0000000180011ac4 f i XIO.obj
 0001:00010bc4       ??1AutoFolder@Host_IO@@QEAA@XZ 0000000180011bc4 f i IOUtils.obj
 0001:00010df4       ?GetMatchingChildren@IOUtils@@SAXAEAV?$vector@V?$basic_string@DU?$char_traits@D@std@@V?$allocator@D@2@@std@@V?$allocator@V?$basic_string@DU?$char_traits@D@std@@V?$allocator@D@2@@std@@@2@@std@@AEBV?$basic_string@DU?$char_traits@D@std@@V?$allocator@D@2@@3@AEBV23@EEE@Z 0000000180011df4 f   IOUtils.obj
 0001:00011174       ??1?$pair@V?$basic_string@DU?$char_traits@D@std@@V?$allocator@D@2@@std@@_J@std@@QEAA@XZ 0000000180012174 f i SVG_Adapter.obj
 0001:00011174       ??1DateTimeTokens@PostScript_Support@@QEAA@XZ 0000000180012174 f i PostScript_Support.obj
 0001:00011174       ??1XMP_RegExp@@QEAA@XZ     0000000180012174 f i IOUtils.obj
 0001:0001117c       ?GetMatchingChildren@IOUtils@@SAXAEAV?$vector@V?$basic_string@DU?$char_traits@D@std@@V?$allocator@D@2@@std@@V?$allocator@V?$basic_string@DU?$char_traits@D@std@@V?$allocator@D@2@@std@@@2@@std@@AEBV?$basic_string@DU?$char_traits@D@std@@V?$allocator@D@2@@3@1EEE@Z 000000018001217c f   IOUtils.obj
 0001:00011264       ??$_Sort_unchecked@PEAV?$basic_string@DU?$char_traits@D@std@@V?$allocator@D@2@@std@@U?$less@X@2@@std@@YAXPEAV?$basic_string@DU?$char_traits@D@std@@V?$allocator@D@2@@0@0_JU?$less@X@0@@Z 0000000180012264 f i IOUtils.obj
 0001:00011794       ??$_Emplace_reallocate@AEBV?$basic_string@DU?$char_traits@D@std@@V?$allocator@D@2@@std@@@?$vector@V?$basic_string@DU?$char_traits@D@std@@V?$allocator@D@2@@std@@V?$allocator@V?$basic_string@DU?$char_traits@D@std@@V?$allocator@D@2@@std@@@2@@std@@AEAAPEAV?$basic_string@DU?$char_traits@D@std@@V?$allocator@D@2@@1@QEAV21@AEBV21@@Z 0000000180012794 f i IOUtils.obj
 0001:000118dc       ??$_Uninitialized_move@PEAV?$basic_string@DU?$char_traits@D@std@@V?$allocator@D@2@@std@@V?$allocator@V?$basic_string@DU?$char_traits@D@std@@V?$allocator@D@2@@std@@@2@@std@@YAPEAV?$basic_string@DU?$char_traits@D@std@@V?$allocator@D@2@@0@QEAV10@0PEAV10@AEAV?$allocator@V?$basic_string@DU?$char_traits@D@std@@V?$allocator@D@2@@std@@@0@@Z 00000001800128dc f i IOUtils.obj
 0001:00011978       ??1_Reallocation_guard@?$vector@V?$basic_string@DU?$char_traits@D@std@@V?$allocator@D@2@@std@@V?$allocator@V?$basic_string@DU?$char_traits@D@std@@V?$allocator@D@2@@std@@@2@@std@@QEAA@XZ 0000000180012978 f i IOUtils.obj
 0001:00011a08       ?_Change_array@?$vector@V?$basic_string@DU?$char_traits@D@std@@V?$allocator@D@2@@std@@V?$allocator@V?$basic_string@DU?$char_traits@D@std@@V?$allocator@D@2@@std@@@2@@std@@AEAAXQEAV?$basic_string@DU?$char_traits@D@std@@V?$allocator@D@2@@2@_K1@Z 0000000180012a08 f i IOUtils.obj
 0001:00011acc       ??$_Pop_heap_hole_by_index@PEAV?$basic_string@DU?$char_traits@D@std@@V?$allocator@D@2@@std@@V12@U?$less@X@2@@std@@YAXPEAV?$basic_string@DU?$char_traits@D@std@@V?$allocator@D@2@@0@_J1$$QEAV10@U?$less@X@0@@Z 0000000180012acc f i IOUtils.obj
 0001:00011bdc       ??$_Guess_median_unchecked@PEAV?$basic_string@DU?$char_traits@D@std@@V?$allocator@D@2@@std@@U?$less@X@2@@std@@YAXPEAV?$basic_string@DU?$char_traits@D@std@@V?$allocator@D@2@@0@00U?$less@X@0@@Z 0000000180012bdc f i IOUtils.obj
 0001:00011de4       ??4?$basic_string@DU?$char_traits@D@std@@V?$allocator@D@2@@std@@QEAAAEAV01@$$QEAV01@@Z 0000000180012de4 f i IOUtils.obj
 0001:00011e90       ??$?MDU?$char_traits@D@std@@V?$allocator@D@1@@std@@YA_NAEBV?$basic_string@DU?$char_traits@D@std@@V?$allocator@D@2@@0@0@Z 0000000180012e90 f i IOUtils.obj
 0001:00011eec       ??1?$map@V?$basic_string@DU?$char_traits@D@std@@V?$allocator@D@2@@std@@V12@U?$less@V?$basic_string@DU?$char_traits@D@std@@V?$allocator@D@2@@std@@@2@V?$allocator@U?$pair@$$CBV?$basic_string@DU?$char_traits@D@std@@V?$allocator@D@2@@std@@V12@@std@@@2@@std@@QEAA@XZ 0000000180012eec f i XML_Node.obj
 0001:00011f18       ??0XML_Node@@QEAA@PEAV0@PEBDE@Z 0000000180012f18 f i XML_Node.obj
 0001:00011fdc       ??_EXML_Node@@UEAAPEAXI@Z  0000000180012fdc f i * CIL library *:* CIL module *
 0001:00011fdc       ??_GXML_Node@@UEAAPEAXI@Z  0000000180012fdc f i XML_Node.obj
 0001:00012058       ?IsWhitespaceNode@XML_Node@@QEBA_NXZ 0000000180013058 f   XML_Node.obj
 0001:000120a0       ?IsLeafContentNode@XML_Node@@QEBA_NXZ 00000001800130a0 f   XML_Node.obj
 0001:000120d8       ?GetAttrValue@XML_Node@@QEBAPEBDPEBD@Z 00000001800130d8 f   XML_Node.obj
 0001:0001218c       ?GetLeafContentValue@XML_Node@@QEBAPEBDXZ 000000018001318c f   XML_Node.obj
 0001:000121c8       ?SetLeafContentValue@XML_Node@@QEAAXPEBD@Z 00000001800131c8 f   XML_Node.obj
 0001:00012260       ?CountNamedElements@XML_Node@@QEBA_KPEBD0@Z 0000000180013260 f   XML_Node.obj
 0001:0001230c       ?GetNamedElement@XML_Node@@QEAAPEAV1@PEBD0_K@Z 000000018001330c f   XML_Node.obj
 0001:000127fc       ?Serialize@XML_Node@@QEAAXPEAV?$basic_string@DU?$char_traits@D@std@@V?$allocator@D@2@@std@@@Z 00000001800137fc f   XML_Node.obj
 0001:00012c04       ?RemoveAttrs@XML_Node@@QEAAXXZ 0000000180013c04 f   XML_Node.obj
 0001:00012c78       ?RemoveContent@XML_Node@@QEAAXXZ 0000000180013c78 f   XML_Node.obj
 0001:00012cec       ??$?9DU?$char_traits@D@std@@V?$allocator@D@1@@std@@YA_NAEBV?$basic_string@DU?$char_traits@D@std@@V?$allocator@D@2@@0@QEBD@Z 0000000180013cec f i XML_Node.obj
 0001:00012d34       ??A?$map@V?$basic_string@DU?$char_traits@D@std@@V?$allocator@D@2@@std@@V12@U?$less@V?$basic_string@DU?$char_traits@D@std@@V?$allocator@D@2@@std@@@2@V?$allocator@U?$pair@$$CBV?$basic_string@DU?$char_traits@D@std@@V?$allocator@D@2@@std@@V12@@std@@@2@@std@@QEAAAEAV?$basic_string@DU?$char_traits@D@std@@V?$allocator@D@2@@1@AEBV21@@Z 0000000180013d34 f i XML_Node.obj
 0001:00012e74       ??$_Erase_tree@V?$allocator@U?$_Tree_node@U?$pair@$$CBV?$basic_string@DU?$char_traits@D@std@@V?$allocator@D@2@@std@@V12@@std@@PEAX@std@@@std@@@?$_Tree_val@U?$_Tree_simple_types@U?$pair@$$CBV?$basic_string@DU?$char_traits@D@std@@V?$allocator@D@2@@std@@V12@@std@@@std@@@std@@QEAAXAEAV?$allocator@U?$_Tree_node@U?$pair@$$CBV?$basic_string@DU?$char_traits@D@std@@V?$allocator@D@2@@std@@V12@@std@@PEAX@std@@@1@PEAU?$_Tree_node@U?$pair@$$CBV?$basic_string@DU?$char_traits@D@std@@V?$allocator@D@2@@std@@V12@@std@@PEAX@1@@Z 0000000180013e74 f i XML_Node.obj
 0001:00012ef4       ??1?$_Alloc_construct_ptr@V?$allocator@U?$_Tree_node@U?$pair@$$CBUGUID_32@JPEG_MetaHandler@@V?$basic_string@DU?$char_traits@D@std@@V?$allocator@D@2@@std@@@std@@PEAX@std@@@std@@@std@@QEAA@XZ 0000000180013ef4 f i JPEG_Handler.obj
 0001:00012ef4       ??1?$_Alloc_construct_ptr@V?$allocator@U?$_Tree_node@U?$pair@$$CBV?$basic_string@DU?$char_traits@D@std@@V?$allocator@D@2@@std@@V12@@std@@PEAX@std@@@std@@@std@@QEAA@XZ 0000000180013ef4 f i XML_Node.obj
 0001:00012ef4       ??1?$_Tree_temp_node_alloc@V?$allocator@U?$_Tree_node@U?$pair@$$CBV?$basic_string@DU?$char_traits@D@std@@V?$allocator@D@2@@std@@V12@@std@@PEAX@std@@@std@@@std@@QEAA@XZ 0000000180013ef4 f i XML_Node.obj
 0001:00012f10       ??1XMP_AutoMutex@@QEAA@XZ  0000000180013f10 f i XMP_LibUtils.obj
 0001:00012f34       ??1XMP_NamespaceTable@@UEAA@XZ 0000000180013f34 f i XMP_LibUtils.obj
 0001:00012fa4       ??_EXMP_NamespaceTable@@UEAAPEAXI@Z 0000000180013fa4 f i * CIL library *:* CIL module *
 0001:00012fa4       ??_GXMP_NamespaceTable@@UEAAPEAXI@Z 0000000180013fa4 f i XMP_LibUtils.obj
 0001:0001307c       ??0XMP_ReadWriteLock@@QEAA@XZ 000000018001407c f   XMP_LibUtils.obj
 0001:000130d4       ??1XMP_ReadWriteLock@@QEAA@XZ 00000001800140d4 f   XMP_LibUtils.obj
 0001:000130dc       ??0XMP_WinXP_HGQueue@@QEAA@XZ 00000001800140dc f   XMP_LibUtils.obj
 0001:00013144       ??1XMP_WinXP_HGQueue@@QEAA@XZ 0000000180014144 f   XMP_LibUtils.obj
 0001:00013150       ?Wait@XMP_WinXP_HGQueue@@QEAAXAEAU_RTL_CRITICAL_SECTION@@@Z 0000000180014150 f   XMP_LibUtils.obj
 0001:0001320c       ??1XMP_HomeGrownLock@@QEAA@XZ 000000018001420c f   XMP_LibUtils.obj
 0001:00013238       ?ReleaseFromRead@XMP_HomeGrownLock@@QEAAXXZ 0000000180014238 f   XMP_LibUtils.obj
 0001:000132e4       ?ReleaseFromWrite@XMP_HomeGrownLock@@QEAAXXZ 00000001800142e4 f   XMP_LibUtils.obj
 0001:00013394       ?Define@XMP_NamespaceTable@@QEAA_NPEBD0PEAPEBDPEAK@Z 0000000180014394 f   XMP_LibUtils.obj
 0001:000138e0       ??1?$pair@V?$basic_string@DU?$char_traits@D@std@@V?$allocator@D@2@@std@@V12@@std@@QEAA@XZ 00000001800148e0 f i XMP_LibUtils.obj
 0001:00013900       ?GetPrefix@XMP_NamespaceTable@@QEBA_NPEBDPEAPEBDPEAK@Z 0000000180014900 f   XMP_LibUtils.obj
 0001:00013af4       ??$insert@AEAU?$pair@V?$basic_string@DU?$char_traits@D@std@@V?$allocator@D@2@@std@@V12@@std@@$0A@@?$map@V?$basic_string@DU?$char_traits@D@std@@V?$allocator@D@2@@std@@V12@U?$less@V?$basic_string@DU?$char_traits@D@std@@V?$allocator@D@2@@std@@@2@V?$allocator@U?$pair@$$CBV?$basic_string@DU?$char_traits@D@std@@V?$allocator@D@2@@std@@V12@@std@@@2@@std@@QEAA?AV?$_Tree_iterator@V?$_Tree_val@U?$_Tree_simple_types@U?$pair@$$CBV?$basic_string@DU?$char_traits@D@std@@V?$allocator@D@2@@std@@V12@@std@@@std@@@std@@@1@V?$_Tree_const_iterator@V?$_Tree_val@U?$_Tree_simple_types@U?$pair@$$CBV?$basic_string@DU?$char_traits@D@std@@V?$allocator@D@2@@std@@V12@@std@@@std@@@std@@@1@AEAU?$pair@V?$basic_string@DU?$char_traits@D@std@@V?$allocator@D@2@@std@@V12@@1@@Z 0000000180014af4 f i XMP_LibUtils.obj
 0001:00013bf0       ?find@?$_Tree@V?$_Tmap_traits@V?$basic_string@DU?$char_traits@D@std@@V?$allocator@D@2@@std@@UOffsetStruct@@U?$less@V?$basic_string@DU?$char_traits@D@std@@V?$allocator@D@2@@std@@@2@V?$allocator@U?$pair@$$CBV?$basic_string@DU?$char_traits@D@std@@V?$allocator@D@2@@std@@UOffsetStruct@@@std@@@2@$0A@@std@@@std@@QEAA?AV?$_Tree_iterator@V?$_Tree_val@U?$_Tree_simple_types@U?$pair@$$CBV?$basic_string@DU?$char_traits@D@std@@V?$allocator@D@2@@std@@UOffsetStruct@@@std@@@std@@@std@@@2@AEBV?$basic_string@DU?$char_traits@D@std@@V?$allocator@D@2@@2@@Z 0000000180014bf0 f i SVG_Adapter.obj
 0001:00013bf0       ?find@?$_Tree@V?$_Tmap_traits@V?$basic_string@DU?$char_traits@D@std@@V?$allocator@D@2@@std@@V12@U?$less@V?$basic_string@DU?$char_traits@D@std@@V?$allocator@D@2@@std@@@2@V?$allocator@U?$pair@$$CBV?$basic_string@DU?$char_traits@D@std@@V?$allocator@D@2@@std@@V12@@std@@@2@$0A@@std@@@std@@QEAA?AV?$_Tree_iterator@V?$_Tree_val@U?$_Tree_simple_types@U?$pair@$$CBV?$basic_string@DU?$char_traits@D@std@@V?$allocator@D@2@@std@@V12@@std@@@std@@@std@@@2@AEBV?$basic_string@DU?$char_traits@D@std@@V?$allocator@D@2@@2@@Z 0000000180014bf0 f i XMP_LibUtils.obj
 0001:00013bf0       ?find@?$_Tree@V?$_Tmap_traits@V?$basic_string@DU?$char_traits@D@std@@V?$allocator@D@2@@std@@V12@U?$less@V?$basic_string@DU?$char_traits@D@std@@V?$allocator@D@2@@std@@@2@V?$allocator@U?$pair@$$CBV?$basic_string@DU?$char_traits@D@std@@V?$allocator@D@2@@std@@V12@@std@@@2@$0A@@std@@@std@@QEBA?AV?$_Tree_const_iterator@V?$_Tree_val@U?$_Tree_simple_types@U?$pair@$$CBV?$basic_string@DU?$char_traits@D@std@@V?$allocator@D@2@@std@@V12@@std@@@std@@@std@@@2@AEBV?$basic_string@DU?$char_traits@D@std@@V?$allocator@D@2@@2@@Z 0000000180014bf0 f i XMP_LibUtils.obj
 0001:00013bf0       ?find@?$_Tree@V?$_Tmap_traits@V?$basic_string@DU?$char_traits@D@std@@V?$allocator@D@2@@std@@_JU?$less@V?$basic_string@DU?$char_traits@D@std@@V?$allocator@D@2@@std@@@2@V?$allocator@U?$pair@$$CBV?$basic_string@DU?$char_traits@D@std@@V?$allocator@D@2@@std@@_J@std@@@2@$00@std@@@std@@QEAA?AV?$_Tree_iterator@V?$_Tree_val@U?$_Tree_simple_types@U?$pair@$$CBV?$basic_string@DU?$char_traits@D@std@@V?$allocator@D@2@@std@@_J@std@@@std@@@std@@@2@AEBV?$basic_string@DU?$char_traits@D@std@@V?$allocator@D@2@@2@@Z 0000000180014bf0 f i SVG_Adapter.obj
 0001:00013c80       ??$_Find_hint@V?$basic_string@DU?$char_traits@D@std@@V?$allocator@D@2@@std@@@?$_Tree@V?$_Tmap_traits@V?$basic_string@DU?$char_traits@D@std@@V?$allocator@D@2@@std@@UOffsetStruct@@U?$less@V?$basic_string@DU?$char_traits@D@std@@V?$allocator@D@2@@std@@@2@V?$allocator@U?$pair@$$CBV?$basic_string@DU?$char_traits@D@std@@V?$allocator@D@2@@std@@UOffsetStruct@@@std@@@2@$0A@@std@@@std@@IEBA?AU?$_Tree_find_hint_result@PEAU?$_Tree_node@U?$pair@$$CBV?$basic_string@DU?$char_traits@D@std@@V?$allocator@D@2@@std@@UOffsetStruct@@@std@@PEAX@std@@@1@QEAU?$_Tree_node@U?$pair@$$CBV?$basic_string@DU?$char_traits@D@std@@V?$allocator@D@2@@std@@UOffsetStruct@@@std@@PEAX@1@AEBV?$basic_string@DU?$char_traits@D@std@@V?$allocator@D@2@@1@@Z 0000000180014c80 f i SVG_Adapter.obj
 0001:00013c80       ??$_Find_hint@V?$basic_string@DU?$char_traits@D@std@@V?$allocator@D@2@@std@@@?$_Tree@V?$_Tmap_traits@V?$basic_string@DU?$char_traits@D@std@@V?$allocator@D@2@@std@@V12@U?$less@V?$basic_string@DU?$char_traits@D@std@@V?$allocator@D@2@@std@@@2@V?$allocator@U?$pair@$$CBV?$basic_string@DU?$char_traits@D@std@@V?$allocator@D@2@@std@@V12@@std@@@2@$0A@@std@@@std@@IEBA?AU?$_Tree_find_hint_result@PEAU?$_Tree_node@U?$pair@$$CBV?$basic_string@DU?$char_traits@D@std@@V?$allocator@D@2@@std@@V12@@std@@PEAX@std@@@1@QEAU?$_Tree_node@U?$pair@$$CBV?$basic_string@DU?$char_traits@D@std@@V?$allocator@D@2@@std@@V12@@std@@PEAX@1@AEBV?$basic_string@DU?$char_traits@D@std@@V?$allocator@D@2@@1@@Z 0000000180014c80 f i XMP_LibUtils.obj
 0001:00013eec       ??0XMP_ProgressTracker@@QEAA@AEBUCallbackInfo@0@@Z 0000000180014eec f   XMP_ProgressTracker.obj
 0001:00013f3c       ?BeginWork@XMP_ProgressTracker@@QEAAXM@Z 0000000180014f3c f   XMP_ProgressTracker.obj
 0001:00013f80       ?WorkComplete@XMP_ProgressTracker@@QEAAXXZ 0000000180014f80 f   XMP_ProgressTracker.obj
 0001:00013fc0       ?NotifyClient@XMP_ProgressTracker@@AEAAX_N@Z 0000000180014fc0 f   XMP_ProgressTracker.obj
 0001:00014104       ?NotifyClient@GenericErrorCallback@@QEBAXEAEAVXMP_Error@@PEBD@Z 0000000180015104 f i XMPFiles.obj
 0001:000141dc       ??_EGenericErrorCallback@@UEAAPEAXI@Z 00000001800151dc f i * CIL library *:* CIL module *
 0001:000141dc       ??_GGenericErrorCallback@@UEAAPEAXI@Z 00000001800151dc f i XMPFiles.obj
 0001:00014208       ?ClearFilePath@XMPFiles@@QEAAXXZ 0000000180015208 f i XMPFiles.obj
 0001:0001423c       ??_EErrorCallbackInfo@XMPFiles@@UEAAPEAXI@Z 000000018001523c f i * CIL library *:* CIL module *
 0001:0001423c       ??_GErrorCallbackInfo@XMPFiles@@UEAAPEAXI@Z 000000018001523c f i XMPFiles.obj
 0001:00014280       ??1ErrorCallbackInfo@XMPFiles@@UEAA@XZ 0000000180015280 f i XMPFiles.obj
 0001:000142a4       ?GetVersionInfo@XMPFiles@@SAXPEAUXMP_VersionInfo@@@Z 00000001800152a4 f   XMPFiles.obj
 0001:000142d8       ?Initialize@XMPFiles@@SA_NKPEBD0@Z 00000001800152d8 f   XMPFiles.obj
 0001:00014558       ?Terminate@XMPFiles@@SAXXZ 0000000180015558 f   XMPFiles.obj
 0001:000146c0       ??0XMPFiles@@QEAA@XZ       00000001800156c0 f   XMPFiles.obj
 0001:00014844       ??_EXMPFiles@@UEAAPEAXI@Z  0000000180015844 f i * CIL library *:* CIL module *
 0001:00014844       ??_GXMPFiles@@UEAAPEAXI@Z  0000000180015844 f i XMPFiles.obj
 0001:000148c4       ??1XMPFiles@@UEAA@XZ       00000001800158c4 f   XMPFiles.obj
 0001:000149b0       ?GetFormatInfo@XMPFiles@@SA_NKPEAK@Z 00000001800159b0 f   XMPFiles.obj
 0001:00014a04       ?CheckFileFormat@XMPFiles@@SAKPEBD@Z 0000000180015a04 f   XMPFiles.obj
 0001:00014b10       ?CheckPackageFormat@XMPFiles@@SAKPEBD@Z 0000000180015b10 f   XMPFiles.obj
 0001:00014ec4       ?GetFileModDate@XMPFiles@@SA_NPEBDPEAUXMP_DateTime@@PEAKK@Z 0000000180015ec4 f   XMPFiles.obj
 0001:000150fc       ?GetFileModDate@XMPFiles@@SA_NAEBUXMPFileHandlerInfo@Common@@PEBDPEAUXMP_DateTime@@K@Z 00000001800160fc f   XMPFiles.obj
 0001:0001539c       ?GetAssociatedResources@XMPFiles@@SA_NPEBDPEAV?$vector@V?$basic_string@DU?$char_traits@D@std@@V?$allocator@D@2@@std@@V?$allocator@V?$basic_string@DU?$char_traits@D@std@@V?$allocator@D@2@@std@@@2@@std@@KK@Z 000000018001639c f   XMPFiles.obj
 0001:000154d4       ?GetAssociatedResources@XMPFiles@@SA_NAEBUXMPFileHandlerInfo@Common@@PEBDPEAV?$vector@V?$basic_string@DU?$char_traits@D@std@@V?$allocator@D@2@@std@@V?$allocator@V?$basic_string@DU?$char_traits@D@std@@V?$allocator@D@2@@std@@@2@@std@@K@Z 00000001800164d4 f   XMPFiles.obj
 0001:000156dc       ?IsMetadataWritable@XMPFiles@@SA_NPEBDPEAEKK@Z 00000001800166dc f   XMPFiles.obj
 0001:00015884       ?IsMetadataWritable@XMPFiles@@SA_NAEBUXMPFileHandlerInfo@Common@@PEBDPEAEK@Z 0000000180016884 f   XMPFiles.obj
 0001:00016160       ?OpenFile@XMPFiles@@QEAA_NPEBDKK@Z 0000000180017160 f   XMPFiles.obj
 0001:00016188       ?OpenFile@XMPFiles@@QEAA_NAEBUXMPFileHandlerInfo@Common@@PEBDK@Z 0000000180017188 f   XMPFiles.obj
 0001:000161b0       ?CloseFile@XMPFiles@@QEAAXK@Z 00000001800171b0 f   XMPFiles.obj
 0001:00016500       ?GetFileInfo@XMPFiles@@QEBA_NPEAPEBDPEAK111@Z 0000000180017500 f   XMPFiles.obj
 0001:000165a4       ?SetAbortProc@XMPFiles@@QEAAXP6A_NPEAX@Z0@Z 00000001800175a4 f   XMPFiles.obj
 0001:000165f8       ?GetXMP@XMPFiles@@QEAA_NPEAV?$TXMPMeta@V?$basic_string@DU?$char_traits@D@std@@V?$allocator@D@2@@std@@@@PEAPEBDPEAKPEAUXMP_PacketInfo@@@Z 00000001800175f8 f   XMPFiles.obj
 0001:00016b38       ?PutXMP@XMPFiles@@QEAAXAEBV?$TXMPMeta@V?$basic_string@DU?$char_traits@D@std@@V?$allocator@D@2@@std@@@@@Z 0000000180017b38 f   XMPFiles.obj
 0001:00016b50       ?PutXMP@XMPFiles@@QEAAXPEBDK@Z 0000000180017b50 f   XMPFiles.obj
 0001:00016bc4       ?CanPutXMP@XMPFiles@@QEAA_NAEBV?$TXMPMeta@V?$basic_string@DU?$char_traits@D@std@@V?$allocator@D@2@@std@@@@@Z 0000000180017bc4 f   XMPFiles.obj
 0001:00016c44       ?CanPutXMP@XMPFiles@@QEAA_NPEBDK@Z 0000000180017c44 f   XMPFiles.obj
 0001:00016cc0       ?SetDefaultProgressCallback@XMPFiles@@SAXAEBUCallbackInfo@XMP_ProgressTracker@@@Z 0000000180017cc0 f   XMPFiles.obj
 0001:00016cd8       ?SetProgressCallback@XMPFiles@@QEAAXAEBUCallbackInfo@XMP_ProgressTracker@@@Z 0000000180017cd8 f   XMPFiles.obj
 0001:00016d9c       ?SetDefaultErrorCallback@XMPFiles@@SAXP6AEP6A_NPEAXPEBDEJ1@Z01EJ1@Z20K@Z 0000000180017d9c f   XMPFiles.obj
 0001:00016dbc       ?SetErrorCallback@XMPFiles@@QEAAXP6AEP6A_NPEAXPEBDEJ1@Z01EJ1@Z20K@Z 0000000180017dbc f   XMPFiles.obj
 0001:00016e3c       ?ResetErrorCallbackLimit@XMPFiles@@QEAAXK@Z 0000000180017e3c f   XMPFiles.obj
 0001:00016eb8       ?CanNotify@ErrorCallbackInfo@XMPFiles@@UEBA_NXZ 0000000180017eb8 f   XMPFiles.obj
 0001:00016ec4       ?ClientCallbackWrapper@ErrorCallbackInfo@XMPFiles@@UEBA_NPEBDEJ0@Z 0000000180017ec4 f   XMPFiles.obj
 0001:00016f0c       ?ErrorCallbackForXMPMeta@@YA_NPEAXEJPEBD@Z 0000000180017f0c f   XMPFiles.obj
 0001:000170a0       ?FillPacketInfo@@YAXAEBV?$basic_string@DU?$char_traits@D@std@@V?$allocator@D@2@@std@@PEAUXMP_PacketInfo@@@Z 00000001800180a0 f   XMPFiles_Impl.obj
 0001:00017190       ?ReadXMPPacket@@YAXPEAVXMPFileHandler@@@Z 0000000180018190 f   XMPFiles_Impl.obj
 0001:00017260       ?GetFileModDate@XMPFileHandler@@UEAA_NPEAUXMP_DateTime@@@Z 0000000180018260 f   XMPFiles_Impl.obj
 0001:000172e8       ?FillMetadataFiles@XMPFileHandler@@UEAAXPEAV?$vector@V?$basic_string@DU?$char_traits@D@std@@V?$allocator@D@2@@std@@V?$allocator@V?$basic_string@DU?$char_traits@D@std@@V?$allocator@D@2@@std@@@2@@std@@@Z 00000001800182e8 f   XMPFiles_Impl.obj
 0001:00017470       ?FillAssociatedResources@XMPFileHandler@@UEAAXPEAV?$vector@V?$basic_string@DU?$char_traits@D@std@@V?$allocator@D@2@@std@@V?$allocator@V?$basic_string@DU?$char_traits@D@std@@V?$allocator@D@2@@std@@@2@@std@@@Z 0000000180018470 f   XMPFiles_Impl.obj
 0001:000175f8       ?IsMetadataWritable@XMPFileHandler@@UEAA_NXZ 00000001800185f8 f   XMPFiles_Impl.obj
 0001:00017684       ?ProcessXMP@XMPFileHandler@@UEAAXXZ 0000000180018684 f   XMPFiles_Impl.obj
 0001:00017704       ?GetSerializeOptions@XMPFileHandler@@UEAAKXZ 0000000180018704 f   XMPFiles_Impl.obj
 0001:0001770c       ??0?$TXMPMeta@V?$basic_string@DU?$char_traits@D@std@@V?$allocator@D@2@@std@@@@QEAA@PEBDK@Z 000000018001870c f i XMPFiles_Impl.obj
 0001:00017764       ??0?$TXMPMeta@V?$basic_string@DU?$char_traits@D@std@@V?$allocator@D@2@@std@@@@QEAA@XZ 0000000180018764 f i XMPFiles_Impl.obj
 0001:0001778c       ??1?$TXMPMeta@V?$basic_string@DU?$char_traits@D@std@@V?$allocator@D@2@@std@@@@UEAA@XZ 000000018001878c f i XMPFiles_Impl.obj
 0001:000177b8       ?RegisterNamespace@?$TXMPMeta@V?$basic_string@DU?$char_traits@D@std@@V?$allocator@D@2@@std@@@@SA_NPEBD0PEAV?$basic_string@DU?$char_traits@D@std@@V?$allocator@D@2@@std@@@Z 00000001800187b8 f i XMPFiles_Impl.obj
 0001:0001783c       ?GetProperty@?$TXMPMeta@V?$basic_string@DU?$char_traits@D@std@@V?$allocator@D@2@@std@@@@QEBA_NPEBD0PEAV?$basic_string@DU?$char_traits@D@std@@V?$allocator@D@2@@std@@PEAK@Z 000000018001883c f i XMPFiles_Impl.obj
 0001:000178c8       ?GetArrayItem@?$TXMPMeta@V?$basic_string@DU?$char_traits@D@std@@V?$allocator@D@2@@std@@@@QEBA_NPEBD0JPEAV?$basic_string@DU?$char_traits@D@std@@V?$allocator@D@2@@std@@PEAK@Z 00000001800188c8 f i XMPFiles_Impl.obj
 0001:00017960       ?GetStructField@?$TXMPMeta@V?$basic_string@DU?$char_traits@D@std@@V?$allocator@D@2@@std@@@@QEBA_NPEBD000PEAV?$basic_string@DU?$char_traits@D@std@@V?$allocator@D@2@@std@@PEAK@Z 0000000180018960 f i XMPFiles_Impl.obj
 0001:00017a0c       ?GetQualifier@?$TXMPMeta@V?$basic_string@DU?$char_traits@D@std@@V?$allocator@D@2@@std@@@@QEBA_NPEBD000PEAV?$basic_string@DU?$char_traits@D@std@@V?$allocator@D@2@@std@@PEAK@Z 0000000180018a0c f i XMPFiles_Impl.obj
 0001:00017ac0       ?SetProperty@?$TXMPMeta@V?$basic_string@DU?$char_traits@D@std@@V?$allocator@D@2@@std@@@@QEAAXPEBD00K@Z 0000000180018ac0 f i XMPFiles_Impl.obj
 0001:00017b30       ?AppendArrayItem@?$TXMPMeta@V?$basic_string@DU?$char_traits@D@std@@V?$allocator@D@2@@std@@@@QEAAXPEBD0K0K@Z 0000000180018b30 f i XMPFiles_Impl.obj
 0001:00017bb4       ?SetStructField@?$TXMPMeta@V?$basic_string@DU?$char_traits@D@std@@V?$allocator@D@2@@std@@@@QEAAXPEBD0000K@Z 0000000180018bb4 f i XMPFiles_Impl.obj
 0001:00017c44       ?DeleteProperty@?$TXMPMeta@V?$basic_string@DU?$char_traits@D@std@@V?$allocator@D@2@@std@@@@QEAAXPEBD0@Z 0000000180018c44 f i XMPFiles_Impl.obj
 0001:00017ca4       ?DoesPropertyExist@?$TXMPMeta@V?$basic_string@DU?$char_traits@D@std@@V?$allocator@D@2@@std@@@@QEBA_NPEBD0@Z 0000000180018ca4 f i XMPFiles_Impl.obj
 0001:00017d0c       ?DoesArrayItemExist@?$TXMPMeta@V?$basic_string@DU?$char_traits@D@std@@V?$allocator@D@2@@std@@@@QEBA_NPEBD0J@Z 0000000180018d0c f i XMPFiles_Impl.obj
 0001:00017d80       ?DoesStructFieldExist@?$TXMPMeta@V?$basic_string@DU?$char_traits@D@std@@V?$allocator@D@2@@std@@@@QEBA_NPEBD000@Z 0000000180018d80 f i XMPFiles_Impl.obj
 0001:00017dfc       ?GetProperty_Bool@?$TXMPMeta@V?$basic_string@DU?$char_traits@D@std@@V?$allocator@D@2@@std@@@@QEBA_NPEBD0PEA_NPEAK@Z 0000000180018dfc f i XMPFiles_Impl.obj
 0001:00017ea4       ?GetProperty_Int@?$TXMPMeta@V?$basic_string@DU?$char_traits@D@std@@V?$allocator@D@2@@std@@@@QEBA_NPEBD0PEAJPEAK@Z 0000000180018ea4 f i XMPFiles_Impl.obj
 0001:00017f1c       ?GetProperty_Int64@?$TXMPMeta@V?$basic_string@DU?$char_traits@D@std@@V?$allocator@D@2@@std@@@@QEBA_NPEBD0PEA_JPEAK@Z 0000000180018f1c f i XMPFiles_Impl.obj
 0001:00017f94       ?GetProperty_Date@?$TXMPMeta@V?$basic_string@DU?$char_traits@D@std@@V?$allocator@D@2@@std@@@@QEBA_NPEBD0PEAUXMP_DateTime@@PEAK@Z 0000000180018f94 f i XMPFiles_Impl.obj
 0001:00018010       ?SetProperty_Bool@?$TXMPMeta@V?$basic_string@DU?$char_traits@D@std@@V?$allocator@D@2@@std@@@@QEAAXPEBD0_NK@Z 0000000180019010 f i XMPFiles_Impl.obj
 0001:00018080       ?SetProperty_Int@?$TXMPMeta@V?$basic_string@DU?$char_traits@D@std@@V?$allocator@D@2@@std@@@@QEAAXPEBD0JK@Z 0000000180019080 f i XMPFiles_Impl.obj
 0001:000180f0       ?SetProperty_Int64@?$TXMPMeta@V?$basic_string@DU?$char_traits@D@std@@V?$allocator@D@2@@std@@@@QEAAXPEBD0_JK@Z 00000001800190f0 f i XMPFiles_Impl.obj
 0001:00018160       ?SetProperty_Float@?$TXMPMeta@V?$basic_string@DU?$char_traits@D@std@@V?$allocator@D@2@@std@@@@QEAAXPEBD0NK@Z 0000000180019160 f i XMPFiles_Impl.obj
 0001:000181d0       ?SetProperty_Date@?$TXMPMeta@V?$basic_string@DU?$char_traits@D@std@@V?$allocator@D@2@@std@@@@QEAAXPEBD0AEBUXMP_DateTime@@K@Z 00000001800191d0 f i XMPFiles_Impl.obj
 0001:00018240       ?GetLocalizedText@?$TXMPMeta@V?$basic_string@DU?$char_traits@D@std@@V?$allocator@D@2@@std@@@@QEBA_NPEBD000PEAV?$basic_string@DU?$char_traits@D@std@@V?$allocator@D@2@@std@@1PEAK@Z 0000000180019240 f i XMPFiles_Impl.obj
 0001:000182f8       ?SetLocalizedText@?$TXMPMeta@V?$basic_string@DU?$char_traits@D@std@@V?$allocator@D@2@@std@@@@QEAAXPEBD0000K@Z 00000001800192f8 f i XMPFiles_Impl.obj
 0001:00018388       ?ParseFromBuffer@?$TXMPMeta@V?$basic_string@DU?$char_traits@D@std@@V?$allocator@D@2@@std@@@@QEAAXPEBDKK@Z 0000000180019388 f i XMPFiles_Impl.obj
 0001:000183f0       ?SerializeToBuffer@?$TXMPMeta@V?$basic_string@DU?$char_traits@D@std@@V?$allocator@D@2@@std@@@@QEBAXPEAV?$basic_string@DU?$char_traits@D@std@@V?$allocator@D@2@@std@@KK@Z 00000001800193f0 f i XMPFiles_Impl.obj
 0001:00018484       ?Erase@?$TXMPMeta@V?$basic_string@DU?$char_traits@D@std@@V?$allocator@D@2@@std@@@@QEAAXXZ 0000000180019484 f i XMPFiles_Impl.obj
 0001:000184e4       ?CountArrayItems@?$TXMPMeta@V?$basic_string@DU?$char_traits@D@std@@V?$allocator@D@2@@std@@@@QEBAJPEBD0@Z 00000001800194e4 f i XMPFiles_Impl.obj
 0001:00018548       ?SetErrorCallback@?$TXMPMeta@V?$basic_string@DU?$char_traits@D@std@@V?$allocator@D@2@@std@@@@QEAAXP6A_NPEAXEJPEBD@Z0K@Z 0000000180019548 f i XMPFiles_Impl.obj
 0001:000185c8       ?SetClientString@?$TXMPMeta@V?$basic_string@DU?$char_traits@D@std@@V?$allocator@D@2@@std@@@@CAXPEAXPEBDK@Z 00000001800195c8 f i XMPFiles_Impl.obj
 0001:000185c8       ?SetClientString@?$TXMPUtils@V?$basic_string@DU?$char_traits@D@std@@V?$allocator@D@2@@std@@@@CAXPEAXPEBDK@Z 00000001800195c8 f i XMPFiles_Impl.obj
 0001:00018614       ?ComposeArrayItemPath@?$TXMPUtils@V?$basic_string@DU?$char_traits@D@std@@V?$allocator@D@2@@std@@@@SAXPEBD0JPEAV?$basic_string@DU?$char_traits@D@std@@V?$allocator@D@2@@std@@@Z 0000000180019614 f i XMPFiles_Impl.obj
 0001:00018684       ?ComposeStructFieldPath@?$TXMPUtils@V?$basic_string@DU?$char_traits@D@std@@V?$allocator@D@2@@std@@@@SAXPEBD000PEAV?$basic_string@DU?$char_traits@D@std@@V?$allocator@D@2@@std@@@Z 0000000180019684 f i XMPFiles_Impl.obj
 0001:00018704       ?ConvertFromInt@?$TXMPUtils@V?$basic_string@DU?$char_traits@D@std@@V?$allocator@D@2@@std@@@@SAXJPEBDPEAV?$basic_string@DU?$char_traits@D@std@@V?$allocator@D@2@@std@@@Z 0000000180019704 f i XMPFiles_Impl.obj
 0001:0001876c       ?ConvertFromInt64@?$TXMPUtils@V?$basic_string@DU?$char_traits@D@std@@V?$allocator@D@2@@std@@@@SAX_JPEBDPEAV?$basic_string@DU?$char_traits@D@std@@V?$allocator@D@2@@std@@@Z 000000018001976c f i XMPFiles_Impl.obj
 0001:000187dc       ?ConvertFromFloat@?$TXMPUtils@V?$basic_string@DU?$char_traits@D@std@@V?$allocator@D@2@@std@@@@SAXNPEBDPEAV?$basic_string@DU?$char_traits@D@std@@V?$allocator@D@2@@std@@@Z 00000001800197dc f i XMPFiles_Impl.obj
 0001:0001884c       ?ConvertFromDate@?$TXMPUtils@V?$basic_string@DU?$char_traits@D@std@@V?$allocator@D@2@@std@@@@SAXAEBUXMP_DateTime@@PEAV?$basic_string@DU?$char_traits@D@std@@V?$allocator@D@2@@std@@@Z 000000018001984c f i XMPFiles_Impl.obj
 0001:000188b0       ?ConvertToBool@?$TXMPUtils@V?$basic_string@DU?$char_traits@D@std@@V?$allocator@D@2@@std@@@@SA_NAEBV?$basic_string@DU?$char_traits@D@std@@V?$allocator@D@2@@std@@@Z 00000001800198b0 f i XMPFiles_Impl.obj
 0001:00018920       ?ConvertToInt@?$TXMPUtils@V?$basic_string@DU?$char_traits@D@std@@V?$allocator@D@2@@std@@@@SAJPEBD@Z 0000000180019920 f i XMPFiles_Impl.obj
 0001:00018980       ?ConvertToInt64@?$TXMPUtils@V?$basic_string@DU?$char_traits@D@std@@V?$allocator@D@2@@std@@@@SA_JPEBD@Z 0000000180019980 f i XMPFiles_Impl.obj
 0001:000189e4       ?ConvertToDate@?$TXMPUtils@V?$basic_string@DU?$char_traits@D@std@@V?$allocator@D@2@@std@@@@SAXPEBDPEAUXMP_DateTime@@@Z 00000001800199e4 f i XMPFiles_Impl.obj
 0001:00018a40       ?ConvertToUTCTime@?$TXMPUtils@V?$basic_string@DU?$char_traits@D@std@@V?$allocator@D@2@@std@@@@SAXPEAUXMP_DateTime@@@Z 0000000180019a40 f i XMPFiles_Impl.obj
 0001:00018a9c       ?CompareDateTime@?$TXMPUtils@V?$basic_string@DU?$char_traits@D@std@@V?$allocator@D@2@@std@@@@SAHAEBUXMP_DateTime@@0@Z 0000000180019a9c f i XMPFiles_Impl.obj
 0001:00018afc       ?CatenateArrayItems@?$TXMPUtils@V?$basic_string@DU?$char_traits@D@std@@V?$allocator@D@2@@std@@@@SAXAEBV?$TXMPMeta@V?$basic_string@DU?$char_traits@D@std@@V?$allocator@D@2@@std@@@@PEBD111KPEAV?$basic_string@DU?$char_traits@D@std@@V?$allocator@D@2@@std@@@Z 0000000180019afc f i XMPFiles_Impl.obj
 0001:00018ba0       ?SeparateArrayItems@?$TXMPUtils@V?$basic_string@DU?$char_traits@D@std@@V?$allocator@D@2@@std@@@@SAXPEAV?$TXMPMeta@V?$basic_string@DU?$char_traits@D@std@@V?$allocator@D@2@@std@@@@PEBD1K1@Z 0000000180019ba0 f i XMPFiles_Impl.obj
 0001:00018c48       ?ApplyTemplate@?$TXMPUtils@V?$basic_string@DU?$char_traits@D@std@@V?$allocator@D@2@@std@@@@SAXPEAV?$TXMPMeta@V?$basic_string@DU?$char_traits@D@std@@V?$allocator@D@2@@std@@@@AEBV2@K@Z 0000000180019c48 f i XMPFiles_Impl.obj
 0001:00018ce0       ?RemoveProperties@?$TXMPUtils@V?$basic_string@DU?$char_traits@D@std@@V?$allocator@D@2@@std@@@@SAXPEAV?$TXMPMeta@V?$basic_string@DU?$char_traits@D@std@@V?$allocator@D@2@@std@@@@PEBD1K@Z 0000000180019ce0 f i XMPFiles_Impl.obj
 0001:00018d7c       ?DuplicateSubtree@?$TXMPUtils@V?$basic_string@DU?$char_traits@D@std@@V?$allocator@D@2@@std@@@@SAXAEBV?$TXMPMeta@V?$basic_string@DU?$char_traits@D@std@@V?$allocator@D@2@@std@@@@PEAV2@PEBD222K@Z 0000000180019d7c f i XMPFiles_Impl.obj
 0001:00018e3c       ??_E?$TXMPMeta@V?$basic_string@DU?$char_traits@D@std@@V?$allocator@D@2@@std@@@@UEAAPEAXI@Z 0000000180019e3c f i * CIL library *:* CIL module *
 0001:00018e3c       ??_G?$TXMPMeta@V?$basic_string@DU?$char_traits@D@std@@V?$allocator@D@2@@std@@@@UEAAPEAXI@Z 0000000180019e3c f i XMPFiles_Impl.obj
 0001:00018e70       ??$_Emplace_reallocate@V?$basic_string@DU?$char_traits@D@std@@V?$allocator@D@2@@std@@@?$vector@V?$basic_string@DU?$char_traits@D@std@@V?$allocator@D@2@@std@@V?$allocator@V?$basic_string@DU?$char_traits@D@std@@V?$allocator@D@2@@std@@@2@@std@@AEAAPEAV?$basic_string@DU?$char_traits@D@std@@V?$allocator@D@2@@1@QEAV21@$$QEAV21@@Z 0000000180019e70 f i XMPFiles_Impl.obj
 0001:00018fe0       ??1XMP_IO@@UEAA@XZ         0000000180019fe0 f i XMPFiles_IO.obj
 0001:00018fec       ??_EXMP_IO@@UEAAPEAXI@Z    0000000180019fec f i * CIL library *:* CIL module *
 0001:00018fec       ??_GXMP_IO@@UEAAPEAXI@Z    0000000180019fec f i XMPFiles_IO.obj
 0001:00019018       ?Offset@Host_IO@@YA_JPEAX@Z 000000018001a018 f i XMPFiles_IO.obj
 0001:00019024       ??_EXMPFiles_IO@@UEAAPEAXI@Z 000000018001a024 f i * CIL library *:* CIL module *
 0001:00019024       ??_GXMPFiles_IO@@UEAAPEAXI@Z 000000018001a024 f i XMPFiles_IO.obj
 0001:00019058       ?New_XMPFiles_IO@XMPFiles_IO@@SAPEAV1@PEBD_NPEAVGenericErrorCallback@@PEAVXMP_ProgressTracker@@@Z 000000018001a058 f   XMPFiles_IO.obj
 0001:00019150       ??0XMPFiles_IO@@QEAA@PEAXPEBD_NPEAVGenericErrorCallback@@PEAVXMP_ProgressTracker@@@Z 000000018001a150 f   XMPFiles_IO.obj
 0001:000191f8       ??1XMPFiles_IO@@UEAA@XZ    000000018001a1f8 f   XMPFiles_IO.obj
 0001:00019274       ?Read@XMPFiles_IO@@UEAAKPEAXK_N@Z 000000018001a274 f   XMPFiles_IO.obj
 0001:00019398       ?Write@XMPFiles_IO@@UEAAXPEBXK@Z 000000018001a398 f   XMPFiles_IO.obj
 0001:00019434       ?Seek@XMPFiles_IO@@UEAA_J_JW4SeekMode@@@Z 000000018001a434 f   XMPFiles_IO.obj
 0001:00019504       ?Length@XMPFiles_IO@@UEAA_JXZ 000000018001a504 f   XMPFiles_IO.obj
 0001:0001950c       ?Truncate@XMPFiles_IO@@UEAAX_J@Z 000000018001a50c f   XMPFiles_IO.obj
 0001:000195b4       ?DeriveTemp@XMPFiles_IO@@UEAAPEAVXMP_IO@@XZ 000000018001a5b4 f   XMPFiles_IO.obj
 0001:00019898       ?AbsorbTemp@XMPFiles_IO@@UEAAXXZ 000000018001a898 f   XMPFiles_IO.obj
 0001:0001994c       ?DeleteTemp@XMPFiles_IO@@UEAAXXZ 000000018001a94c f   XMPFiles_IO.obj
 0001:000199dc       ?Close@XMPFiles_IO@@QEAAXXZ 000000018001a9dc f   XMPFiles_IO.obj
 0001:00019a08       ?Exists@Host_IO@@YA_NPEBD@Z 000000018001aa08 f   Host_IO-Win.obj
 0001:00019ad0       ?Writable@Host_IO@@YA_NPEBD_N@Z 000000018001aad0 f   Host_IO-Win.obj
 0001:00019d88       ?Create@Host_IO@@YA_NPEBD@Z 000000018001ad88 f   Host_IO-Win.obj
 0001:00019f7c       ?GetModifyDate@Host_IO@@YA_NPEBDPEAUXMP_DateTime@@@Z 000000018001af7c f   Host_IO-Win.obj
 0001:0001a1d4       ?Open@Host_IO@@YAPEAXPEBD_N@Z 000000018001b1d4 f   Host_IO-Win.obj
 0001:0001a2c4       ?Close@Host_IO@@YAXPEAX@Z  000000018001b2c4 f   Host_IO-Win.obj
 0001:0001a308       ?SwapData@Host_IO@@YAXPEBD0@Z 000000018001b308 f   Host_IO-Win.obj
 0001:0001a3d4       ?Rename@Host_IO@@YAXPEBD0@Z 000000018001b3d4 f   Host_IO-Win.obj
 0001:0001a604       ?Delete@Host_IO@@YAXPEBD@Z 000000018001b604 f   Host_IO-Win.obj
 0001:0001a740       ?Seek@Host_IO@@YA_JPEAX_JW4SeekMode@@@Z 000000018001b740 f   Host_IO-Win.obj
 0001:0001a7d0       ?Write@Host_IO@@YAXPEAXPEBXK@Z 000000018001b7d0 f   Host_IO-Win.obj
 0001:0001a888       ?Length@Host_IO@@YA_JPEAX@Z 000000018001b888 f   Host_IO-Win.obj
 0001:0001a8d0       ?SetEOF@Host_IO@@YAXPEAX_J@Z 000000018001b8d0 f   Host_IO-Win.obj
 0001:0001a94c       ?GetFileMode@Host_IO@@YAEPEBD@Z 000000018001b94c f   Host_IO-Win.obj
 0001:0001aa54       ?GetChildMode@Host_IO@@YAEPEBD0@Z 000000018001ba54 f   Host_IO-Win.obj
 0001:0001aba0       ?OpenFolder@Host_IO@@YAPEAXPEBD@Z 000000018001bba0 f   Host_IO-Win.obj
 0001:0001ae18       ?GetNextChild@Host_IO@@YA_NPEAXPEAV?$basic_string@DU?$char_traits@D@std@@V?$allocator@D@2@@std@@@Z 000000018001be18 f   Host_IO-Win.obj
 0001:0001b5e8       ?replace@?$basic_string@DU?$char_traits@D@std@@V?$allocator@D@2@@std@@QEAAAEAV12@_K_KQEBD0@Z 000000018001c5e8 f i Host_IO-Win.obj
 0001:0001b77c       ??0?$basic_string@DU?$char_traits@D@std@@V?$allocator@D@2@@std@@QEAA@U_String_constructor_concat_tag@1@AEBV01@QEBD_K23@Z 000000018001c77c f i Host_IO-Win.obj
 0001:0001b854       ??$_Reallocate_grow_by@V<lambda_55b0f89b53a0342680e40398a0d39887>@@_K_KPEBD_K@?$basic_string@DU?$char_traits@D@std@@V?$allocator@D@2@@std@@AEAAAEAV01@_KV<lambda_55b0f89b53a0342680e40398a0d39887>@@_K2PEBD2@Z 000000018001c854 f i Host_IO-Win.obj
 0001:0001b9f4       ?insert@?$basic_string@DU?$char_traits@D@std@@V?$allocator@D@2@@std@@QEAAAEAV12@_KQEBD0@Z 000000018001c9f4 f i Host_IO-Win.obj
 0001:0001bad4       ??$_Reallocate_grow_by@V<lambda_f3a66ab6a0570788f31503db83886f49>@@_KPEBD_K@?$basic_string@DU?$char_traits@D@std@@V?$allocator@D@2@@std@@AEAAAEAV01@_KV<lambda_f3a66ab6a0570788f31503db83886f49>@@_KPEBD2@Z 000000018001cad4 f i Host_IO-Win.obj
 0001:0001bc44       ??_EIChunkBehavior@IFF_RIFF@@UEAAPEAXI@Z 000000018001cc44 f i * CIL library *:* CIL module *
 0001:0001bc44       ??_GIChunkBehavior@IFF_RIFF@@UEAAPEAXI@Z 000000018001cc44 f i AIFF_Handler.obj
 0001:0001bc70       ?getInstance@BigEndian@@SAAEBV1@XZ 000000018001cc70 f i AIFF_Handler.obj
 0001:0001bce0       ?getUns16@BigEndian@@UEBAGPEBX@Z 000000018001cce0 f i AIFF_Handler.obj
 0001:0001bce8       ?getUns32@BigEndian@@UEBAKPEBX@Z 000000018001cce8 f i AIFF_Handler.obj
 0001:0001bcf0       ?getUns64@BigEndian@@UEBA_KPEBX@Z 000000018001ccf0 f i AIFF_Handler.obj
 0001:0001bd0c       ?getFloat@BigEndian@@UEBAMPEBX@Z 000000018001cd0c f i AIFF_Handler.obj
 0001:0001bd18       ?getDouble@BigEndian@@UEBANPEBX@Z 000000018001cd18 f i AIFF_Handler.obj
 0001:0001bd8c       ?putUns16@BigEndian@@UEBAXGPEAX@Z 000000018001cd8c f i AIFF_Handler.obj
 0001:0001bd98       ?putUns32@BigEndian@@UEBAXKPEAX@Z 000000018001cd98 f i AIFF_Handler.obj
 0001:0001bda0       ?putUns64@BigEndian@@UEBAX_KPEAX@Z 000000018001cda0 f i AIFF_Handler.obj
 0001:0001be10       ?putFloat@BigEndian@@UEBAXMPEAX@Z 000000018001ce10 f i AIFF_Handler.obj
 0001:0001be1c       ?putDouble@BigEndian@@UEBAXNPEAX@Z 000000018001ce1c f i AIFF_Handler.obj
 0001:0001be94       ??0XMPFileHandler@@QEAA@XZ 000000018001ce94 f i AIFF_Handler.obj
 0001:0001bef8       ??1Basic_MetaHandler@@UEAA@XZ 000000018001cef8 f i Basic_Handler.obj
 0001:0001bef8       ??1GIF_MetaHandler@@UEAA@XZ 000000018001cef8 f i GIF_Handler.obj
 0001:0001bef8       ??1PNG_MetaHandler@@UEAA@XZ 000000018001cef8 f i PNG_Handler.obj
 0001:0001bef8       ??1Trivial_MetaHandler@@UEAA@XZ 000000018001cef8 f i Trivial_Handler.obj
 0001:0001bef8       ??1XMPFileHandler@@UEAA@XZ 000000018001cef8 f i AIFF_Handler.obj
 0001:0001bf24       ?CaptureFileEnding@InDesign_MetaHandler@@MEAAXPEAVXMP_IO@@@Z 000000018001cf24 f i InDesign_Handler.obj
 0001:0001bf24       ?CreateDigest@P2_Clip@@UEAAXPEAV?$basic_string@DU?$char_traits@D@std@@V?$allocator@D@2@@std@@@Z 000000018001cf24 f i P2_Support.obj
 0001:0001bf24       ?FillAssociatedResources@XDCAM_MetaHandler@@UEAAXPEAV?$vector@V?$basic_string@DU?$char_traits@D@std@@V?$allocator@D@2@@std@@V?$allocator@V?$basic_string@DU?$char_traits@D@std@@V?$allocator@D@2@@std@@@2@@std@@@Z 000000018001cf24 f i XDCAM_Handler.obj
 0001:0001bf24       ?NoteXMPInsertion@InDesign_MetaHandler@@MEAAXPEAVXMP_IO@@@Z 000000018001cf24 f i InDesign_Handler.obj
 0001:0001bf24       ?NoteXMPRemoval@InDesign_MetaHandler@@MEAAXPEAVXMP_IO@@@Z 000000018001cf24 f i InDesign_Handler.obj
 0001:0001bf24       ?SetErrorCallback@XMPFileHandler@@UEAAXUErrorCallbackBox@@@Z 000000018001cf24 f i AIFF_Handler.obj
 0001:0001bf24       ?SetPathVariables@XDCAM_MetaHandler@@MEAAXAEBV?$basic_string@DU?$char_traits@D@std@@V?$allocator@D@2@@std@@@Z 000000018001cf24 f i XDCAM_Handler.obj
 0001:0001bf24       ?SetProgressCallback@XMPFileHandler@@UEAAXPEAUCallbackInfo@XMP_ProgressTracker@@@Z 000000018001cf24 f i AIFF_Handler.obj
 0001:0001bf24       ?valueModify@IMetadata@@MEAAXKPEAVValueObject@@@Z 000000018001cf24 f i IMetadata.cpp.obj
 0001:0001bf24       _guard_check_icall_nop     000000018001cf24 f i MSVCRT:guard_support.obj
 0001:0001bf28       ??_EXMPFileHandler@@UEAAPEAXI@Z 000000018001cf28 f i * CIL library *:* CIL module *
 0001:0001bf28       ??_GXMPFileHandler@@UEAAPEAXI@Z 000000018001cf28 f i AIFF_Handler.obj
 0001:0001bf74       ??_EAIFF_MetaHandler@@UEAAPEAXI@Z 000000018001cf74 f i * CIL library *:* CIL module *
 0001:0001bf74       ??_GAIFF_MetaHandler@@UEAAPEAXI@Z 000000018001cf74 f i AIFF_Handler.obj
 0001:0001bfa8       ??_EAIFFBehavior@IFF_RIFF@@UEAAPEAXI@Z 000000018001cfa8 f i * CIL library *:* CIL module *
 0001:0001bfa8       ??_GAIFFBehavior@IFF_RIFF@@UEAAPEAXI@Z 000000018001cfa8 f i AIFF_Handler.obj
 0001:0001bfd4       ??_EAIFFReconcile@IFF_RIFF@@UEAAPEAXI@Z 000000018001cfd4 f i * CIL library *:* CIL module *
 0001:0001bfd4       ??_EIReconcile@@UEAAPEAXI@Z 000000018001cfd4 f i * CIL library *:* CIL module *
 0001:0001bfd4       ??_EWAVEReconcile@IFF_RIFF@@UEAAPEAXI@Z 000000018001cfd4 f i * CIL library *:* CIL module *
 0001:0001bfd4       ??_GAIFFReconcile@IFF_RIFF@@UEAAPEAXI@Z 000000018001cfd4 f i AIFF_Handler.obj
 0001:0001bfd4       ??_GIReconcile@@UEAAPEAXI@Z 000000018001cfd4 f i AIFF_Handler.obj
 0001:0001bfd4       ??_GWAVEReconcile@IFF_RIFF@@UEAAPEAXI@Z 000000018001cfd4 f i WAVE_Handler.obj
 0001:0001c000       ??1AIFFReconcile@IFF_RIFF@@UEAA@XZ 000000018001d000 f i AIFF_Handler.obj
 0001:0001c000       ??1WAVEReconcile@IFF_RIFF@@UEAA@XZ 000000018001d000 f i WAVE_Handler.obj
 0001:0001c00c       ?AIFF_MetaHandlerCTor@@YAPEAVXMPFileHandler@@PEAVXMPFiles@@@Z 000000018001d00c f   AIFF_Handler.obj
 0001:0001c038       ?AIFF_CheckFormat@@YA_NKPEBDPEAVXMP_IO@@PEAVXMPFiles@@@Z 000000018001d038 f   AIFF_Handler.obj
 0001:0001c0e8       ?whatAIFFFormat@AIFF_MetaHandler@@SAKPEAE@Z 000000018001d0e8 f   AIFF_Handler.obj
 0001:0001c150       ??0AIFF_MetaHandler@@QEAA@PEAVXMPFiles@@@Z 000000018001d150 f   AIFF_Handler.obj
 0001:0001c288       ??1AIFF_MetaHandler@@UEAA@XZ 000000018001d288 f   AIFF_Handler.obj
 0001:0001c388       ?CacheFileData@AIFF_MetaHandler@@UEAAXXZ 000000018001d388 f   AIFF_Handler.obj
 0001:0001c59c       ?ProcessXMP@AIFF_MetaHandler@@UEAAXXZ 000000018001d59c f   AIFF_Handler.obj
 0001:0001c7bc       ?selectLastNonEmptyAnnoChunk@AIFF_MetaHandler@@AEAAPEAVIChunkData@IFF_RIFF@@AEBV?$vector@PEAVIChunkData@IFF_RIFF@@V?$allocator@PEAVIChunkData@IFF_RIFF@@@std@@@std@@@Z 000000018001d7bc f   AIFF_Handler.obj
 0001:0001c8b8       ?UpdateFile@AIFF_MetaHandler@@UEAAX_N@Z 000000018001d8b8 f   AIFF_Handler.obj
 0001:0001cabc       ?updateLegacyChunk@AIFF_MetaHandler@@AEAAXPEAPEAVIChunkData@IFF_RIFF@@KK@Z 000000018001dabc f   AIFF_Handler.obj
 0001:0001cd48       ?WriteTempFile@AIFF_MetaHandler@@UEAAXPEAVXMP_IO@@@Z 000000018001dd48 f   AIFF_Handler.obj
 0001:0001cd74       ??1ObjectData@ASF_Support@@UEAA@XZ 000000018001dd74 f i ASF_Handler.obj
 0001:0001cd80       ??1ObjectState@ASF_Support@@UEAA@XZ 000000018001dd80 f i ASF_Handler.obj
 0001:0001cdb0       ??_EObjectData@ASF_Support@@UEAAPEAXI@Z 000000018001ddb0 f i * CIL library *:* CIL module *
 0001:0001cdb0       ??_GObjectData@ASF_Support@@UEAAPEAXI@Z 000000018001ddb0 f i ASF_Handler.obj
 0001:0001cddc       ??_EObjectState@ASF_Support@@UEAAPEAXI@Z 000000018001dddc f i * CIL library *:* CIL module *
 0001:0001cddc       ??_GObjectState@ASF_Support@@UEAAPEAXI@Z 000000018001dddc f i ASF_Handler.obj
 0001:0001ce2c       ?ASF_MetaHandlerCTor@@YAPEAVXMPFileHandler@@PEAVXMPFiles@@@Z 000000018001de2c f   ASF_Handler.obj
 0001:0001ce58       ?ASF_CheckFormat@@YA_NKPEBDPEAVXMP_IO@@PEAVXMPFiles@@@Z 000000018001de58 f   ASF_Handler.obj
 0001:0001ced8       ??0ASF_MetaHandler@@QEAA@PEAVXMPFiles@@@Z 000000018001ded8 f   ASF_Handler.obj
 0001:0001cfa4       ??_EASF_MetaHandler@@UEAAPEAXI@Z 000000018001dfa4 f i * CIL library *:* CIL module *
 0001:0001cfa4       ??_GASF_MetaHandler@@UEAAPEAXI@Z 000000018001dfa4 f i ASF_Handler.obj
 0001:0001cfd8       ??1ASF_MetaHandler@@UEAA@XZ 000000018001dfd8 f   ASF_Handler.obj
 0001:0001d018       ?CacheFileData@ASF_MetaHandler@@UEAAXXZ 000000018001e018 f   ASF_Handler.obj
 0001:0001d230       ?ProcessXMP@ASF_MetaHandler@@UEAAXXZ 000000018001e230 f   ASF_Handler.obj
 0001:0001d2bc       ?UpdateFile@ASF_MetaHandler@@UEAAX_N@Z 000000018001e2bc f   ASF_Handler.obj
 0001:0001d7b0       ?WriteTempFile@ASF_MetaHandler@@UEAAXPEAVXMP_IO@@@Z 000000018001e7b0 f   ASF_Handler.obj
 0001:0001dd08       ?SafeWriteFile@ASF_MetaHandler@@QEAA_NXZ 000000018001ed08 f   ASF_Handler.obj
 0001:0001dd78       ??1?$vector@VObjectData@ASF_Support@@V?$allocator@VObjectData@ASF_Support@@@std@@@std@@QEAA@XZ 000000018001ed78 f i ASF_Handler.obj
 0001:0001de38       ??$?HDU?$char_traits@D@std@@V?$allocator@D@1@@std@@YA?AV?$basic_string@DU?$char_traits@D@std@@V?$allocator@D@2@@0@$$QEAV10@AEBV10@@Z 000000018001ee38 f i AVCHD_Handler.obj
 0001:0001deb0       ??$?HDU?$char_traits@D@std@@V?$allocator@D@1@@std@@YA?AV?$basic_string@DU?$char_traits@D@std@@V?$allocator@D@2@@0@$$QEAV10@D@Z 000000018001eeb0 f i AVCHD_Handler.obj
 0001:0001df3c       ??$?HDU?$char_traits@D@std@@V?$allocator@D@1@@std@@YA?AV?$basic_string@DU?$char_traits@D@std@@V?$allocator@D@2@@0@$$QEAV10@QEBD@Z 000000018001ef3c f i AVCHD_Handler.obj
 0001:0001dfb4       ??1?$vector@EV?$allocator@E@std@@@std@@QEAA@XZ 000000018001efb4 f i AVCHD_Handler.obj
 0001:0001dfbc       ?_Tidy@?$vector@EV?$allocator@E@std@@@std@@AEAAXXZ 000000018001efbc f i AVCHD_Handler.obj
 0001:0001e034       ??1_Reallocation_guard@?$vector@EV?$allocator@E@std@@@std@@QEAA@XZ 000000018001f034 f i AVCHD_Handler.obj
 0001:0001e090       ?_Change_array@?$vector@EV?$allocator@E@std@@@std@@AEAAXQEAE_K1@Z 000000018001f090 f i AVCHD_Handler.obj
 0001:0001e128       ?UpdateFile@Basic_MetaHandler@@UEAAX_N@Z 000000018001f128 f   Basic_Handler.obj
 0001:0001e2e4       ?WriteTempFile@Basic_MetaHandler@@UEAAXPEAVXMP_IO@@@Z 000000018001f2e4 f   Basic_Handler.obj
 0001:0001e4f4       ?ShuffleTrailingContent@Basic_MetaHandler@@IEAAXPEAVXMP_IO@@@Z 000000018001f4f4 f   Basic_Handler.obj
 0001:0001e614       ??_EFLV_MetaHandler@@UEAAPEAXI@Z 000000018001f614 f i * CIL library *:* CIL module *
 0001:0001e614       ??_GFLV_MetaHandler@@UEAAPEAXI@Z 000000018001f614 f i FLV_Handler.obj
 0001:0001e648       ?FLV_CheckFormat@@YA_NKPEBDPEAVXMP_IO@@PEAVXMPFiles@@@Z 000000018001f648 f   FLV_Handler.obj
 0001:0001e708       ?FLV_MetaHandlerCTor@@YAPEAVXMPFileHandler@@PEAVXMPFiles@@@Z 000000018001f708 f   FLV_Handler.obj
 0001:0001e7a8       ??1FLV_MetaHandler@@UEAA@XZ 000000018001f7a8 f   FLV_Handler.obj
 0001:0001e988       ?CacheFileData@FLV_MetaHandler@@UEAAXXZ 000000018001f988 f   FLV_Handler.obj
 0001:0001ed64       ?MakeLegacyDigest@FLV_MetaHandler@@AEAAXPEAV?$basic_string@DU?$char_traits@D@std@@V?$allocator@D@2@@std@@@Z 000000018001fd64 f   FLV_Handler.obj
 0001:0001ee5c       ?ExtractLiveXML@FLV_MetaHandler@@AEAAXXZ 000000018001fe5c f   FLV_Handler.obj
 0001:0001efcc       ?ProcessXMP@FLV_MetaHandler@@UEAAXXZ 000000018001ffcc f   FLV_Handler.obj
 0001:0001f1d0       ?UpdateFile@FLV_MetaHandler@@UEAAX_N@Z 00000001800201d0 f   FLV_Handler.obj
 0001:0001f604       ?WriteTempFile@FLV_MetaHandler@@UEAAXPEAVXMP_IO@@@Z 0000000180020604 f   FLV_Handler.obj
 0001:0001f9d8       ?GIF_MetaHandlerCTor@@YAPEAVXMPFileHandler@@PEAVXMPFiles@@@Z 00000001800209d8 f   GIF_Handler.obj
 0001:0001fa34       ?GIF_CheckFormat@@YA_NKPEBDPEAVXMP_IO@@PEAVXMPFiles@@@Z 0000000180020a34 f   GIF_Handler.obj
 0001:0001fab4       ??_EGIF_MetaHandler@@UEAAPEAXI@Z 0000000180020ab4 f i * CIL library *:* CIL module *
 0001:0001fab4       ??_GGIF_MetaHandler@@UEAAPEAXI@Z 0000000180020ab4 f i GIF_Handler.obj
 0001:0001fae8       ?CacheFileData@GIF_MetaHandler@@UEAAXXZ 0000000180020ae8 f   GIF_Handler.obj
 0001:0001fbc0       ?ProcessXMP@GIF_MetaHandler@@UEAAXXZ 0000000180020bc0 f   GIF_Handler.obj
 0001:0001fbc0       ?ProcessXMP@PNG_MetaHandler@@UEAAXXZ 0000000180020bc0 f   PNG_Handler.obj
 0001:0001fbfc       ?ParseGIFBlocks@GIF_MetaHandler@@AEAA_NPEAVXMP_IO@@@Z 0000000180020bfc f   GIF_Handler.obj
 0001:0001ff74       ?SeekFile@GIF_MetaHandler@@AEAAXPEAVXMP_IO@@_JW4SeekMode@@@Z 0000000180020f74 f   GIF_Handler.obj
 0001:0002001c       ?UpdateFile@GIF_MetaHandler@@UEAAX_N@Z 000000018002101c f   GIF_Handler.obj
 0001:000200d0       ?WriteTempFile@GIF_MetaHandler@@UEAAXPEAVXMP_IO@@@Z 00000001800210d0 f   GIF_Handler.obj
 0001:000202d4       ?InDesign_MetaHandlerCTor@@YAPEAVXMPFileHandler@@PEAVXMPFiles@@@Z 00000001800212d4 f   InDesign_Handler.obj
 0001:00020344       ?InDesign_CheckFormat@@YA_NKPEBDPEAVXMP_IO@@PEAVXMPFiles@@@Z 0000000180021344 f   InDesign_Handler.obj
 0001:000203ec       ??_EInDesign_MetaHandler@@UEAAPEAXI@Z 00000001800213ec f i * CIL library *:* CIL module *
 0001:000203ec       ??_GInDesign_MetaHandler@@UEAAPEAXI@Z 00000001800213ec f i InDesign_Handler.obj
 0001:0002042c       ?CacheFileData@InDesign_MetaHandler@@UEAAXXZ 000000018002142c f   InDesign_Handler.obj
 0001:000207dc       ?WriteXMPPrefix@InDesign_MetaHandler@@MEAAXPEAVXMP_IO@@@Z 00000001800217dc f   InDesign_Handler.obj
 0001:00020898       ?WriteXMPSuffix@InDesign_MetaHandler@@MEAAXPEAVXMP_IO@@@Z 0000000180021898 f   InDesign_Handler.obj
 0001:0002092c       ?RestoreFileEnding@InDesign_MetaHandler@@MEAAXPEAVXMP_IO@@@Z 000000018002192c f   InDesign_Handler.obj
 0001:000209b4       ??1TIFF_Manager@@UEAA@XZ   00000001800219b4 f i JPEG_Handler.obj
 0001:000209c0       ?SetErrorCallback@TIFF_Manager@@UEAAXPEAVGenericErrorCallback@@@Z 00000001800219c0 f i JPEG_Handler.obj
 0001:000209c8       ??_ETIFF_Manager@@UEAAPEAXI@Z 00000001800219c8 f i * CIL library *:* CIL module *
 0001:000209c8       ??_GTIFF_Manager@@UEAAPEAXI@Z 00000001800219c8 f i JPEG_Handler.obj
 0001:000209f4       ?HasExifIFD@TIFF_MemoryReader@@UEBA_NXZ 00000001800219f4 f i JPEG_Handler.obj
 0001:00020a00       ?HasGPSInfoIFD@TIFF_MemoryReader@@UEBA_NXZ 0000000180021a00 f i JPEG_Handler.obj
 0001:00020a0c       ?DeleteTag@TIFF_MemoryReader@@UEAAXEG@Z 0000000180021a0c f i JPEG_Handler.obj
 0001:00020a0c       ?IntegrateFromPShop6@TIFF_MemoryReader@@UEAAXPEBX_K@Z 0000000180021a0c f i JPEG_Handler.obj
 0001:00020a0c       ?ParseFileStream@TIFF_MemoryReader@@UEAAXPEAVXMP_IO@@@Z 0000000180021a0c f i JPEG_Handler.obj
 0001:00020a0c       ?SetTag@TIFF_MemoryReader@@UEAAXEGGKPEBX@Z 0000000180021a0c f i JPEG_Handler.obj
 0001:00020a0c       ?SetTag_EncodedString@TIFF_MemoryReader@@UEAAXEGAEBV?$basic_string@DU?$char_traits@D@std@@V?$allocator@D@2@@std@@E@Z 0000000180021a0c f i JPEG_Handler.obj
 0001:00020a0c       ?UpdateFileStream@TIFF_MemoryReader@@UEAAXPEAVXMP_IO@@PEAVXMP_ProgressTracker@@@Z 0000000180021a0c f i JPEG_Handler.obj
 0001:00020a18       ?GetTiffLength@TIFF_FileWriter@@UEBAKXZ 0000000180021a18 f i TIFF_FileWriter.obj
 0001:00020a18       ?GetTiffLength@TIFF_MemoryReader@@UEBAKXZ 0000000180021a18 f i JPEG_Handler.obj
 0001:00020a1c       ?GetTiffStream@TIFF_FileWriter@@UEBAPEAEXZ 0000000180021a1c f i TIFF_FileWriter.obj
 0001:00020a1c       ?GetTiffStream@TIFF_MemoryReader@@UEBAPEAEXZ 0000000180021a1c f i JPEG_Handler.obj
 0001:00020a24       ?GetClipUmid@XDCAM_MetaHandler@@MEAA_NAEAV?$basic_string@DU?$char_traits@D@std@@V?$allocator@D@2@@std@@@Z 0000000180021a24 f i XDCAM_Handler.obj
 0001:00020a24       ?GetMediaProMetadata@XDCAM_MetaHandler@@MEAA_NPEAV?$TXMPMeta@V?$basic_string@DU?$char_traits@D@std@@V?$allocator@D@2@@std@@@@AEBV?$basic_string@DU?$char_traits@D@std@@V?$allocator@D@2@@std@@_N@Z 0000000180021a24 f i XDCAMSAM_Handler.obj
 0001:00020a24       ?IsChanged@IPTC_Reader@@UEAA_NXZ 0000000180021a24 f i JPEG_Handler.obj
 0001:00020a24       ?IsChanged@PSIR_MemoryReader@@UEAA_NXZ 0000000180021a24 f i JPEG_Handler.obj
 0001:00020a24       ?IsChanged@TIFF_MemoryReader@@UEAA_NXZ 0000000180021a24 f i JPEG_Handler.obj
 0001:00020a24       ?IsLegacyChanged@PSIR_MemoryReader@@UEAA_NXZ 0000000180021a24 f i JPEG_Handler.obj
 0001:00020a24       ?IsLegacyChanged@TIFF_MemoryReader@@UEAA_NXZ 0000000180021a24 f i JPEG_Handler.obj
 0001:00020a24       ?MakeClipFilePath@XDCAM_MetaHandler@@MEAA_NPEAV?$basic_string@DU?$char_traits@D@std@@V?$allocator@D@2@@std@@PEBD_N@Z 0000000180021a24 f i XDCAM_Handler.obj
 0001:00020a28       ?UpdateMemoryStream@TIFF_MemoryReader@@UEAAKPEAPEAX_N@Z 0000000180021a28 f i JPEG_Handler.obj
 0001:00020a38       ??1TIFF_MemoryReader@@UEAA@XZ 0000000180021a38 f i JPEG_Handler.obj
 0001:00020a6c       ?NotAppropriate@TIFF_MemoryReader@@CAXXZ 0000000180021a6c f i JPEG_Handler.obj
 0001:00020a98       ??_ETIFF_MemoryReader@@UEAAPEAXI@Z 0000000180021a98 f i * CIL library *:* CIL module *
 0001:00020a98       ??_GTIFF_MemoryReader@@UEAAPEAXI@Z 0000000180021a98 f i JPEG_Handler.obj
 0001:00020aec       ??1PSIR_Manager@@UEAA@XZ   0000000180021aec f i JPEG_Handler.obj
 0001:00020af8       ??_EPSIR_Manager@@UEAAPEAXI@Z 0000000180021af8 f i * CIL library *:* CIL module *
 0001:00020af8       ??_GPSIR_Manager@@UEAAPEAXI@Z 0000000180021af8 f i JPEG_Handler.obj
 0001:00020b24       ?DeleteImgRsrc@PSIR_MemoryReader@@UEAAXG@Z 0000000180021b24 f i JPEG_Handler.obj
 0001:00020b24       ?ParseFileResources@PSIR_MemoryReader@@UEAAXPEAVXMP_IO@@K@Z 0000000180021b24 f i JPEG_Handler.obj
 0001:00020b24       ?SetImgRsrc@PSIR_MemoryReader@@UEAAXGPEBXK@Z 0000000180021b24 f i JPEG_Handler.obj
 0001:00020b24       ?UpdateFileResources@PSIR_MemoryReader@@UEAAKPEAVXMP_IO@@0P6A_NPEAX@Z1PEAVXMP_ProgressTracker@@@Z 0000000180021b24 f i JPEG_Handler.obj
 0001:00020b30       ?UpdateMemoryResources@PSIR_MemoryReader@@UEAAKPEAPEAX@Z 0000000180021b30 f i JPEG_Handler.obj
 0001:00020b40       ??1PSIR_MemoryReader@@UEAA@XZ 0000000180021b40 f i JPEG_Handler.obj
 0001:00020bc8       ?NotAppropriate@PSIR_MemoryReader@@CAXXZ 0000000180021bc8 f i JPEG_Handler.obj
 0001:00020bf4       ??_EPSIR_MemoryReader@@UEAAPEAXI@Z 0000000180021bf4 f i * CIL library *:* CIL module *
 0001:00020bf4       ??_GPSIR_MemoryReader@@UEAAPEAXI@Z 0000000180021bf4 f i JPEG_Handler.obj
 0001:00020c28       ?IsChanged@PSIR_FileWriter@@UEAA_NXZ 0000000180021c28 f i JPEG_Handler.obj
 0001:00020c2c       ??0PSIR_FileWriter@@QEAA@XZ 0000000180021c2c f i JPEG_Handler.obj
 0001:00020ca4       ??1InternalRsrcInfo@PSIR_FileWriter@@QEAA@XZ 0000000180021ca4 f i JPEG_Handler.obj
 0001:00020cf4       ??_EPSIR_FileWriter@@UEAAPEAXI@Z 0000000180021cf4 f i * CIL library *:* CIL module *
 0001:00020cf4       ??_GPSIR_FileWriter@@UEAAPEAXI@Z 0000000180021cf4 f i JPEG_Handler.obj
 0001:00020d28       ??1IPTC_Manager@@UEAA@XZ   0000000180021d28 f i JPEG_Handler.obj
 0001:00020d98       ??_EIPTC_Manager@@UEAAPEAXI@Z 0000000180021d98 f i * CIL library *:* CIL module *
 0001:00020d98       ??_GIPTC_Manager@@UEAAPEAXI@Z 0000000180021d98 f i JPEG_Handler.obj
 0001:00020dcc       ??0IPTC_Reader@@QEAA@XZ    0000000180021dcc f i JPEG_Handler.obj
 0001:00020e44       ?DeleteDataSet@IPTC_Reader@@UEAAXEJ@Z 0000000180021e44 f i JPEG_Handler.obj
 0001:00020e44       ?SetDataSet_UTF8@IPTC_Reader@@UEAAXEPEBXKJ@Z 0000000180021e44 f i JPEG_Handler.obj
 0001:00020e44       ?UpdateMemoryDataSets@IPTC_Reader@@UEAAXXZ 0000000180021e44 f i JPEG_Handler.obj
 0001:00020e50       ?NotAppropriate@IPTC_Reader@@CAXXZ 0000000180021e50 f i JPEG_Handler.obj
 0001:00020e7c       ??_EIPTC_Reader@@UEAAPEAXI@Z 0000000180021e7c f i * CIL library *:* CIL module *
 0001:00020e7c       ??_GIPTC_Reader@@UEAAPEAXI@Z 0000000180021e7c f i JPEG_Handler.obj
 0001:00020ebc       ?IsChanged@IPTC_Writer@@UEAA_NXZ 0000000180021ebc f i JPEG_Handler.obj
 0001:00020ec0       ??0IPTC_Writer@@QEAA@XZ    0000000180021ec0 f i JPEG_Handler.obj
 0001:00020f38       ??_EIPTC_Writer@@UEAAPEAXI@Z 0000000180021f38 f i * CIL library *:* CIL module *
 0001:00020f38       ??_GIPTC_Writer@@UEAAPEAXI@Z 0000000180021f38 f i JPEG_Handler.obj
 0001:00020f6c       ??_EJPEG_MetaHandler@@UEAAPEAXI@Z 0000000180021f6c f i * CIL library *:* CIL module *
 0001:00020f6c       ??_GJPEG_MetaHandler@@UEAAPEAXI@Z 0000000180021f6c f i JPEG_Handler.obj
 0001:00020fa0       ?JPEG_MetaHandlerCTor@@YAPEAVXMPFileHandler@@PEAVXMPFiles@@@Z 0000000180021fa0 f   JPEG_Handler.obj
 0001:00020fcc       ?JPEG_CheckFormat@@YA_NKPEBDPEAVXMP_IO@@PEAVXMPFiles@@@Z 0000000180021fcc f   JPEG_Handler.obj
 0001:00021098       ??0JPEG_MetaHandler@@QEAA@PEAVXMPFiles@@@Z 0000000180022098 f   JPEG_Handler.obj
 0001:00021180       ??1JPEG_MetaHandler@@UEAA@XZ 0000000180022180 f   JPEG_Handler.obj
 0001:00021668       ??1ExtXMPContent@@QEAA@XZ  0000000180022668 f i JPEG_Handler.obj
 0001:00021674       ??1?$pair@$$CBUGUID_32@JPEG_MetaHandler@@UExtXMPContent@@@std@@QEAA@XZ 0000000180022674 f i JPEG_Handler.obj
 0001:00021680       ??1?$pair@$$CBKV?$basic_string@DU?$char_traits@D@std@@V?$allocator@D@2@@std@@@std@@QEAA@XZ 0000000180022680 f i JPEG_Handler.obj
 0001:0002168c       ?CacheFileData@JPEG_MetaHandler@@UEAAXXZ 000000018002268c f   JPEG_Handler.obj
 0001:00021cb4       ??1?$map@UGUID_32@JPEG_MetaHandler@@UExtXMPContent@@U?$less@UGUID_32@JPEG_MetaHandler@@@std@@V?$allocator@U?$pair@$$CBUGUID_32@JPEG_MetaHandler@@UExtXMPContent@@@std@@@5@@std@@QEAA@XZ 0000000180022cb4 f i JPEG_Handler.obj
 0001:00021cbc       ??1?$pair@$$CBUGUID_32@JPEG_MetaHandler@@V?$basic_string@DU?$char_traits@D@std@@V?$allocator@D@2@@std@@@std@@QEAA@XZ 0000000180022cbc f i JPEG_Handler.obj
 0001:00021cbc       ??1TimecodeTrackInfo@MPEG4_MetaHandler@@QEAA@XZ 0000000180022cbc f i MPEG4_Handler.obj
 0001:00022044       ??1?$map@GUTagInfo@TIFF_Manager@@U?$less@G@std@@V?$allocator@U?$pair@$$CBGUTagInfo@TIFF_Manager@@@std@@@4@@std@@QEAA@XZ 0000000180023044 f i JPEG_Handler.obj
 0001:00022098       ?ProcessXMP@JPEG_MetaHandler@@UEAAXXZ 0000000180023098 f   JPEG_Handler.obj
 0001:000226d8       ?UpdateFile@JPEG_MetaHandler@@UEAAX_N@Z 00000001800236d8 f   JPEG_Handler.obj
 0001:000228b8       ?WriteTempFile@JPEG_MetaHandler@@UEAAXPEAVXMP_IO@@@Z 00000001800238b8 f   JPEG_Handler.obj
 0001:00023350       ??$?0AEAUGUID_32@JPEG_MetaHandler@@AEAUExtXMPContent@@$0A@@?$pair@$$CBUGUID_32@JPEG_MetaHandler@@UExtXMPContent@@@std@@QEAA@AEAUGUID_32@JPEG_MetaHandler@@AEAUExtXMPContent@@@Z 0000000180024350 f i JPEG_Handler.obj
 0001:00023450       ??$insert@$0A@$0A@@?$_Tree@V?$_Tmap_traits@UGUID_32@JPEG_MetaHandler@@V?$basic_string@DU?$char_traits@D@std@@V?$allocator@D@2@@std@@U?$less@UGUID_32@JPEG_MetaHandler@@@4@V?$allocator@U?$pair@$$CBUGUID_32@JPEG_MetaHandler@@V?$basic_string@DU?$char_traits@D@std@@V?$allocator@D@2@@std@@@std@@@4@$0A@@std@@@std@@QEAA?AU?$pair@V?$_Tree_iterator@V?$_Tree_val@U?$_Tree_simple_types@U?$pair@$$CBUGUID_32@JPEG_MetaHandler@@V?$basic_string@DU?$char_traits@D@std@@V?$allocator@D@2@@std@@@std@@@std@@@std@@@std@@_N@1@$$QEAU?$pair@$$CBUGUID_32@JPEG_MetaHandler@@V?$basic_string@DU?$char_traits@D@std@@V?$allocator@D@2@@std@@@1@@Z 0000000180024450 f i JPEG_Handler.obj
 0001:000235c4       ?insert@?$_Tree@V?$_Tmap_traits@UGUID_32@JPEG_MetaHandler@@UExtXMPContent@@U?$less@UGUID_32@JPEG_MetaHandler@@@std@@V?$allocator@U?$pair@$$CBUGUID_32@JPEG_MetaHandler@@UExtXMPContent@@@std@@@5@$0A@@std@@@std@@QEAA?AV?$_Tree_iterator@V?$_Tree_val@U?$_Tree_simple_types@U?$pair@$$CBUGUID_32@JPEG_MetaHandler@@UExtXMPContent@@@std@@@std@@@std@@@2@V?$_Tree_const_iterator@V?$_Tree_val@U?$_Tree_simple_types@U?$pair@$$CBUGUID_32@JPEG_MetaHandler@@UExtXMPContent@@@std@@@std@@@std@@@2@$$QEAU?$pair@$$CBUGUID_32@JPEG_MetaHandler@@UExtXMPContent@@@2@@Z 00000001800245c4 f i JPEG_Handler.obj
 0001:00023700       ??1?$_Tree@V?$_Tmap_traits@UGUID_32@JPEG_MetaHandler@@UExtXMPContent@@U?$less@UGUID_32@JPEG_MetaHandler@@@std@@V?$allocator@U?$pair@$$CBUGUID_32@JPEG_MetaHandler@@UExtXMPContent@@@std@@@5@$0A@@std@@@std@@QEAA@XZ 0000000180024700 f i JPEG_Handler.obj
 0001:0002376c       ??1?$_Tree@V?$_Tmap_traits@KV?$basic_string@DU?$char_traits@D@std@@V?$allocator@D@2@@std@@U?$less@K@2@V?$allocator@U?$pair@$$CBKV?$basic_string@DU?$char_traits@D@std@@V?$allocator@D@2@@std@@@std@@@2@$0A@@std@@@std@@QEAA@XZ 000000018002476c f i JPEG_Handler.obj
 0001:000237d8       ??1?$_Tree@V?$_Tmap_traits@UGUID_32@JPEG_MetaHandler@@V?$basic_string@DU?$char_traits@D@std@@V?$allocator@D@2@@std@@U?$less@UGUID_32@JPEG_MetaHandler@@@4@V?$allocator@U?$pair@$$CBUGUID_32@JPEG_MetaHandler@@V?$basic_string@DU?$char_traits@D@std@@V?$allocator@D@2@@std@@@std@@@4@$0A@@std@@@std@@QEAA@XZ 00000001800247d8 f i JPEG_Handler.obj
 0001:00023844       ??$_Emplace_hint@U?$pair@$$CBKV?$basic_string@DU?$char_traits@D@std@@V?$allocator@D@2@@std@@@std@@@?$_Tree@V?$_Tmap_traits@KV?$basic_string@DU?$char_traits@D@std@@V?$allocator@D@2@@std@@U?$less@K@2@V?$allocator@U?$pair@$$CBKV?$basic_string@DU?$char_traits@D@std@@V?$allocator@D@2@@std@@@std@@@2@$0A@@std@@@std@@IEAAPEAU?$_Tree_node@U?$pair@$$CBKV?$basic_string@DU?$char_traits@D@std@@V?$allocator@D@2@@std@@@std@@PEAX@1@QEAU21@$$QEAU?$pair@$$CBKV?$basic_string@DU?$char_traits@D@std@@V?$allocator@D@2@@std@@@1@@Z 0000000180024844 f i JPEG_Handler.obj
 0001:00023adc       ??$_Find_hint@UGUID_32@JPEG_MetaHandler@@@?$_Tree@V?$_Tmap_traits@UGUID_32@JPEG_MetaHandler@@UExtXMPContent@@U?$less@UGUID_32@JPEG_MetaHandler@@@std@@V?$allocator@U?$pair@$$CBUGUID_32@JPEG_MetaHandler@@UExtXMPContent@@@std@@@5@$0A@@std@@@std@@IEBA?AU?$_Tree_find_hint_result@PEAU?$_Tree_node@U?$pair@$$CBUGUID_32@JPEG_MetaHandler@@UExtXMPContent@@@std@@PEAX@std@@@1@QEAU?$_Tree_node@U?$pair@$$CBUGUID_32@JPEG_MetaHandler@@UExtXMPContent@@@std@@PEAX@1@AEBUGUID_32@JPEG_MetaHandler@@@Z 0000000180024adc f i JPEG_Handler.obj
 0001:00023d9c       ??$_Erase_tree@V?$allocator@U?$_Tree_node@U?$pair@$$CBUGUID_32@JPEG_MetaHandler@@UExtXMPContent@@@std@@PEAX@std@@@std@@@?$_Tree_val@U?$_Tree_simple_types@U?$pair@$$CBUGUID_32@JPEG_MetaHandler@@UExtXMPContent@@@std@@@std@@@std@@QEAAXAEAV?$allocator@U?$_Tree_node@U?$pair@$$CBUGUID_32@JPEG_MetaHandler@@UExtXMPContent@@@std@@PEAX@std@@@1@PEAU?$_Tree_node@U?$pair@$$CBUGUID_32@JPEG_MetaHandler@@UExtXMPContent@@@std@@PEAX@1@@Z 0000000180024d9c f i JPEG_Handler.obj
 0001:00023e0c       ??$_Erase_tree@V?$allocator@U?$_Tree_node@U?$pair@$$CBKV?$basic_string@DU?$char_traits@D@std@@V?$allocator@D@2@@std@@@std@@PEAX@std@@@std@@@?$_Tree_val@U?$_Tree_simple_types@U?$pair@$$CBKV?$basic_string@DU?$char_traits@D@std@@V?$allocator@D@2@@std@@@std@@@std@@@std@@QEAAXAEAV?$allocator@U?$_Tree_node@U?$pair@$$CBKV?$basic_string@DU?$char_traits@D@std@@V?$allocator@D@2@@std@@@std@@PEAX@std@@@1@PEAU?$_Tree_node@U?$pair@$$CBKV?$basic_string@DU?$char_traits@D@std@@V?$allocator@D@2@@std@@@std@@PEAX@1@@Z 0000000180024e0c f i JPEG_Handler.obj
 0001:00023e0c       ??$_Erase_tree_and_orphan@V?$allocator@U?$_Tree_node@U?$pair@$$CBKV?$basic_string@DU?$char_traits@D@std@@V?$allocator@D@2@@std@@@std@@PEAX@std@@@std@@@?$_Tree_val@U?$_Tree_simple_types@U?$pair@$$CBKV?$basic_string@DU?$char_traits@D@std@@V?$allocator@D@2@@std@@@std@@@std@@@std@@QEAAXAEAV?$allocator@U?$_Tree_node@U?$pair@$$CBKV?$basic_string@DU?$char_traits@D@std@@V?$allocator@D@2@@std@@@std@@PEAX@std@@@1@PEAU?$_Tree_node@U?$pair@$$CBKV?$basic_string@DU?$char_traits@D@std@@V?$allocator@D@2@@std@@@std@@PEAX@1@@Z 0000000180024e0c f i JPEG_Handler.obj
 0001:00023e7c       ??$_Erase_tree@V?$allocator@U?$_Tree_node@U?$pair@$$CBUGUID_32@JPEG_MetaHandler@@V?$basic_string@DU?$char_traits@D@std@@V?$allocator@D@2@@std@@@std@@PEAX@std@@@std@@@?$_Tree_val@U?$_Tree_simple_types@U?$pair@$$CBUGUID_32@JPEG_MetaHandler@@V?$basic_string@DU?$char_traits@D@std@@V?$allocator@D@2@@std@@@std@@@std@@@std@@QEAAXAEAV?$allocator@U?$_Tree_node@U?$pair@$$CBUGUID_32@JPEG_MetaHandler@@V?$basic_string@DU?$char_traits@D@std@@V?$allocator@D@2@@std@@@std@@PEAX@std@@@1@PEAU?$_Tree_node@U?$pair@$$CBUGUID_32@JPEG_MetaHandler@@V?$basic_string@DU?$char_traits@D@std@@V?$allocator@D@2@@std@@@std@@PEAX@1@@Z 0000000180024e7c f i JPEG_Handler.obj
 0001:00023eec       ??$_Erase_tree@V?$allocator@U?$_Tree_node@U?$pair@$$CBGUDataSetInfo@IPTC_Manager@@@std@@PEAX@std@@@std@@@?$_Tree_val@U?$_Tree_simple_types@U?$pair@$$CBGUDataSetInfo@IPTC_Manager@@@std@@@std@@@std@@QEAAXAEAV?$allocator@U?$_Tree_node@U?$pair@$$CBGUDataSetInfo@IPTC_Manager@@@std@@PEAX@std@@@1@PEAU?$_Tree_node@U?$pair@$$CBGUDataSetInfo@IPTC_Manager@@@std@@PEAX@1@@Z 0000000180024eec f i JPEG_Handler.obj
 0001:00023f40       ??$_Erase_tree@V?$allocator@U?$_Tree_node@U?$pair@$$CBGUInternalRsrcInfo@PSIR_FileWriter@@@std@@PEAX@std@@@std@@@?$_Tree_val@U?$_Tree_simple_types@U?$pair@$$CBGUInternalRsrcInfo@PSIR_FileWriter@@@std@@@std@@@std@@QEAAXAEAV?$allocator@U?$_Tree_node@U?$pair@$$CBGUInternalRsrcInfo@PSIR_FileWriter@@@std@@PEAX@std@@@1@PEAU?$_Tree_node@U?$pair@$$CBGUInternalRsrcInfo@PSIR_FileWriter@@@std@@PEAX@1@@Z 0000000180024f40 f i JPEG_Handler.obj
 0001:00023ff0       ??1?$_Alloc_construct_ptr@V?$allocator@U?$_Tree_node@U?$pair@$$CBUGUID_32@JPEG_MetaHandler@@UExtXMPContent@@@std@@PEAX@std@@@std@@@std@@QEAA@XZ 0000000180024ff0 f i JPEG_Handler.obj
 0001:00023ff0       ??1?$_Tree_temp_node_alloc@V?$allocator@U?$_Tree_node@U?$pair@$$CBUGUID_32@JPEG_MetaHandler@@UExtXMPContent@@@std@@PEAX@std@@@std@@@std@@QEAA@XZ 0000000180024ff0 f i JPEG_Handler.obj
 0001:0002400c       ??1?$_Tree_head_scoped_ptr@V?$allocator@U?$_Tree_node@U?$pair@$$CBKV?$basic_string@DU?$char_traits@D@std@@V?$allocator@D@2@@std@@@std@@PEAX@std@@@std@@V?$_Tree_val@U?$_Tree_simple_types@U?$pair@$$CBKV?$basic_string@DU?$char_traits@D@std@@V?$allocator@D@2@@std@@@std@@@std@@@2@@std@@QEAA@XZ 000000018002500c f i JPEG_Handler.obj
 0001:0002408c       ??1?$_Alloc_construct_ptr@V?$allocator@U?$_Tree_node@U?$pair@$$CBGUInternalRsrcInfo@PSIR_FileWriter@@@std@@PEAX@std@@@std@@@std@@QEAA@XZ 000000018002508c f i PSIR_FileWriter.obj
 0001:0002408c       ??1?$_Alloc_construct_ptr@V?$allocator@U?$_Tree_node@U?$pair@$$CBKUFileHandlerPair@XMP_PLUGIN@@@std@@PEAX@std@@@std@@@std@@QEAA@XZ 000000018002508c f i PluginManager.obj
 0001:0002408c       ??1?$_Alloc_construct_ptr@V?$allocator@U?$_Tree_node@U?$pair@$$CBKV?$basic_string@DU?$char_traits@D@std@@V?$allocator@D@2@@std@@@std@@PEAX@std@@@std@@@std@@QEAA@XZ 000000018002508c f i JPEG_Handler.obj
 0001:0002408c       ??1?$_Alloc_construct_ptr@V?$allocator@U?$_Tree_node@U?$pair@$$CBV?$basic_string@DU?$char_traits@D@std@@V?$allocator@D@2@@std@@K@std@@PEAX@std@@@std@@@std@@QEAA@XZ 000000018002508c f i XMPAtoms.obj
 0001:0002408c       ??1?$_Alloc_construct_ptr@V?$allocator@U?$_Tree_node@U?$pair@$$CBV?$basic_string@DU?$char_traits@D@std@@V?$allocator@D@2@@std@@_J@std@@PEAX@std@@@std@@@std@@QEAA@XZ 000000018002508c f i SVG_Adapter.obj
 0001:0002408c       ??1?$_Tree_temp_node_alloc@V?$allocator@U?$_Tree_node@U?$pair@$$CBV?$basic_string@DU?$char_traits@D@std@@V?$allocator@D@2@@std@@K@std@@PEAX@std@@@std@@@std@@QEAA@XZ 000000018002508c f i XMPAtoms.obj
 0001:000240a8       ??$_Copy_nodes@$0A@@?$_Tree@V?$_Tmap_traits@KV?$basic_string@DU?$char_traits@D@std@@V?$allocator@D@2@@std@@U?$less@K@2@V?$allocator@U?$pair@$$CBKV?$basic_string@DU?$char_traits@D@std@@V?$allocator@D@2@@std@@@std@@@2@$0A@@std@@@std@@IEAAPEAU?$_Tree_node@U?$pair@$$CBKV?$basic_string@DU?$char_traits@D@std@@V?$allocator@D@2@@std@@@std@@PEAX@1@PEAU21@0@Z 00000001800250a8 f i JPEG_Handler.obj
 0001:00024188       ??1?$pair@$$CBGUInternalRsrcInfo@PSIR_FileWriter@@@std@@QEAA@XZ 0000000180025188 f i JPEG_Handler.obj
 0001:000241d8       ??1?$_Erase_tree_and_orphan_guard@V?$allocator@U?$_Tree_node@U?$pair@$$CBKV?$basic_string@DU?$char_traits@D@std@@V?$allocator@D@2@@std@@@std@@PEAX@std@@@std@@@?$_Tree_val@U?$_Tree_simple_types@U?$pair@$$CBKV?$basic_string@DU?$char_traits@D@std@@V?$allocator@D@2@@std@@@std@@@std@@@std@@QEAA@XZ 00000001800251d8 f i JPEG_Handler.obj
 0001:00024248       ?MP3_MetaHandlerCTor@@YAPEAVXMPFileHandler@@PEAVXMPFiles@@@Z 0000000180025248 f   MP3_Handler.obj
 0001:00024274       ?MP3_CheckFormat@@YA_NKPEBDPEAVXMP_IO@@PEAVXMPFiles@@@Z 0000000180025274 f   MP3_Handler.obj
 0001:000243fc       ??0MP3_MetaHandler@@QEAA@PEAVXMPFiles@@@Z 00000001800253fc f   MP3_Handler.obj
 0001:000244c4       ??_EMP3_MetaHandler@@UEAAPEAXI@Z 00000001800254c4 f i * CIL library *:* CIL module *
 0001:000244c4       ??_GMP3_MetaHandler@@UEAAPEAXI@Z 00000001800254c4 f i MP3_Handler.obj
 0001:000244f8       ??1MP3_MetaHandler@@UEAA@XZ 00000001800254f8 f   MP3_Handler.obj
 0001:000245f4       ??_GID3v2Frame@ID3_Support@@QEAAPEAXI@Z 00000001800255f4 f i MP3_Handler.obj
 0001:00024630       ?CacheFileData@MP3_MetaHandler@@UEAAXXZ 0000000180025630 f   MP3_Handler.obj
 0001:00024cc4       ?ProcessXMP@MP3_MetaHandler@@UEAAXXZ 0000000180025cc4 f   MP3_Handler.obj
 0001:000255b8       ?UpdateFile@MP3_MetaHandler@@UEAAX_N@Z 00000001800265b8 f   MP3_Handler.obj
 0001:00026500       ?WriteTempFile@MP3_MetaHandler@@UEAAXPEAVXMP_IO@@@Z 0000000180027500 f   MP3_Handler.obj
 0001:0002652c       ??$_Erase_tree@V?$allocator@U?$_Tree_node@U?$pair@$$CBKPEAUHostAPI@XMP_PLUGIN@@@std@@PEAX@std@@@std@@@?$_Tree_val@U?$_Tree_simple_types@U?$pair@$$CBKPEAUHostAPI@XMP_PLUGIN@@@std@@@std@@@std@@QEAAXAEAV?$allocator@U?$_Tree_node@U?$pair@$$CBKPEAUHostAPI@XMP_PLUGIN@@@std@@PEAX@std@@@1@PEAU?$_Tree_node@U?$pair@$$CBKPEAUHostAPI@XMP_PLUGIN@@@std@@PEAX@1@@Z 000000018002752c f i PluginManager.obj
 0001:0002652c       ??$_Erase_tree@V?$allocator@U?$_Tree_node@U?$pair@$$CBKPEAVID3v2Frame@ID3_Support@@@std@@PEAX@std@@@std@@@?$_Tree_val@U?$_Tree_simple_types@U?$pair@$$CBKPEAVID3v2Frame@ID3_Support@@@std@@@std@@@std@@QEAAXAEAV?$allocator@U?$_Tree_node@U?$pair@$$CBKPEAVID3v2Frame@ID3_Support@@@std@@PEAX@std@@@1@PEAU?$_Tree_node@U?$pair@$$CBKPEAVID3v2Frame@ID3_Support@@@std@@PEAX@1@@Z 000000018002752c f i MP3_Handler.obj
 0001:0002652c       ??$_Erase_tree@V?$allocator@U?$_Tree_node@U?$pair@$$CBKPEAVValueChunk@RIFF@@@std@@PEAX@std@@@std@@@?$_Tree_val@U?$_Tree_simple_types@U?$pair@$$CBKPEAVValueChunk@RIFF@@@std@@@std@@@std@@QEAAXAEAV?$allocator@U?$_Tree_node@U?$pair@$$CBKPEAVValueChunk@RIFF@@@std@@PEAX@std@@@1@PEAU?$_Tree_node@U?$pair@$$CBKPEAVValueChunk@RIFF@@@std@@PEAX@1@@Z 000000018002752c f i RIFF.obj
 0001:0002652c       ??$_Erase_tree@V?$allocator@U?$_Tree_node@U?$pair@$$CBKPEAVValueObject@@@std@@PEAX@std@@@std@@@?$_Tree_val@U?$_Tree_simple_types@U?$pair@$$CBKPEAVValueObject@@@std@@@std@@@std@@QEAAXAEAV?$allocator@U?$_Tree_node@U?$pair@$$CBKPEAVValueObject@@@std@@PEAX@std@@@1@PEAU?$_Tree_node@U?$pair@$$CBKPEAVValueObject@@@std@@PEAX@1@@Z 000000018002752c f i IMetadata.cpp.obj
 0001:0002652c       ??$_Erase_tree@V?$allocator@U?$_Tree_node@U?$pair@$$CB_KPEAULayoutInfo@@@std@@PEAX@std@@@std@@@?$_Tree_val@U?$_Tree_simple_types@U?$pair@$$CB_KPEAULayoutInfo@@@std@@@std@@@std@@QEAAXAEAV?$allocator@U?$_Tree_node@U?$pair@$$CB_KPEAULayoutInfo@@@std@@PEAX@std@@@1@PEAU?$_Tree_node@U?$pair@$$CB_KPEAULayoutInfo@@@std@@PEAX@1@@Z 000000018002752c f i MPEG4_Handler.obj
 0001:0002652c       ??$_Erase_tree@V?$allocator@U?$_Tree_node@U?$pair@QEAXPEAVFileHandlerInstance@XMP_PLUGIN@@@std@@PEAX@std@@@std@@@?$_Tree_val@U?$_Tree_simple_types@U?$pair@QEAXPEAVFileHandlerInstance@XMP_PLUGIN@@@std@@@std@@@std@@QEAAXAEAV?$allocator@U?$_Tree_node@U?$pair@QEAXPEAVFileHandlerInstance@XMP_PLUGIN@@@std@@PEAX@std@@@1@PEAU?$_Tree_node@U?$pair@QEAXPEAVFileHandlerInstance@XMP_PLUGIN@@@std@@PEAX@1@@Z 000000018002752c f i PluginManager.obj
 0001:0002652c       ??$_Erase_tree@V?$allocator@U?$_Tree_node@U?$pair@QEBDPEBD@std@@PEAX@std@@@std@@@?$_Tree_val@U?$_Tree_simple_types@U?$pair@QEBDPEBD@std@@@std@@@std@@QEAAXAEAV?$allocator@U?$_Tree_node@U?$pair@QEBDPEBD@std@@PEAX@std@@@1@PEAU?$_Tree_node@U?$pair@QEBDPEBD@std@@PEAX@1@@Z 000000018002752c f i ID3_Support.obj
 0001:00026580       ?MPEG2_MetaHandlerCTor@@YAPEAVXMPFileHandler@@PEAVXMPFiles@@@Z 0000000180027580 f   MPEG2_Handler.obj
 0001:000265ac       ?MPEG2_CheckFormat@@YA_NKPEBDPEAVXMP_IO@@PEAVXMPFiles@@@Z 00000001800275ac f   MPEG2_Handler.obj
 0001:000265c8       ??0MPEG2_MetaHandler@@QEAA@PEAVXMPFiles@@@Z 00000001800275c8 f   MPEG2_Handler.obj
 0001:000266e4       ??_EMPEG2_MetaHandler@@UEAAPEAXI@Z 00000001800276e4 f i * CIL library *:* CIL module *
 0001:000266e4       ??_GMPEG2_MetaHandler@@UEAAPEAXI@Z 00000001800276e4 f i MPEG2_Handler.obj
 0001:00026718       ??1MPEG2_MetaHandler@@UEAA@XZ 0000000180027718 f   MPEG2_Handler.obj
 0001:00026758       ?GetFileModDate@MPEG2_MetaHandler@@UEAA_NPEAUXMP_DateTime@@@Z 0000000180027758 f   MPEG2_Handler.obj
 0001:000267a0       ?FillAssociatedResources@MPEG2_MetaHandler@@UEAAXPEAV?$vector@V?$basic_string@DU?$char_traits@D@std@@V?$allocator@D@2@@std@@V?$allocator@V?$basic_string@DU?$char_traits@D@std@@V?$allocator@D@2@@std@@@2@@std@@@Z 00000001800277a0 f   MPEG2_Handler.obj
 0001:000267f8       ?IsMetadataWritable@MPEG2_MetaHandler@@UEAA_NXZ 00000001800277f8 f   MPEG2_Handler.obj
 0001:00026810       ?CacheFileData@MPEG2_MetaHandler@@UEAAXXZ 0000000180027810 f   MPEG2_Handler.obj
 0001:000269e8       ?UpdateFile@MPEG2_MetaHandler@@UEAAX_N@Z 00000001800279e8 f   MPEG2_Handler.obj
 0001:00026aec       ?WriteTempFile@MPEG2_MetaHandler@@UEAAXPEAVXMP_IO@@@Z 0000000180027aec f   MPEG2_Handler.obj
 0001:00026b18       __local_stdio_scanf_options 0000000180027b18 f i MPEG4_Handler.obj
 0001:00026b20       sscanf                     0000000180027b20 f i MPEG4_Handler.obj
 0001:00026b70       ??_EISOBaseMedia_Manager@@UEAAPEAXI@Z 0000000180027b70 f i * CIL library *:* CIL module *
 0001:00026b70       ??_GISOBaseMedia_Manager@@UEAAPEAXI@Z 0000000180027b70 f i MPEG4_Handler.obj
 0001:00026bc4       ??1BoxNode@ISOBaseMedia_Manager@@QEAA@XZ 0000000180027bc4 f i MPEG4_Handler.obj
 0001:00026be4       ??1MOOV_Manager@@UEAA@XZ   0000000180027be4 f i MPEG4_Handler.obj
 0001:00026c18       ??_EMOOV_Manager@@UEAAPEAXI@Z 0000000180027c18 f i * CIL library *:* CIL module *
 0001:00026c18       ??_GMOOV_Manager@@UEAAPEAXI@Z 0000000180027c18 f i MPEG4_Handler.obj
 0001:00026c6c       ??_EMPEG4_MetaHandler@@UEAAPEAXI@Z 0000000180027c6c f i * CIL library *:* CIL module *
 0001:00026c6c       ??_GMPEG4_MetaHandler@@UEAAPEAXI@Z 0000000180027c6c f i MPEG4_Handler.obj
 0001:00026ca0       ?MPEG4_CheckFormat@@YA_NKPEBDPEAVXMP_IO@@PEAVXMPFiles@@@Z 0000000180027ca0 f   MPEG4_Handler.obj
 0001:00026fd0       ?MPEG4_MetaHandlerCTor@@YAPEAVXMPFileHandler@@PEAVXMPFiles@@@Z 0000000180027fd0 f   MPEG4_Handler.obj
 0001:00026ffc       ??0MPEG4_MetaHandler@@QEAA@PEAVXMPFiles@@@Z 0000000180027ffc f   MPEG4_Handler.obj
 0001:00027154       ??1MPEG4_MetaHandler@@UEAA@XZ 0000000180028154 f   MPEG4_Handler.obj
 0001:0002729c       ?IsLeapYear@ASF_LegacyManager@@CA_NJ@Z 000000018002829c f   ASF_Support.obj
 0001:0002aefc       ?CacheFileData@MPEG4_MetaHandler@@UEAAXXZ 000000018002befc f   MPEG4_Handler.obj
 0001:0002b254       ?ProcessXMP@MPEG4_MetaHandler@@UEAAXXZ 000000018002c254 f   MPEG4_Handler.obj
 0001:0002b724       ?ParseTimecodeTrack@MPEG4_MetaHandler@@AEAA_NXZ 000000018002c724 f   MPEG4_Handler.obj
 0001:0002bd84       ?UpdateTopLevelBox@MPEG4_MetaHandler@@AEAAX_KKPEBEK@Z 000000018002cd84 f   MPEG4_Handler.obj
 0001:0002c1b0       ?OptimizeFileLayout@MPEG4_MetaHandler@@AEAAXXZ 000000018002d1b0 f   MPEG4_Handler.obj
 0001:0002cc64       ??1?$map@KPEAUHostAPI@XMP_PLUGIN@@U?$less@K@std@@V?$allocator@U?$pair@$$CBKPEAUHostAPI@XMP_PLUGIN@@@std@@@4@@std@@QEAA@XZ 000000018002dc64 f i PluginManager.obj
 0001:0002cc64       ??1?$map@KPEAVValueChunk@RIFF@@U?$less@K@std@@V?$allocator@U?$pair@$$CBKPEAVValueChunk@RIFF@@@std@@@4@@std@@QEAA@XZ 000000018002dc64 f i RIFF.obj
 0001:0002cc64       ??1?$map@PEAXPEAVFileHandlerInstance@XMP_PLUGIN@@U?$less@PEAX@std@@V?$allocator@U?$pair@QEAXPEAVFileHandlerInstance@XMP_PLUGIN@@@std@@@4@@std@@QEAA@XZ 000000018002dc64 f i PluginManager.obj
 0001:0002cc64       ??1?$map@_KPEAULayoutInfo@@U?$less@_K@std@@V?$allocator@U?$pair@$$CB_KPEAULayoutInfo@@@std@@@3@@std@@QEAA@XZ 000000018002dc64 f i MPEG4_Handler.obj
 0001:0002ccb8       ?UpdateFile@MPEG4_MetaHandler@@UEAAX_N@Z 000000018002dcb8 f   MPEG4_Handler.obj
 0001:0002d1a0       ?WriteTempFile@MPEG4_MetaHandler@@UEAAXPEAVXMP_IO@@@Z 000000018002e1a0 f   MPEG4_Handler.obj
 0001:0002d278       ??$?9DU?$char_traits@D@std@@V?$allocator@D@1@@std@@YA_NAEBV?$basic_string@DU?$char_traits@D@std@@V?$allocator@D@2@@0@0@Z 000000018002e278 f i MPEG4_Handler.obj
 0001:0002d2c4       ??1?$vector@ULayoutInfo@@V?$allocator@ULayoutInfo@@@std@@@std@@QEAA@XZ 000000018002e2c4 f i MPEG4_Handler.obj
 0001:0002d340       ??1?$vector@UBoxInfo@ISOBaseMedia_Manager@@V?$allocator@UBoxInfo@ISOBaseMedia_Manager@@@std@@@std@@QEAA@XZ 000000018002e340 f i MPEG4_Handler.obj
 0001:0002d340       ?_Tidy@?$vector@USnipInfo@XMPScanner@@V?$allocator@USnipInfo@XMPScanner@@@std@@@std@@AEAAXXZ 000000018002e340 f i PostScript_Handler.obj
 0001:0002d3d0       ??1?$vector@UMetaItemBoxInfo@TradQT_Manager@@V?$allocator@UMetaItemBoxInfo@TradQT_Manager@@@std@@@std@@QEAA@XZ 000000018002e3d0 f i MPEG4_Handler.obj
 0001:0002d49c       ??1?$vector@UDataBoxInfo@TradQT_Manager@@V?$allocator@UDataBoxInfo@TradQT_Manager@@@std@@@std@@QEAA@XZ 000000018002e49c f i MPEG4_Handler.obj
 0001:0002d49c       ??1?$vector@UDateTimeTokens@PostScript_Support@@V?$allocator@UDateTimeTokens@PostScript_Support@@@std@@@std@@QEAA@XZ 000000018002e49c f i PostScript_Support.obj
 0001:0002d558       ??1?$_Tree@V?$_Tmap_traits@KUParsedBoxInfo@TradQT_Manager@@U?$less@K@std@@V?$allocator@U?$pair@$$CBKUParsedBoxInfo@TradQT_Manager@@@std@@@4@$0A@@std@@@std@@QEAA@XZ 000000018002e558 f i MPEG4_Handler.obj
 0001:0002d5c4       ??1?$vector@UCheckFormat@XMP_PLUGIN@@V?$allocator@UCheckFormat@XMP_PLUGIN@@@std@@@std@@QEAA@XZ 000000018002e5c4 f i XMPAtoms.obj
 0001:0002d5c4       ??1?$vector@UValueInfo@TradQT_Manager@@V?$allocator@UValueInfo@TradQT_Manager@@@std@@@std@@QEAA@XZ 000000018002e5c4 f i MPEG4_Handler.obj
 0001:0002d684       ??1?$vector@UBoxNode@ISOBaseMedia_Manager@@V?$allocator@UBoxNode@ISOBaseMedia_Manager@@@std@@@std@@QEAA@XZ 000000018002e684 f i MPEG4_Handler.obj
 0001:0002d68c       ??1?$vector@U?$pair@PEBDPEBD@std@@V?$allocator@U?$pair@PEBDPEBD@std@@@2@@std@@QEAA@XZ 000000018002e68c f i WAVEReconcile.obj
 0001:0002d68c       ??1?$vector@USpaceInfo@ISOBaseMedia_Manager@@V?$allocator@USpaceInfo@ISOBaseMedia_Manager@@@std@@@std@@QEAA@XZ 000000018002e68c f i MPEG4_Handler.obj
 0001:0002d708       ?assign@?$vector@EV?$allocator@E@std@@@std@@QEAAX_KAEBE@Z 000000018002e708 f i MPEG4_Handler.obj
 0001:0002d858       ??$_Emplace_hint@U?$pair@$$CB_KPEAULayoutInfo@@@std@@@?$_Tree@V?$_Tmap_traits@_KPEAULayoutInfo@@U?$less@_K@std@@V?$allocator@U?$pair@$$CB_KPEAULayoutInfo@@@std@@@3@$0A@@std@@@std@@IEAAPEAU?$_Tree_node@U?$pair@$$CB_KPEAULayoutInfo@@@std@@PEAX@1@QEAU21@$$QEAU?$pair@$$CB_KPEAULayoutInfo@@@1@@Z 000000018002e858 f i MPEG4_Handler.obj
 0001:0002dab0       ?_Tidy@?$vector@UBoxNode@ISOBaseMedia_Manager@@V?$allocator@UBoxNode@ISOBaseMedia_Manager@@@std@@@std@@AEAAXXZ 000000018002eab0 f i MPEG4_Handler.obj
 0001:0002db74       ??$_Emplace_reallocate@ULayoutInfo@@@?$vector@ULayoutInfo@@V?$allocator@ULayoutInfo@@@std@@@std@@AEAAPEAULayoutInfo@@QEAU2@$$QEAU2@@Z 000000018002eb74 f i MPEG4_Handler.obj
 0001:0002dcf0       ??$_Emplace_reallocate@AEBUBoxInfo@ISOBaseMedia_Manager@@@?$vector@UBoxInfo@ISOBaseMedia_Manager@@V?$allocator@UBoxInfo@ISOBaseMedia_Manager@@@std@@@std@@AEAAPEAUBoxInfo@ISOBaseMedia_Manager@@QEAU23@AEBU23@@Z 000000018002ecf0 f i MPEG4_Handler.obj
 0001:0002def8       ??$_Erase_tree@V?$allocator@U?$_Tree_node@U?$pair@$$CBKUParsedBoxInfo@TradQT_Manager@@@std@@PEAX@std@@@std@@@?$_Tree_val@U?$_Tree_simple_types@U?$pair@$$CBKUParsedBoxInfo@TradQT_Manager@@@std@@@std@@@std@@QEAAXAEAV?$allocator@U?$_Tree_node@U?$pair@$$CBKUParsedBoxInfo@TradQT_Manager@@@std@@PEAX@std@@@1@PEAU?$_Tree_node@U?$pair@$$CBKUParsedBoxInfo@TradQT_Manager@@@std@@PEAX@1@@Z 000000018002eef8 f i MPEG4_Handler.obj
 0001:0002df68       ??1_Reallocation_guard@?$vector@UBoxInfo@ISOBaseMedia_Manager@@V?$allocator@UBoxInfo@ISOBaseMedia_Manager@@@std@@@std@@QEAA@XZ 000000018002ef68 f i MPEG4_Handler.obj
 0001:0002df68       ??1_Reallocation_guard@?$vector@USnipInfo@XMPScanner@@V?$allocator@USnipInfo@XMPScanner@@@std@@@std@@QEAA@XZ 000000018002ef68 f i XMPScanner.obj
 0001:0002df68       ??1_Simple_reallocation_guard@?$vector@USnipInfo@XMPScanner@@V?$allocator@USnipInfo@XMPScanner@@@std@@@std@@QEAA@XZ 000000018002ef68 f i XMPScanner.obj
 0001:0002dfcc       ??1CheckFormat@XMP_PLUGIN@@QEAA@XZ 000000018002efcc f i PluginManager.obj
 0001:0002dfcc       ??1ValueInfo@TradQT_Manager@@QEAA@XZ 000000018002efcc f i MPEG4_Handler.obj
 0001:0002dfd8       ??1?$pair@$$CBKUParsedBoxInfo@TradQT_Manager@@@std@@QEAA@XZ 000000018002efd8 f i MPEG4_Handler.obj
 0001:0002dfe4       ??1ParsedBoxInfo@TradQT_Manager@@QEAA@XZ 000000018002efe4 f i MPEG4_Handler.obj
 0001:0002dff0       ?GetSerializeOptions@P2_MetaHandler@@UEAAKXZ 000000018002eff0 f i P2_Handler.obj
 0001:0002dff0       ?GetSerializeOptions@SonyHDV_MetaHandler@@UEAAKXZ 000000018002eff0 f i SonyHDV_Handler.obj
 0001:0002dff0       ?GetSerializeOptions@XDCAMEX_MetaHandler@@UEAAKXZ 000000018002eff0 f i XDCAMEX_Handler.obj
 0001:0002dff0       ?GetSerializeOptions@XDCAM_MetaHandler@@UEAAKXZ 000000018002eff0 f i XDCAMFAM_Handler.obj
 0001:0002dff8       ??_EP2_MetaHandler@@UEAAPEAXI@Z 000000018002eff8 f i * CIL library *:* CIL module *
 0001:0002dff8       ??_GP2_MetaHandler@@UEAAPEAXI@Z 000000018002eff8 f i P2_Handler.obj
 0001:0002e168       ?P2_CheckFormat@@YA_NKAEBV?$basic_string@DU?$char_traits@D@std@@V?$allocator@D@2@@std@@000PEAVXMPFiles@@@Z 000000018002f168 f   P2_Handler.obj
 0001:0002f0c4       ?P2_MetaHandlerCTor@@YAPEAVXMPFileHandler@@PEAVXMPFiles@@@Z 00000001800300c4 f   P2_Handler.obj
 0001:0002f0f0       ??0P2_MetaHandler@@QEAA@PEAVXMPFiles@@@Z 00000001800300f0 f   P2_Handler.obj
 0001:0002f5a8       ??1P2_MetaHandler@@UEAA@XZ 00000001800305a8 f   P2_Handler.obj
 0001:0002f624       ?SetXMPPropertyFromLegacyXML@P2_MetaHandler@@AEAAX_NPEAV?$basic_string@DU?$char_traits@D@std@@V?$allocator@D@2@@std@@PEBD20@Z 0000000180030624 f   P2_Handler.obj
 0001:0002f6e4       ?SetXMPPropertyFromLegacyXML@P2_MetaHandler@@AEAAX_NPEAVXML_Node@@PEBD220@Z 00000001800306e4 f   P2_Handler.obj
 0001:0002f7a0       ?SetRelationsFromLegacyXML@P2_MetaHandler@@AEAAX_N@Z 00000001800307a0 f   P2_Handler.obj
 0001:0002fe44       ?SetAudioInfoFromLegacyXML@P2_MetaHandler@@AEAAX_N@Z 0000000180030e44 f   P2_Handler.obj
 0001:000300fc       ?SetVideoInfoFromLegacyXML@P2_MetaHandler@@AEAAX_N@Z 00000001800310fc f   P2_Handler.obj
 0001:000301c4       ?SetDurationFromLegacyXML@P2_MetaHandler@@AEAAX_N@Z 00000001800311c4 f   P2_Handler.obj
 0001:0003037c       ??_D?$basic_ostringstream@DU?$char_traits@D@std@@V?$allocator@D@2@@std@@QEAAXXZ 000000018003137c f i P2_Handler.obj
 0001:000303d8       ?SetVideoFrameInfoFromLegacyXML@P2_MetaHandler@@AEAAXPEAVXML_Node@@_N@Z 00000001800313d8 f   P2_Handler.obj
 0001:0003117c       ?SetStartTimecodeFromLegacyXML@P2_MetaHandler@@AEAAXPEAVXML_Node@@_N@Z 000000018003217c f   P2_Handler.obj
 0001:000318e0       ?AdjustTimeCode@P2_MetaHandler@@AEAAXAEAV?$basic_string@DU?$char_traits@D@std@@V?$allocator@D@2@@std@@AEBE@Z 00000001800328e0 f   P2_Handler.obj
 0001:00031ee4       ??_D?$basic_stringstream@DU?$char_traits@D@std@@V?$allocator@D@2@@std@@QEAAXXZ 0000000180032ee4 f i P2_Handler.obj
 0001:00031f40       ?SetGPSPropertyFromLegacyXML@P2_MetaHandler@@AEAAXPEAVXML_Node@@_NPEBD2@Z 0000000180032f40 f   P2_Handler.obj
 0001:00032168       ?SetAltitudeFromLegacyXML@P2_MetaHandler@@AEAAXPEAVXML_Node@@_N@Z 0000000180033168 f   P2_Handler.obj
 0001:00032378       ?ForceChildElement@P2_MetaHandler@@AEAAPEAVXML_Node@@PEAV2@PEBDJE@Z 0000000180033378 f   P2_Handler.obj
 0001:00032730       ?IsMetadataWritable@P2_MetaHandler@@UEAA_NXZ 0000000180033730 f   P2_Handler.obj
 0001:00032b90       ?FillAssociatedResources@P2_MetaHandler@@UEAAXPEAV?$vector@V?$basic_string@DU?$char_traits@D@std@@V?$allocator@D@2@@std@@V?$allocator@V?$basic_string@DU?$char_traits@D@std@@V?$allocator@D@2@@std@@@2@@std@@@Z 0000000180033b90 f   P2_Handler.obj
 0001:0003369c       ?CacheFileData@P2_MetaHandler@@UEAAXXZ 000000018003469c f   P2_Handler.obj
 0001:00033978       ?ProcessXMP@P2_MetaHandler@@UEAAXXZ 0000000180034978 f   P2_Handler.obj
 0001:00034218       ?UpdateFile@P2_MetaHandler@@UEAAX_N@Z 0000000180035218 f   P2_Handler.obj
 0001:00034b80       ?WriteTempFile@P2_MetaHandler@@UEAAXPEAVXMP_IO@@@Z 0000000180035b80 f   P2_Handler.obj
 0001:00034bac       ??$?6U?$char_traits@D@std@@@std@@YAAEAV?$basic_ostream@DU?$char_traits@D@std@@@0@AEAV10@D@Z 0000000180035bac f i P2_Handler.obj
 0001:00034d14       ?compare@?$basic_string@DU?$char_traits@D@std@@V?$allocator@D@2@@std@@QEBAH_K0QEBD@Z 0000000180035d14 f i P2_Handler.obj
 0001:00034d88       ??0?$basic_ostringstream@DU?$char_traits@D@std@@V?$allocator@D@2@@std@@QEAA@XZ 0000000180035d88 f i P2_Handler.obj
 0001:00034e30       ?seekpos@?$basic_stringbuf@DU?$char_traits@D@std@@V?$allocator@D@2@@std@@MEAA?AV?$fpos@U_Mbstatet@@@2@V32@H@Z 0000000180035e30 f i P2_Handler.obj
 0001:00034f54       ?seekoff@?$basic_stringbuf@DU?$char_traits@D@std@@V?$allocator@D@2@@std@@MEAA?AV?$fpos@U_Mbstatet@@@2@_JHH@Z 0000000180035f54 f i P2_Handler.obj
 0001:000350d4       ?underflow@?$basic_stringbuf@DU?$char_traits@D@std@@V?$allocator@D@2@@std@@MEAAHXZ 00000001800360d4 f i P2_Handler.obj
 0001:00035130       ?pbackfail@?$basic_stringbuf@DU?$char_traits@D@std@@V?$allocator@D@2@@std@@MEAAHH@Z 0000000180036130 f i P2_Handler.obj
 0001:00035180       ?overflow@?$basic_stringbuf@DU?$char_traits@D@std@@V?$allocator@D@2@@std@@MEAAHH@Z 0000000180036180 f i P2_Handler.obj
 0001:00035344       ??1?$basic_stringbuf@DU?$char_traits@D@std@@V?$allocator@D@2@@std@@UEAA@XZ 0000000180036344 f i P2_Handler.obj
 0001:00035438       ??_E?$basic_stringstream@DU?$char_traits@D@std@@V?$allocator@D@2@@std@@UEAAPEAXI@Z 0000000180036438 f i * CIL library *:* CIL module *
 0001:00035438       ??_G?$basic_stringstream@DU?$char_traits@D@std@@V?$allocator@D@2@@std@@UEAAPEAXI@Z 0000000180036438 f i P2_Handler.obj
 0001:000354c4       ??_E?$basic_ostringstream@DU?$char_traits@D@std@@V?$allocator@D@2@@std@@UEAAPEAXI@Z 00000001800364c4 f i * CIL library *:* CIL module *
 0001:000354c4       ??_G?$basic_ostringstream@DU?$char_traits@D@std@@V?$allocator@D@2@@std@@UEAAPEAXI@Z 00000001800364c4 f i P2_Handler.obj
 0001:00035550       ??_E?$basic_stringbuf@DU?$char_traits@D@std@@V?$allocator@D@2@@std@@UEAAPEAXI@Z 0000000180036550 f i * CIL library *:* CIL module *
 0001:00035550       ??_G?$basic_stringbuf@DU?$char_traits@D@std@@V?$allocator@D@2@@std@@UEAAPEAXI@Z 0000000180036550 f i P2_Handler.obj
 0001:00035584       ??$_Insert_string@DU?$char_traits@D@std@@_K@std@@YAAEAV?$basic_ostream@DU?$char_traits@D@std@@@0@AEAV10@QEBD_K@Z 0000000180036584 f i P2_Handler.obj
 0001:000356f4       ??$_Insert_counted_range@PEAPEAVXML_Node@@@?$vector@PEAVXML_Node@@V?$allocator@PEAVXML_Node@@@std@@@std@@AEAAXV?$_Vector_const_iterator@V?$_Vector_val@U?$_Simple_types@PEAVXML_Node@@@std@@@std@@@1@PEAPEAVXML_Node@@_K@Z 00000001800366f4 f i P2_Handler.obj
 0001:000358e4       ??1sentry@?$basic_ostream@DU?$char_traits@D@std@@@std@@QEAA@XZ 00000001800368e4 f i P2_Handler.obj
 0001:00035924       ??0sentry@?$basic_ostream@DU?$char_traits@D@std@@@std@@QEAA@AEAV12@@Z 0000000180036924 f i P2_Handler.obj
 0001:000359bc       ?str@?$basic_stringbuf@DU?$char_traits@D@std@@V?$allocator@D@2@@std@@QEBA?AV?$basic_string@DU?$char_traits@D@std@@V?$allocator@D@2@@2@XZ 00000001800369bc f i P2_Handler.obj
 0001:00035a84       ??1_Sentry_base@?$basic_ostream@DU?$char_traits@D@std@@@std@@QEAA@XZ 0000000180036a84 f i P2_Handler.obj
 0001:00035aa8       ??_E?$basic_stringstream@DU?$char_traits@D@std@@V?$allocator@D@2@@std@@$4PPPPPPPM@A@EAAPEAXI@Z 0000000180036aa8 f i P2_Handler.obj
 0001:00035ab4       ??_E?$basic_ostringstream@DU?$char_traits@D@std@@V?$allocator@D@2@@std@@$4PPPPPPPM@A@EAAPEAXI@Z 0000000180036ab4 f i P2_Handler.obj
 0001:00035ac0       ??1ChunkData@PNG_Support@@UEAA@XZ 0000000180036ac0 f i PNG_Handler.obj
 0001:00035acc       ??_EChunkData@PNG_Support@@UEAAPEAXI@Z 0000000180036acc f i * CIL library *:* CIL module *
 0001:00035acc       ??_GChunkData@PNG_Support@@UEAAPEAXI@Z 0000000180036acc f i PNG_Handler.obj
 0001:00035af8       ??1ChunkState@PNG_Support@@UEAA@XZ 0000000180036af8 f i PNG_Handler.obj
 0001:00035b28       ??_EChunkState@PNG_Support@@UEAAPEAXI@Z 0000000180036b28 f i * CIL library *:* CIL module *
 0001:00035b28       ??_GChunkState@PNG_Support@@UEAAPEAXI@Z 0000000180036b28 f i PNG_Handler.obj
 0001:00035b78       ?PNG_MetaHandlerCTor@@YAPEAVXMPFileHandler@@PEAVXMPFiles@@@Z 0000000180036b78 f   PNG_Handler.obj
 0001:00035bc8       ?PNG_CheckFormat@@YA_NKPEBDPEAVXMP_IO@@PEAVXMPFiles@@@Z 0000000180036bc8 f   PNG_Handler.obj
 0001:00035c48       ??_EPNG_MetaHandler@@UEAAPEAXI@Z 0000000180036c48 f i * CIL library *:* CIL module *
 0001:00035c48       ??_GPNG_MetaHandler@@UEAAPEAXI@Z 0000000180036c48 f i PNG_Handler.obj
 0001:00035c7c       ?CacheFileData@PNG_MetaHandler@@UEAAXXZ 0000000180036c7c f   PNG_Handler.obj
 0001:00035cc4       ?UpdateFile@PNG_MetaHandler@@UEAAX_N@Z 0000000180036cc4 f   PNG_Handler.obj
 0001:00035eec       ?WriteTempFile@PNG_MetaHandler@@UEAAXPEAVXMP_IO@@@Z 0000000180036eec f   PNG_Handler.obj
 0001:000360fc       ?SafeWriteFile@PNG_MetaHandler@@QEAA_NXZ 00000001800370fc f   PNG_Handler.obj
 0001:0003616c       ??1?$vector@VChunkData@PNG_Support@@V?$allocator@VChunkData@PNG_Support@@@std@@@std@@QEAA@XZ 000000018003716c f i PNG_Handler.obj
 0001:00036214       ??_EPSD_MetaHandler@@UEAAPEAXI@Z 0000000180037214 f i * CIL library *:* CIL module *
 0001:00036214       ??_GPSD_MetaHandler@@UEAAPEAXI@Z 0000000180037214 f i PSD_Handler.obj
 0001:00036248       ?PSD_CheckFormat@@YA_NKPEBDPEAVXMP_IO@@PEAVXMPFiles@@@Z 0000000180037248 f   PSD_Handler.obj
 0001:000362e4       ?PSD_MetaHandlerCTor@@YAPEAVXMPFileHandler@@PEAVXMPFiles@@@Z 00000001800372e4 f   PSD_Handler.obj
 0001:00036364       ??1PSD_MetaHandler@@UEAA@XZ 0000000180037364 f   PSD_Handler.obj
 0001:000363d4       ?CacheFileData@PSD_MetaHandler@@UEAAXXZ 00000001800373d4 f   PSD_Handler.obj
 0001:00036618       ?ProcessXMP@PSD_MetaHandler@@UEAAXXZ 0000000180037618 f   PSD_Handler.obj
 0001:00036930       ?UpdateFile@PSD_MetaHandler@@UEAAX_N@Z 0000000180037930 f   PSD_Handler.obj
 0001:00036b30       ?WriteTempFile@PSD_MetaHandler@@UEAAXPEAVXMP_IO@@@Z 0000000180037b30 f   PSD_Handler.obj
 0001:00036fb8       ?PostScript_MetaHandlerCTor@@YAPEAVXMPFileHandler@@PEAVXMPFiles@@@Z 0000000180037fb8 f   PostScript_Handler.obj
 0001:00036fe4       ?PostScript_CheckFormat@@YA_NKPEBDPEAVXMP_IO@@PEAVXMPFiles@@@Z 0000000180037fe4 f   PostScript_Handler.obj
 0001:00037000       ??0PostScript_MetaHandler@@QEAA@PEAVXMPFiles@@@Z 0000000180038000 f   PostScript_Handler.obj
 0001:000370d4       ??_EPostScript_MetaHandler@@UEAAPEAXI@Z 00000001800380d4 f i * CIL library *:* CIL module *
 0001:000370d4       ??_GPostScript_MetaHandler@@UEAAPEAXI@Z 00000001800380d4 f i PostScript_Handler.obj
 0001:00037108       ??1PostScript_MetaHandler@@UEAA@XZ 0000000180038108 f   PostScript_Handler.obj
 0001:00037158       ?FindFirstPacket@PostScript_MetaHandler@@IEAA_NXZ 0000000180038158 f   PostScript_Handler.obj
 0001:000373b8       ?FindLastPacket@PostScript_MetaHandler@@IEAA_NXZ 00000001800383b8 f   PostScript_Handler.obj
 0001:0003764c       ?setTokenInfo@PostScript_MetaHandler@@IEAAXW4TokenFlag@@_J1@Z 000000018003864c f   PostScript_Handler.obj
 0001:00037688       ?getTokenInfo@PostScript_MetaHandler@@IEAAAEAUTokenLocation@1@W4TokenFlag@@@Z 0000000180038688 f   PostScript_Handler.obj
 0001:000376bc       ?ExtractDSCCommentValue@PostScript_MetaHandler@@IEAA_NAEAUIOBuffer@@W4NativeMetadataIndex@@@Z 00000001800386bc f   PostScript_Handler.obj
 0001:00037800       ?ExtractContainsXMPHint@PostScript_MetaHandler@@IEAA_NAEAUIOBuffer@@_J@Z 0000000180038800 f   PostScript_Handler.obj
 0001:00037a68       ?ExtractDocInfoDict@PostScript_MetaHandler@@IEAA_NAEAUIOBuffer@@@Z 0000000180038a68 f   PostScript_Handler.obj
 0001:00038880       ?ParsePSFile@PostScript_MetaHandler@@IEAAXXZ 0000000180039880 f   PostScript_Handler.obj
 0001:000395b8       ?ReadXMPPacket@PostScript_MetaHandler@@IEAAXAEAV?$basic_string@DU?$char_traits@D@std@@V?$allocator@D@2@@std@@@Z 000000018003a5b8 f   PostScript_Handler.obj
 0001:00039668       ?RegisterKeyValue@PostScript_MetaHandler@@IEAAXAEAV?$basic_string@DU?$char_traits@D@std@@V?$allocator@D@2@@std@@0@Z 000000018003a668 f   PostScript_Handler.obj
 0001:000399b4       ?ReconcileXMP@PostScript_MetaHandler@@IEAAXAEBV?$basic_string@DU?$char_traits@D@std@@V?$allocator@D@2@@std@@PEAV23@@Z 000000018003a9b4 f   PostScript_Handler.obj
 0001:00039d9c       ?CacheFileData@PostScript_MetaHandler@@UEAAXXZ 000000018003ad9c f   PostScript_Handler.obj
 0001:00039df4       ?ProcessXMP@PostScript_MetaHandler@@UEAAXXZ 000000018003adf4 f   PostScript_Handler.obj
 0001:00039eb0       ?modifyHeader@PostScript_MetaHandler@@IEAAXPEAVXMP_IO@@_J1@Z 000000018003aeb0 f   PostScript_Handler.obj
 0001:0003a064       ?DetermineUpdateMethod@PostScript_MetaHandler@@IEAA?AW4UpdateMethod@@AEAV?$basic_string@DU?$char_traits@D@std@@V?$allocator@D@2@@std@@@Z 000000018003b064 f   PostScript_Handler.obj
 0001:0003a150       ?InplaceUpdate@PostScript_MetaHandler@@IEAAXAEAV?$basic_string@DU?$char_traits@D@std@@V?$allocator@D@2@@std@@AEAPEAVXMP_IO@@_N@Z 000000018003b150 f   PostScript_Handler.obj
 0001:0003a2e0       ?ExpandingSFDFilterUpdate@PostScript_MetaHandler@@IEAAXAEAV?$basic_string@DU?$char_traits@D@std@@V?$allocator@D@2@@std@@AEAPEAVXMP_IO@@_N@Z 000000018003b2e0 f   PostScript_Handler.obj
 0001:0003a71c       ?DetermineInsertionOffsets@PostScript_MetaHandler@@IEAAXAEA_J00@Z 000000018003b71c f   PostScript_Handler.obj
 0001:0003a9fc       ?InsertNewUpdate@PostScript_MetaHandler@@IEAAXAEAV?$basic_string@DU?$char_traits@D@std@@V?$allocator@D@2@@std@@AEAPEAVXMP_IO@@_N@Z 000000018003b9fc f   PostScript_Handler.obj
 0001:0003af04       ?UpdateFile@PostScript_MetaHandler@@UEAAX_N@Z 000000018003bf04 f   PostScript_Handler.obj
 0001:0003b0f4       ?WriteTempFile@PostScript_MetaHandler@@UEAAXPEAVXMP_IO@@@Z 000000018003c0f4 f   PostScript_Handler.obj
 0001:0003b1d4       ??1?$vector@UIOBuffer@@V?$allocator@UIOBuffer@@@std@@@std@@QEAA@XZ 000000018003c1d4 f i PostScript_Handler.obj
 0001:0003b1dc       ??1?$vector@USnipInfo@XMPScanner@@V?$allocator@USnipInfo@XMPScanner@@@std@@@std@@QEAA@XZ 000000018003c1dc f i PostScript_Handler.obj
 0001:0003b1e4       ??0?$vector@USnipInfo@XMPScanner@@V?$allocator@USnipInfo@XMPScanner@@@std@@@std@@QEAA@_KAEBV?$allocator@USnipInfo@XMPScanner@@@1@@Z 000000018003c1e4 f i PostScript_Handler.obj
 0001:0003b294       ?_Tidy@?$vector@UIOBuffer@@V?$allocator@UIOBuffer@@@std@@@std@@AEAAXXZ 000000018003c294 f i PostScript_Handler.obj
 0001:0003b324       ?RIFF_MetaHandlerCTor@@YAPEAVXMPFileHandler@@PEAVXMPFiles@@@Z 000000018003c324 f   RIFF_Handler.obj
 0001:0003b350       ?RIFF_CheckFormat@@YA_NKPEBDPEAVXMP_IO@@PEAVXMPFiles@@@Z 000000018003c350 f   RIFF_Handler.obj
 0001:0003b428       ??0RIFF_MetaHandler@@QEAA@PEAVXMPFiles@@@Z 000000018003c428 f   RIFF_Handler.obj
 0001:0003b4d8       ??_ERIFF_MetaHandler@@UEAAPEAXI@Z 000000018003c4d8 f i * CIL library *:* CIL module *
 0001:0003b4d8       ??_GRIFF_MetaHandler@@UEAAPEAXI@Z 000000018003c4d8 f i RIFF_Handler.obj
 0001:0003b50c       ??1RIFF_MetaHandler@@UEAA@XZ 000000018003c50c f   RIFF_Handler.obj
 0001:0003b580       ?CacheFileData@RIFF_MetaHandler@@UEAAXXZ 000000018003c580 f   RIFF_Handler.obj
 0001:0003b7b0       ?ProcessXMP@RIFF_MetaHandler@@UEAAXXZ 000000018003c7b0 f   RIFF_Handler.obj
 0001:0003b804       ?UpdateFile@RIFF_MetaHandler@@UEAAX_N@Z 000000018003c804 f   RIFF_Handler.obj
 0001:0003bf0c       ?WriteTempFile@RIFF_MetaHandler@@UEAAXPEAVXMP_IO@@@Z 000000018003cf0c f   RIFF_Handler.obj
 0001:0003bf38       ?_Xrange@?$vector@EV?$allocator@E@std@@@std@@CAXXZ 000000018003cf38 f i SVG_Handler.obj
 0001:0003bf38       ?_Xrange@?$vector@KV?$allocator@K@std@@@std@@CAXXZ 000000018003cf38 f i WAVE_Handler.obj
 0001:0003bf38       ?_Xrange@?$vector@PEAVChunk@IFF_RIFF@@V?$allocator@PEAVChunk@IFF_RIFF@@@std@@@std@@CAXXZ 000000018003cf38 f i Chunk.obj
 0001:0003bf38       ?_Xrange@?$vector@PEAVChunk@RIFF@@V?$allocator@PEAVChunk@RIFF@@@std@@@std@@CAXXZ 000000018003cf38 f i RIFF.obj
 0001:0003bf38       ?_Xrange@?$vector@PEAVContainerChunk@RIFF@@V?$allocator@PEAVContainerChunk@RIFF@@@std@@@std@@CAXXZ 000000018003cf38 f i RIFF_Handler.obj
 0001:0003bf38       ?_Xrange@?$vector@UChunkIdentifier@IFF_RIFF@@V?$allocator@UChunkIdentifier@IFF_RIFF@@@std@@@std@@CAXXZ 000000018003cf38 f i ChunkPath.obj
 0001:0003bf38       ?_Xrange@?$vector@UChunkSize64@WAVEBehavior@IFF_RIFF@@V?$allocator@UChunkSize64@WAVEBehavior@IFF_RIFF@@@std@@@std@@CAXXZ 000000018003cf38 f i WAVEBehavior.obj
 0001:0003bf4c       ??_ESVG_MetaHandler@@UEAAPEAXI@Z 000000018003cf4c f i * CIL library *:* CIL module *
 0001:0003bf4c       ??_GSVG_MetaHandler@@UEAAPEAXI@Z 000000018003cf4c f i SVG_Handler.obj
 0001:0003c100       ?DecompressFileToMemory@SVG_MetaHandler@@AEAA_JPEAVXMP_IO@@PEAV?$vector@EV?$allocator@E@std@@@std@@@Z 000000018003d100 f   SVG_Handler.obj
 0001:0003c454       ?CompressMemoryToFile@SVG_MetaHandler@@AEAA_JAEBV?$vector@EV?$allocator@E@std@@@std@@PEAVXMP_IO@@@Z 000000018003d454 f   SVG_Handler.obj
 0001:0003c674       ?CompressFileToFile@SVG_MetaHandler@@AEAA_JPEAVXMP_IO@@0@Z 000000018003d674 f   SVG_Handler.obj
 0001:0003c908       ?SVG_CheckFormat@@YA_NKPEBDPEAVXMP_IO@@PEAVXMPFiles@@@Z 000000018003d908 f   SVG_Handler.obj
 0001:0003cba4       ?SVG_MetaHandlerCTor@@YAPEAVXMPFileHandler@@PEAVXMPFiles@@@Z 000000018003dba4 f   SVG_Handler.obj
 0001:0003cc44       ??1SVG_MetaHandler@@UEAA@XZ 000000018003dc44 f   SVG_Handler.obj
 0001:0003cca0       ?GetSerializeOptions@SVG_MetaHandler@@UEAAKXZ 000000018003dca0 f   SVG_Handler.obj
 0001:0003cca8       ?CacheFileData@SVG_MetaHandler@@UEAAXXZ 000000018003dca8 f   SVG_Handler.obj
 0001:0003d774       ??1CandidateInfo@@QEAA@XZ  000000018003e774 f i Scanner_Handler.obj
 0001:0003d774       ??1OffsetStruct@@QEAA@XZ   000000018003e774 f i SVG_Handler.obj
 0001:0003d780       ?ProcessXMP@SVG_MetaHandler@@UEAAXXZ 000000018003e780 f   SVG_Handler.obj
 0001:0003d8f0       ?ProcessTitle@SVG_MetaHandler@@AEAAXPEAVXMP_IO@@0AEBV?$basic_string@DU?$char_traits@D@std@@V?$allocator@D@2@@std@@AEA_JAEBUOffsetStruct@@@Z 000000018003e8f0 f   SVG_Handler.obj
 0001:0003dad4       ?ProcessDescription@SVG_MetaHandler@@AEAAXPEAVXMP_IO@@0AEBV?$basic_string@DU?$char_traits@D@std@@V?$allocator@D@2@@std@@AEA_JAEBUOffsetStruct@@@Z 000000018003ead4 f   SVG_Handler.obj
 0001:0003dc8c       ?InsertNewTitle@SVG_MetaHandler@@AEAAXPEAVXMP_IO@@AEBV?$basic_string@DU?$char_traits@D@std@@V?$allocator@D@2@@std@@1@Z 000000018003ec8c f   SVG_Handler.obj
 0001:0003de18       ?InsertNewDescription@SVG_MetaHandler@@AEAAXPEAVXMP_IO@@AEBV?$basic_string@DU?$char_traits@D@std@@V?$allocator@D@2@@std@@1@Z 000000018003ee18 f   SVG_Handler.obj
 0001:0003dfa4       ?InsertNewMetadata@SVG_MetaHandler@@AEAAXPEAVXMP_IO@@AEBV?$basic_string@DU?$char_traits@D@std@@V?$allocator@D@2@@std@@1@Z 000000018003efa4 f   SVG_Handler.obj
 0001:0003e130       ?UpdateFile@SVG_MetaHandler@@UEAAX_N@Z 000000018003f130 f   SVG_Handler.obj
 0001:0003e4e8       ?WriteTempFile@SVG_MetaHandler@@UEAAXPEAVXMP_IO@@@Z 000000018003f4e8 f   SVG_Handler.obj
 0001:0003f4d0       ?reserve@?$vector@EV?$allocator@E@std@@@std@@QEAAX_K@Z 00000001800404d0 f i SVG_Handler.obj
 0001:0003f558       ?insert@?$vector@EV?$allocator@E@std@@@std@@QEAA?AV?$_Vector_iterator@V?$_Vector_val@U?$_Simple_types@E@std@@@std@@@2@V?$_Vector_const_iterator@V?$_Vector_val@U?$_Simple_types@E@std@@@std@@@2@_KAEBE@Z 0000000180040558 f i SVG_Handler.obj
 0001:0003f778       ??_ESWF_MetaHandler@@UEAAPEAXI@Z 0000000180040778 f i * CIL library *:* CIL module *
 0001:0003f778       ??_GSWF_MetaHandler@@UEAAPEAXI@Z 0000000180040778 f i SWF_Handler.obj
 0001:0003f7ac       ?SWF_MetaHandlerCTor@@YAPEAVXMPFileHandler@@PEAVXMPFiles@@@Z 00000001800407ac f   SWF_Handler.obj
 0001:0003f83c       ?SWF_CheckFormat@@YA_NKPEBDPEAVXMP_IO@@PEAVXMPFiles@@@Z 000000018004083c f   SWF_Handler.obj
 0001:0003f8ac       ??1SWF_MetaHandler@@UEAA@XZ 00000001800408ac f   SWF_Handler.obj
 0001:0003f8ec       ?CacheFileData@SWF_MetaHandler@@UEAAXXZ 00000001800408ec f   SWF_Handler.obj
 0001:0003fb5c       ?ProcessXMP@SWF_MetaHandler@@UEAAXXZ 0000000180040b5c f   SWF_Handler.obj
 0001:0003fb94       ?GetSerializeOptions@SWF_MetaHandler@@UEAAKXZ 0000000180040b94 f   SWF_Handler.obj
 0001:0003fb9c       ?UpdateFile@SWF_MetaHandler@@UEAAX_N@Z 0000000180040b9c f   SWF_Handler.obj
 0001:00040070       ?WriteTempFile@SWF_MetaHandler@@UEAAXPEAVXMP_IO@@@Z 0000000180041070 f   SWF_Handler.obj
 0001:0004009c       ??_EScanner_MetaHandler@@UEAAPEAXI@Z 000000018004109c f i * CIL library *:* CIL module *
 0001:0004009c       ??_GScanner_MetaHandler@@UEAAPEAXI@Z 000000018004109c f i Scanner_Handler.obj
 0001:000400dc       ?Scanner_MetaHandlerCTor@@YAPEAVXMPFileHandler@@PEAVXMPFiles@@@Z 00000001800410dc f   Scanner_Handler.obj
 0001:000405fc       ?CacheFileData@Scanner_MetaHandler@@UEAAXXZ 00000001800415fc f   Scanner_Handler.obj
 0001:00040cc4       ??1?$_Vb_val@V?$allocator@_N@std@@@std@@QEAA@XZ 0000000180041cc4 f i Scanner_Handler.obj
 0001:00040cc4       ??1?$vector@_NV?$allocator@_N@std@@@std@@QEAA@XZ 0000000180041cc4 f i Scanner_Handler.obj
 0001:00040ccc       ??0?$vector@_NV?$allocator@_N@std@@@std@@QEAA@_KAEB_NAEBV?$allocator@_N@1@@Z 0000000180041ccc f i Scanner_Handler.obj
 0001:00040e24       ??A?$vector@UCandidateInfo@@V?$allocator@UCandidateInfo@@@std@@@std@@QEAAAEAUCandidateInfo@@_K@Z 0000000180041e24 f i Scanner_Handler.obj
 0001:00040e30       ?size@?$vector@UCandidateInfo@@V?$allocator@UCandidateInfo@@@std@@@std@@QEBA_KXZ 0000000180041e30 f i Scanner_Handler.obj
 0001:00040e3c       ??1?$vector@UCandidateInfo@@V?$allocator@UCandidateInfo@@@std@@@std@@QEAA@XZ 0000000180041e3c f i Scanner_Handler.obj
 0001:00040ee4       ??$_Emplace_reallocate@UCandidateInfo@@@?$vector@UCandidateInfo@@V?$allocator@UCandidateInfo@@@std@@@std@@AEAAPEAUCandidateInfo@@QEAU2@$$QEAU2@@Z 0000000180041ee4 f i Scanner_Handler.obj
 0001:00041104       ??1?$vector@IV?$allocator@I@std@@@std@@QEAA@XZ 0000000180042104 f i Scanner_Handler.obj
 0001:00041104       ??1?$vector@KV?$allocator@K@std@@@std@@QEAA@XZ 0000000180042104 f i WAVE_Handler.obj
 0001:00041180       ?_Xlen@?$vector@_NV?$allocator@_N@std@@@std@@SAXXZ 0000000180042180 f i Scanner_Handler.obj
 0001:00041194       ??$_Uninitialized_move@PEAUCandidateInfo@@V?$allocator@UCandidateInfo@@@std@@@std@@YAPEAUCandidateInfo@@QEAU1@0PEAU1@AEAV?$allocator@UCandidateInfo@@@0@@Z 0000000180042194 f i Scanner_Handler.obj
 0001:0004124c       ??1_Reallocation_guard@?$vector@UCandidateInfo@@V?$allocator@UCandidateInfo@@@std@@@std@@QEAA@XZ 000000018004224c f i Scanner_Handler.obj
 0001:000412e0       ??1?$_Tidy_guard@V?$vector@IV?$allocator@I@std@@@std@@@std@@QEAA@XZ 00000001800422e0 f i Scanner_Handler.obj
 0001:00041360       ??_ESonyHDV_MetaHandler@@UEAAPEAXI@Z 0000000180042360 f i * CIL library *:* CIL module *
 0001:00041360       ??_GSonyHDV_MetaHandler@@UEAAPEAXI@Z 0000000180042360 f i SonyHDV_Handler.obj
 0001:00041394       ?SonyHDV_CheckFormat@@YA_NKAEBV?$basic_string@DU?$char_traits@D@std@@V?$allocator@D@2@@std@@000PEAVXMPFiles@@@Z 0000000180042394 f   SonyHDV_Handler.obj
 0001:000429cc       ?SonyHDV_MetaHandlerCTor@@YAPEAVXMPFileHandler@@PEAVXMPFiles@@@Z 00000001800439cc f   SonyHDV_Handler.obj
 0001:000429f8       ??0SonyHDV_MetaHandler@@QEAA@PEAVXMPFiles@@@Z 00000001800439f8 f   SonyHDV_Handler.obj
 0001:00042ae4       ??1SonyHDV_MetaHandler@@UEAA@XZ 0000000180043ae4 f   SonyHDV_Handler.obj
 0001:00042b54       ?MakeClipFilePath@SonyHDV_MetaHandler@@AEAA_NPEAV?$basic_string@DU?$char_traits@D@std@@V?$allocator@D@2@@std@@PEBD_N@Z 0000000180043b54 f   SonyHDV_Handler.obj
 0001:00042d28       ?MakeIndexFilePath@SonyHDV_MetaHandler@@AEAA_NAEAV?$basic_string@DU?$char_traits@D@std@@V?$allocator@D@2@@std@@AEBV23@1@Z 0000000180043d28 f   SonyHDV_Handler.obj
 0001:000432a8       ?MakeLegacyDigest@SonyHDV_MetaHandler@@AEAAXPEAV?$basic_string@DU?$char_traits@D@std@@V?$allocator@D@2@@std@@@Z 00000001800442a8 f   SonyHDV_Handler.obj
 0001:0004343c       ?GetFileModDate@SonyHDV_MetaHandler@@UEAA_NPEAUXMP_DateTime@@@Z 000000018004443c f   SonyHDV_Handler.obj
 0001:000435f4       ?FillMetadataFiles@SonyHDV_MetaHandler@@UEAAXPEAV?$vector@V?$basic_string@DU?$char_traits@D@std@@V?$allocator@D@2@@std@@V?$allocator@V?$basic_string@DU?$char_traits@D@std@@V?$allocator@D@2@@std@@@2@@std@@@Z 00000001800445f4 f   SonyHDV_Handler.obj
 0001:00043a78       ?IsMetadataWritable@SonyHDV_MetaHandler@@UEAA_NXZ 0000000180044a78 f   SonyHDV_Handler.obj
 0001:00043b48       ?FillAssociatedResources@SonyHDV_MetaHandler@@UEAAXPEAV?$vector@V?$basic_string@DU?$char_traits@D@std@@V?$allocator@D@2@@std@@V?$allocator@V?$basic_string@DU?$char_traits@D@std@@V?$allocator@D@2@@std@@@2@@std@@@Z 0000000180044b48 f   SonyHDV_Handler.obj
 0001:00044010       ?CacheFileData@SonyHDV_MetaHandler@@UEAAXXZ 0000000180045010 f   SonyHDV_Handler.obj
 0001:000442e0       ?ProcessXMP@SonyHDV_MetaHandler@@UEAAXXZ 00000001800452e0 f   SonyHDV_Handler.obj
 0001:000445a0       ?UpdateFile@SonyHDV_MetaHandler@@UEAAX_N@Z 00000001800455a0 f   SonyHDV_Handler.obj
 0001:000447f0       ?WriteTempFile@SonyHDV_MetaHandler@@UEAAXPEAVXMP_IO@@@Z 00000001800457f0 f   SonyHDV_Handler.obj
 0001:0004481c       ??_ETIFF_MetaHandler@@UEAAPEAXI@Z 000000018004581c f i * CIL library *:* CIL module *
 0001:0004481c       ??_GTIFF_MetaHandler@@UEAAPEAXI@Z 000000018004581c f i TIFF_Handler.obj
 0001:00044850       ?TIFF_CheckFormat@@YA_NKPEBDPEAVXMP_IO@@PEAVXMPFiles@@@Z 0000000180045850 f   TIFF_Handler.obj
 0001:000448f4       ?TIFF_MetaHandlerCTor@@YAPEAVXMPFileHandler@@PEAVXMPFiles@@@Z 00000001800458f4 f   TIFF_Handler.obj
 0001:0004495c       ??1TIFF_MetaHandler@@UEAA@XZ 000000018004595c f   TIFF_Handler.obj
 0001:000449c8       ?CacheFileData@TIFF_MetaHandler@@UEAAXXZ 00000001800459c8 f   TIFF_Handler.obj
 0001:00044b6c       ?ProcessXMP@TIFF_MetaHandler@@UEAAXXZ 0000000180045b6c f   TIFF_Handler.obj
 0001:00044f44       ?UpdateFile@TIFF_MetaHandler@@UEAAX_N@Z 0000000180045f44 f   TIFF_Handler.obj
 0001:000451c0       ?WriteTempFile@TIFF_MetaHandler@@UEAAXPEAVXMP_IO@@@Z 00000001800461c0 f   TIFF_Handler.obj
 0001:000452d4       ?UpdateFile@Trivial_MetaHandler@@UEAAX_N@Z 00000001800462d4 f   Trivial_Handler.obj
 0001:0004532c       ?WriteTempFile@Trivial_MetaHandler@@UEAAXPEAVXMP_IO@@@Z 000000018004632c f   Trivial_Handler.obj
 0001:00045358       ?read@FileHeader@UCF_MetaHandler@@QEAAXPEAVXMP_IO@@@Z 0000000180046358 f i UCF_Handler.obj
 0001:00045450       ??1FileHeader@UCF_MetaHandler@@QEAA@XZ 0000000180046450 f i UCF_Handler.obj
 0001:00045498       ??0CDFileHeader@UCF_MetaHandler@@QEAA@AEBV01@@Z 0000000180046498 f i UCF_Handler.obj
 0001:000455f4       ?read@CDFileHeader@UCF_MetaHandler@@QEAAXPEAVXMP_IO@@@Z 00000001800465f4 f i UCF_Handler.obj
 0001:00045874       ??1CDFileHeader@UCF_MetaHandler@@QEAA@XZ 0000000180046874 f i UCF_Handler.obj
 0001:000458e4       ?UCF_MetaHandlerCTor@@YAPEAVXMPFileHandler@@PEAVXMPFiles@@@Z 00000001800468e4 f   UCF_Handler.obj
 0001:00045910       ?UCF_CheckFormat@@YA_NKPEBDPEAVXMP_IO@@PEAVXMPFiles@@@Z 0000000180046910 f   UCF_Handler.obj
 0001:00045bdc       ??0UCF_MetaHandler@@QEAA@PEAVXMPFiles@@@Z 0000000180046bdc f   UCF_Handler.obj
 0001:00045d94       ??_EUCF_MetaHandler@@UEAAPEAXI@Z 0000000180046d94 f i * CIL library *:* CIL module *
 0001:00045d94       ??_GUCF_MetaHandler@@UEAAPEAXI@Z 0000000180046d94 f i UCF_Handler.obj
 0001:00045dc8       ??1UCF_MetaHandler@@UEAA@XZ 0000000180046dc8 f   UCF_Handler.obj
 0001:00045e80       ?CacheFileData@UCF_MetaHandler@@UEAAXXZ 0000000180046e80 f   UCF_Handler.obj
 0001:00046d3c       ?ProcessXMP@UCF_MetaHandler@@UEAAXXZ 0000000180047d3c f   UCF_Handler.obj
 0001:00046d44       ?UpdateFile@UCF_MetaHandler@@UEAAX_N@Z 0000000180047d44 f   UCF_Handler.obj
 0001:000478a0       ?WriteTempFile@UCF_MetaHandler@@UEAAXPEAVXMP_IO@@@Z 00000001800488a0 f   UCF_Handler.obj
 0001:000478cc       ?writeOut@UCF_MetaHandler@@AEAAXPEAVXMP_IO@@0_N1@Z 00000001800488cc f   UCF_Handler.obj
 0001:00047da4       ??1?$vector@VCDFileHeader@UCF_MetaHandler@@V?$allocator@VCDFileHeader@UCF_MetaHandler@@@std@@@std@@QEAA@XZ 0000000180048da4 f i UCF_Handler.obj
 0001:00047e5c       ??$_Emplace_reallocate@AEBVCDFileHeader@UCF_MetaHandler@@@?$vector@VCDFileHeader@UCF_MetaHandler@@V?$allocator@VCDFileHeader@UCF_MetaHandler@@@std@@@std@@AEAAPEAVCDFileHeader@UCF_MetaHandler@@QEAV23@AEBV23@@Z 0000000180048e5c f i UCF_Handler.obj
 0001:000480a4       ??1_Reallocation_guard@?$vector@VCDFileHeader@UCF_MetaHandler@@V?$allocator@VCDFileHeader@UCF_MetaHandler@@@std@@@std@@QEAA@XZ 00000001800490a4 f i UCF_Handler.obj
 0001:00048134       ??1?$_Uninitialized_backout_al@V?$allocator@VCDFileHeader@UCF_MetaHandler@@@std@@@std@@QEAA@XZ 0000000180049134 f i UCF_Handler.obj
 0001:00048164       ??_EWAVE_MetaHandler@@UEAAPEAXI@Z 0000000180049164 f i * CIL library *:* CIL module *
 0001:00048164       ??_GWAVE_MetaHandler@@UEAAPEAXI@Z 0000000180049164 f i WAVE_Handler.obj
 0001:00048198       ??_EWAVEBehavior@IFF_RIFF@@UEAAPEAXI@Z 0000000180049198 f i * CIL library *:* CIL module *
 0001:00048198       ??_GWAVEBehavior@IFF_RIFF@@UEAAPEAXI@Z 0000000180049198 f i WAVE_Handler.obj
 0001:00048208       ?WAVE_MetaHandlerCTor@@YAPEAVXMPFileHandler@@PEAVXMPFiles@@@Z 0000000180049208 f   WAVE_Handler.obj
 0001:00048234       ?WAVE_CheckFormat@@YA_NKPEBDPEAVXMP_IO@@PEAVXMPFiles@@@Z 0000000180049234 f   WAVE_Handler.obj
 0001:000482e0       ?whatRIFFFormat@WAVE_MetaHandler@@SAKPEAE@Z 00000001800492e0 f   WAVE_Handler.obj
 0001:00048348       ??0WAVE_MetaHandler@@QEAA@PEAVXMPFiles@@@Z 0000000180049348 f   WAVE_Handler.obj
 0001:00048528       ??1WAVE_MetaHandler@@UEAA@XZ 0000000180049528 f   WAVE_Handler.obj
 0001:00048690       ?CacheFileData@WAVE_MetaHandler@@UEAAXXZ 0000000180049690 f   WAVE_Handler.obj
 0001:000489f0       ?ProcessXMP@WAVE_MetaHandler@@UEAAXXZ 00000001800499f0 f   WAVE_Handler.obj
 0001:00048c84       ?UpdateFile@WAVE_MetaHandler@@UEAAX_N@Z 0000000180049c84 f   WAVE_Handler.obj
 0001:00048f58       ?updateLegacyChunk@WAVE_MetaHandler@@AEAAXPEAPEAVIChunkData@IFF_RIFF@@KKAEAVIMetadata@@@Z 0000000180049f58 f   WAVE_Handler.obj
 0001:00049034       ?WriteTempFile@WAVE_MetaHandler@@UEAAXPEAVXMP_IO@@@Z 000000018004a034 f   WAVE_Handler.obj
 0001:00049060       ??1?$vector@UChunkSize64@WAVEBehavior@IFF_RIFF@@V?$allocator@UChunkSize64@WAVEBehavior@IFF_RIFF@@@std@@@std@@QEAA@XZ 000000018004a060 f i WAVE_Handler.obj
 0001:000490f0       ??_EXDCAMEX_MetaHandler@@UEAAPEAXI@Z 000000018004a0f0 f i * CIL library *:* CIL module *
 0001:000490f0       ??_GXDCAMEX_MetaHandler@@UEAAPEAXI@Z 000000018004a0f0 f i XDCAMEX_Handler.obj
 0001:00049124       ?XDCAMEX_CheckFormat@@YA_NKAEBV?$basic_string@DU?$char_traits@D@std@@V?$allocator@D@2@@std@@000PEAVXMPFiles@@@Z 000000018004a124 f   XDCAMEX_Handler.obj
 0001:00049a18       ?XDCAMEX_MetaHandlerCTor@@YAPEAVXMPFileHandler@@PEAVXMPFiles@@@Z 000000018004aa18 f   XDCAMEX_Handler.obj
 0001:00049a44       ??0XDCAMEX_MetaHandler@@QEAA@PEAVXMPFiles@@@Z 000000018004aa44 f   XDCAMEX_Handler.obj
 0001:00049b84       ??1XDCAMEX_MetaHandler@@UEAA@XZ 000000018004ab84 f   XDCAMEX_Handler.obj
 0001:00049c1c       ?MakeClipFilePath@XDCAMEX_MetaHandler@@AEAA_NPEAV?$basic_string@DU?$char_traits@D@std@@V?$allocator@D@2@@std@@PEBD_N@Z 000000018004ac1c f   XDCAMEX_Handler.obj
 0001:00049dec       ?MakeMediaproPath@XDCAMEX_MetaHandler@@AEAA_NPEAV?$basic_string@DU?$char_traits@D@std@@V?$allocator@D@2@@std@@_N@Z 000000018004adec f   XDCAMEX_Handler.obj
 0001:00049ebc       ?MakeLegacyDigest@XDCAMEX_MetaHandler@@AEAAXPEAV?$basic_string@DU?$char_traits@D@std@@V?$allocator@D@2@@std@@@Z 000000018004aebc f   XDCAMEX_Handler.obj
 0001:0004a0e0       ?CleanupLegacyXML@XDCAMEX_MetaHandler@@AEAAXXZ 000000018004b0e0 f   XDCAMEX_Handler.obj
 0001:0004a11c       ?GetFileModDate@XDCAMEX_MetaHandler@@UEAA_NPEAUXMP_DateTime@@@Z 000000018004b11c f   XDCAMEX_Handler.obj
 0001:0004ac60       ?FillAssociatedResources@XDCAMEX_MetaHandler@@UEAAXPEAV?$vector@V?$basic_string@DU?$char_traits@D@std@@V?$allocator@D@2@@std@@V?$allocator@V?$basic_string@DU?$char_traits@D@std@@V?$allocator@D@2@@std@@@2@@std@@@Z 000000018004bc60 f   XDCAMEX_Handler.obj
 0001:0004b620       ?FillMetadataFiles@XDCAMEX_MetaHandler@@UEAAXPEAV?$vector@V?$basic_string@DU?$char_traits@D@std@@V?$allocator@D@2@@std@@V?$allocator@V?$basic_string@DU?$char_traits@D@std@@V?$allocator@D@2@@std@@@2@@std@@@Z 000000018004c620 f   XDCAMEX_Handler.obj
 0001:0004bc44       ?IsMetadataWritable@XDCAMEX_MetaHandler@@UEAA_NXZ 000000018004cc44 f   XDCAMEX_Handler.obj
 0001:0004bc44       ?IsMetadataWritable@XDCAM_MetaHandler@@UEAA_NXZ 000000018004cc44 f   XDCAM_Handler.obj
 0001:0004bd3c       ?CacheFileData@XDCAMEX_MetaHandler@@UEAAXXZ 000000018004cd3c f   XDCAMEX_Handler.obj
 0001:0004c010       ?GetTakeDuration@XDCAMEX_MetaHandler@@AEAAXAEBV?$basic_string@DU?$char_traits@D@std@@V?$allocator@D@2@@std@@AEAV23@@Z 000000018004d010 f   XDCAMEX_Handler.obj
 0001:0004c360       ?GetMediaProMetadata@XDCAMEX_MetaHandler@@AEAA_NPEAV?$TXMPMeta@V?$basic_string@DU?$char_traits@D@std@@V?$allocator@D@2@@std@@@@AEBV?$basic_string@DU?$char_traits@D@std@@V?$allocator@D@2@@std@@_N@Z 000000018004d360 f   XDCAMEX_Handler.obj
 0001:0004c43c       ?GetTakeUMID@XDCAMEX_MetaHandler@@AEAAXAEBV?$basic_string@DU?$char_traits@D@std@@V?$allocator@D@2@@std@@AEAV23@1@Z 000000018004d43c f   XDCAMEX_Handler.obj
 0001:0004c838       ?ProcessXMP@XDCAMEX_MetaHandler@@UEAAXXZ 000000018004d838 f   XDCAMEX_Handler.obj
 0001:0004d410       ?UpdateFile@XDCAMEX_MetaHandler@@UEAAX_N@Z 000000018004e410 f   XDCAMEX_Handler.obj
 0001:0004d864       ?WriteTempFile@XDCAMEX_MetaHandler@@UEAAXPEAVXMP_IO@@@Z 000000018004e864 f   XDCAMEX_Handler.obj
 0001:0004d890       ??_EXDCAMFAM_MetaHandler@@UEAAPEAXI@Z 000000018004e890 f i * CIL library *:* CIL module *
 0001:0004d890       ??_GXDCAMFAM_MetaHandler@@UEAAPEAXI@Z 000000018004e890 f i XDCAMFAM_Handler.obj
 0001:0004d8d0       ?XDCAMFAM_CheckFormat@@YA_NKAEBV?$basic_string@DU?$char_traits@D@std@@V?$allocator@D@2@@std@@000PEAVXMPFiles@@@Z 000000018004e8d0 f   XDCAMFAM_Handler.obj
 0001:0004ddf4       ?XDCAMFAM_MetaHandlerCTor@@YAPEAVXMPFileHandler@@PEAVXMPFiles@@@Z 000000018004edf4 f   XDCAMFAM_Handler.obj
 0001:0004de5c       ?SetPathVariables@XDCAMFAM_MetaHandler@@EEAAXAEBV?$basic_string@DU?$char_traits@D@std@@V?$allocator@D@2@@std@@@Z 000000018004ee5c f   XDCAMFAM_Handler.obj
 0001:0004e438       ?FillAssociatedResources@XDCAMFAM_MetaHandler@@UEAAXPEAV?$vector@V?$basic_string@DU?$char_traits@D@std@@V?$allocator@D@2@@std@@V?$allocator@V?$basic_string@DU?$char_traits@D@std@@V?$allocator@D@2@@std@@@2@@std@@@Z 000000018004f438 f   XDCAMFAM_Handler.obj
 0001:0004fe50       ?MakeClipFilePath@XDCAMFAM_MetaHandler@@EEAA_NPEAV?$basic_string@DU?$char_traits@D@std@@V?$allocator@D@2@@std@@PEBD_N@Z 0000000180050e50 f   XDCAMFAM_Handler.obj
 0001:0004ff5c       ?GetMediaProMetadata@XDCAMFAM_MetaHandler@@EEAA_NPEAV?$TXMPMeta@V?$basic_string@DU?$char_traits@D@std@@V?$allocator@D@2@@std@@@@AEBV?$basic_string@DU?$char_traits@D@std@@V?$allocator@D@2@@std@@_N@Z 0000000180050f5c f   XDCAMFAM_Handler.obj
 0001:00050038       ?GetPlanningFiles@XDCAMFAM_MetaHandler@@AEAA_NAEAV?$vector@V?$basic_string@DU?$char_traits@D@std@@V?$allocator@D@2@@std@@V?$allocator@V?$basic_string@DU?$char_traits@D@std@@V?$allocator@D@2@@std@@@2@@std@@V?$basic_string@DU?$char_traits@D@std@@V?$allocator@D@2@@3@@Z 0000000180051038 f   XDCAMFAM_Handler.obj
 0001:000503fc       ?IsClipsPlanning@XDCAMFAM_MetaHandler@@AEAA_NV?$basic_string@DU?$char_traits@D@std@@V?$allocator@D@2@@std@@PEBD@Z 00000001800513fc f   XDCAMFAM_Handler.obj
 0001:00050610       ?GetInfoFiles@XDCAMFAM_MetaHandler@@AEAA_NAEAV?$vector@V?$basic_string@DU?$char_traits@D@std@@V?$allocator@D@2@@std@@V?$allocator@V?$basic_string@DU?$char_traits@D@std@@V?$allocator@D@2@@std@@@2@@std@@V?$basic_string@DU?$char_traits@D@std@@V?$allocator@D@2@@3@@Z 0000000180051610 f   XDCAMFAM_Handler.obj
 0001:00050974       ?GetClipUmid@XDCAMFAM_MetaHandler@@EEAA_NAEAV?$basic_string@DU?$char_traits@D@std@@V?$allocator@D@2@@std@@@Z 0000000180051974 f   XDCAMFAM_Handler.obj
 0001:00050cd4       ?erase@?$basic_string@DU?$char_traits@D@std@@V?$allocator@D@2@@std@@QEAA?AV?$_String_iterator@V?$_String_val@U?$_Simple_types@D@std@@@std@@@2@V?$_String_const_iterator@V?$_String_val@U?$_Simple_types@D@std@@@std@@@2@0@Z 0000000180051cd4 f i XDCAMFAM_Handler.obj
 0001:00050d6c       ??_EXDCAMSAM_MetaHandler@@UEAAPEAXI@Z 0000000180051d6c f i * CIL library *:* CIL module *
 0001:00050d6c       ??_GXDCAMSAM_MetaHandler@@UEAAPEAXI@Z 0000000180051d6c f i XDCAMSAM_Handler.obj
 0001:00050dac       ?XDCAMSAM_CheckFormat@@YA_NKAEBV?$basic_string@DU?$char_traits@D@std@@V?$allocator@D@2@@std@@000PEAVXMPFiles@@@Z 0000000180051dac f   XDCAMSAM_Handler.obj
 0001:00051314       ?XDCAMSAM_MetaHandlerCTor@@YAPEAVXMPFileHandler@@PEAVXMPFiles@@@Z 0000000180052314 f   XDCAMSAM_Handler.obj
 0001:00051374       ?SetPathVariables@XDCAMSAM_MetaHandler@@EEAAXAEBV?$basic_string@DU?$char_traits@D@std@@V?$allocator@D@2@@std@@@Z 0000000180052374 f   XDCAMSAM_Handler.obj
 0001:00051c94       ?FillAssociatedResources@XDCAMSAM_MetaHandler@@UEAAXPEAV?$vector@V?$basic_string@DU?$char_traits@D@std@@V?$allocator@D@2@@std@@V?$allocator@V?$basic_string@DU?$char_traits@D@std@@V?$allocator@D@2@@std@@@2@@std@@@Z 0000000180052c94 f   XDCAMSAM_Handler.obj
 0001:00052b94       ?MakeClipFilePath@XDCAMSAM_MetaHandler@@EEAA_NPEAV?$basic_string@DU?$char_traits@D@std@@V?$allocator@D@2@@std@@PEBD_N@Z 0000000180053b94 f   XDCAMSAM_Handler.obj
 0001:00052d64       ?GetEditInfoFiles@XDCAMSAM_MetaHandler@@AEAA_NAEAV?$vector@V?$basic_string@DU?$char_traits@D@std@@V?$allocator@D@2@@std@@V?$allocator@V?$basic_string@DU?$char_traits@D@std@@V?$allocator@D@2@@std@@@2@@std@@@Z 0000000180053d64 f   XDCAMSAM_Handler.obj
 0001:000533e0       ?GetClipUmid@XDCAMSAM_MetaHandler@@EEAA_NAEAV?$basic_string@DU?$char_traits@D@std@@V?$allocator@D@2@@std@@@Z 00000001800543e0 f   XDCAMSAM_Handler.obj
 0001:00053664       ??_EXDCAM_MetaHandler@@UEAAPEAXI@Z 0000000180054664 f i * CIL library *:* CIL module *
 0001:00053664       ??_GXDCAM_MetaHandler@@UEAAPEAXI@Z 0000000180054664 f i XDCAM_Handler.obj
 0001:00053698       ??0XDCAM_MetaHandler@@QEAA@PEAVXMPFiles@@@Z 0000000180054698 f   XDCAM_Handler.obj
 0001:00053798       ??1XDCAM_MetaHandler@@UEAA@XZ 0000000180054798 f   XDCAM_Handler.obj
 0001:00053848       ?MakeMediaproPath@XDCAM_MetaHandler@@IEAA_NPEAV?$basic_string@DU?$char_traits@D@std@@V?$allocator@D@2@@std@@_N@Z 0000000180054848 f   XDCAM_Handler.obj
 0001:000538d4       ?MakeLegacyDigest@XDCAM_MetaHandler@@AEAAXPEAV?$basic_string@DU?$char_traits@D@std@@V?$allocator@D@2@@std@@@Z 00000001800548d4 f   XDCAM_Handler.obj
 0001:00053af8       ?CleanupLegacyXML@XDCAM_MetaHandler@@AEAAXXZ 0000000180054af8 f   XDCAM_Handler.obj
 0001:00053b34       ?readXMLFile@XDCAM_MetaHandler@@IEAAXPEBDAEAPEAVExpatAdapter@@@Z 0000000180054b34 f   XDCAM_Handler.obj
 0001:00053c48       ?GetFileModDate@XDCAM_MetaHandler@@UEAA_NPEAUXMP_DateTime@@@Z 0000000180054c48 f   XDCAM_Handler.obj
 0001:00053e64       ?RefersClipUmid@XDCAM_MetaHandler@@IEAA_NV?$basic_string@DU?$char_traits@D@std@@V?$allocator@D@2@@std@@PEBD@Z 0000000180054e64 f   XDCAM_Handler.obj
 0001:000540f8       ?FillMetadataFiles@XDCAM_MetaHandler@@EEAAXPEAV?$vector@V?$basic_string@DU?$char_traits@D@std@@V?$allocator@D@2@@std@@V?$allocator@V?$basic_string@DU?$char_traits@D@std@@V?$allocator@D@2@@std@@@2@@std@@@Z 00000001800550f8 f   XDCAM_Handler.obj
 0001:00054170       ?CacheFileData@XDCAM_MetaHandler@@UEAAXXZ 0000000180055170 f   XDCAM_Handler.obj
 0001:000543b8       ?ProcessXMP@XDCAM_MetaHandler@@UEAAXXZ 00000001800553b8 f   XDCAM_Handler.obj
 0001:0005465c       ?UpdateFile@XDCAM_MetaHandler@@UEAAX_N@Z 000000018005565c f   XDCAM_Handler.obj
 0001:00054a44       ?WriteTempFile@XDCAM_MetaHandler@@UEAAXPEAVXMP_IO@@@Z 0000000180055a44 f   XDCAM_Handler.obj
 0001:00054a70       ?getRealSize@AIFFBehavior@IFF_RIFF@@UEAA_K_KAEBUChunkIdentifier@2@AEAVIChunkContainer@2@PEAVXMP_IO@@@Z 0000000180055a70 f   AIFFBehavior.obj
 0001:00054ab0       ?isValidTopLevelChunk@AIFFBehavior@IFF_RIFF@@UEAA_NAEBUChunkIdentifier@2@K@Z 0000000180055ab0 f   AIFFBehavior.obj
 0001:00054ad4       ?getMaxChunkSize@AIFFBehavior@IFF_RIFF@@UEBA_KXZ 0000000180055ad4 f   AIFFBehavior.obj
 0001:00054adc       ?fixHierarchy@AIFFBehavior@IFF_RIFF@@UEAAXAEAVIChunkContainer@2@@Z 0000000180055adc f   AIFFBehavior.obj
 0001:00054d40       ?insertChunk@AIFFBehavior@IFF_RIFF@@UEAAXAEAVIChunkContainer@2@AEAVChunk@2@@Z 0000000180055d40 f   AIFFBehavior.obj
 0001:00054e10       ?removeChunk@AIFFBehavior@IFF_RIFF@@UEAA_NAEAVIChunkContainer@2@AEAVChunk@2@@Z 0000000180055e10 f   AIFFBehavior.obj
 0001:00055040       ?isFREEChunk@AIFFBehavior@IFF_RIFF@@EEBAEAEBVChunk@2@@Z 0000000180056040 f   AIFFBehavior.obj
 0001:00055140       ?createFREE@AIFFBehavior@IFF_RIFF@@EEAAPEAVChunk@2@_K@Z 0000000180056140 f   AIFFBehavior.obj
 0001:00055220       ?getMinFREESize@AIFFBehavior@IFF_RIFF@@EEBA_KXZ 0000000180056220 f   AIFFBehavior.obj
 0001:00055220       ?getMinFREESize@WAVEBehavior@IFF_RIFF@@MEBA_KXZ 0000000180056220 f   WAVEBehavior.obj
 0001:00055228       ??_EAIFFMetadata@IFF_RIFF@@UEAAPEAXI@Z 0000000180056228 f i * CIL library *:* CIL module *
 0001:00055228       ??_GAIFFMetadata@IFF_RIFF@@UEAAPEAXI@Z 0000000180056228 f i AIFFMetadata.obj
 0001:00055268       ??1AIFFMetadata@IFF_RIFF@@UEAA@XZ 0000000180056268 f   AIFFMetadata.obj
 0001:00055278       ?isEmptyValue@AIFFMetadata@IFF_RIFF@@MEAA_NKAEAVValueObject@@@Z 0000000180056278 f   AIFFMetadata.obj
 0001:00055278       ?isEmptyValue@DISPMetadata@IFF_RIFF@@MEAA_NKAEAVValueObject@@@Z 0000000180056278 f   DISPMetadata.obj
 0001:00055278       ?isEmptyValue@INFOMetadata@IFF_RIFF@@MEAA_NKAEAVValueObject@@@Z 0000000180056278 f   INFOMetadata.obj
 0001:000552b4       ?importToXMP@AIFFReconcile@IFF_RIFF@@UEAAEAEAV?$TXMPMeta@V?$basic_string@DU?$char_traits@D@std@@V?$allocator@D@2@@std@@@@AEBVMetadataSet@@@Z 00000001800562b4 f   AIFFReconcile.obj
 0001:000552f4       ?exportFromXMP@AIFFReconcile@IFF_RIFF@@UEAAEAEAVMetadataSet@@AEAV?$TXMPMeta@V?$basic_string@DU?$char_traits@D@std@@V?$allocator@D@2@@std@@@@@Z 00000001800562f4 f   AIFFReconcile.obj
 0001:00055334       ??$get@VAIFFMetadata@IFF_RIFF@@@MetadataSet@@QEBAPEAVAIFFMetadata@IFF_RIFF@@XZ 0000000180056334 f i AIFFReconcile.obj
 0001:0005539c       ??_EIChunkData@IFF_RIFF@@UEAAPEAXI@Z 000000018005639c f i * CIL library *:* CIL module *
 0001:0005539c       ??_GIChunkData@IFF_RIFF@@UEAAPEAXI@Z 000000018005639c f i Chunk.obj
 0001:000553c8       ??_EIChunkContainer@IFF_RIFF@@UEAAPEAXI@Z 00000001800563c8 f i * CIL library *:* CIL module *
 0001:000553c8       ??_GIChunkContainer@IFF_RIFF@@UEAAPEAXI@Z 00000001800563c8 f i Chunk.obj
 0001:000553f4       ?getID@Chunk@IFF_RIFF@@UEBAKXZ 00000001800563f4 f i Chunk.obj
 0001:000553f8       ?getType@Chunk@IFF_RIFF@@UEBAKXZ 00000001800563f8 f i Chunk.obj
 0001:000553fc       ?getIdentifier@Chunk@IFF_RIFF@@UEBAAEBUChunkIdentifier@2@XZ 00000001800563fc f i Chunk.obj
 0001:00055404       ?getSize@Chunk@IFF_RIFF@@UEBA_K_N@Z 0000000180056404 f i Chunk.obj
 0001:00055414       ?createChunk@Chunk@IFF_RIFF@@SAPEAV12@AEBVIEndian@@@Z 0000000180056414 f   Chunk.obj
 0001:00055484       ?createUnknownChunk@Chunk@IFF_RIFF@@SAPEAV12@AEBVIEndian@@KK_K11@Z 0000000180056484 f   Chunk.obj
 0001:0005553c       ?createHeaderChunk@Chunk@IFF_RIFF@@SAPEAV12@AEBVIEndian@@KK@Z 000000018005653c f   Chunk.obj
 0001:000555fc       ??_EChunk@IFF_RIFF@@UEAAPEAXI@Z 00000001800565fc f i * CIL library *:* CIL module *
 0001:000555fc       ??_GChunk@IFF_RIFF@@UEAAPEAXI@Z 00000001800565fc f i Chunk.obj
 0001:00055630       ??1Chunk@IFF_RIFF@@UEAA@XZ 0000000180056630 f   Chunk.obj
 0001:000556bc       ?getData@Chunk@IFF_RIFF@@UEBA_KPEAPEBE@Z 00000001800566bc f   Chunk.obj
 0001:00055700       ?setData@Chunk@IFF_RIFF@@UEAAXQEBE_KE@Z 0000000180056700 f   Chunk.obj
 0001:00055848       ?getInt32@Chunk@IFF_RIFF@@UEBAJ_K@Z 0000000180056848 f   Chunk.obj
 0001:00055848       ?getUns32@Chunk@IFF_RIFF@@UEBAK_K@Z 0000000180056848 f   Chunk.obj
 0001:00055894       ?setInt32@Chunk@IFF_RIFF@@UEAAXJ_K@Z 0000000180056894 f   Chunk.obj
 0001:00055894       ?setUns32@Chunk@IFF_RIFF@@UEAAXK_K@Z 0000000180056894 f   Chunk.obj
 0001:00055928       ?getInt64@Chunk@IFF_RIFF@@UEBA_J_K@Z 0000000180056928 f   Chunk.obj
 0001:00055928       ?getUns64@Chunk@IFF_RIFF@@UEBA_K_K@Z 0000000180056928 f   Chunk.obj
 0001:00055974       ?setInt64@Chunk@IFF_RIFF@@UEAAX_J_K@Z 0000000180056974 f   Chunk.obj
 0001:00055974       ?setUns64@Chunk@IFF_RIFF@@UEAAX_K0@Z 0000000180056974 f   Chunk.obj
 0001:00055a0c       ?getString@Chunk@IFF_RIFF@@UEBA?AV?$basic_string@DU?$char_traits@D@std@@V?$allocator@D@2@@std@@_K0@Z 0000000180056a0c f   Chunk.obj
 0001:00055a7c       ?setString@Chunk@IFF_RIFF@@UEAAXV?$basic_string@DU?$char_traits@D@std@@V?$allocator@D@2@@std@@_K@Z 0000000180056a7c f   Chunk.obj
 0001:00055b3c       ?setType@Chunk@IFF_RIFF@@QEAAXK@Z 0000000180056b3c f   Chunk.obj
 0001:00055b94       ?calculateWriteSize@Chunk@IFF_RIFF@@QEBA_JXZ 0000000180056b94 f   Chunk.obj
 0001:00055c14       ?resetChanges@Chunk@IFF_RIFF@@QEAAXXZ 0000000180056c14 f   Chunk.obj
 0001:00055c4c       ?toString@Chunk@IFF_RIFF@@UEAA?AV?$basic_string@DU?$char_traits@D@std@@V?$allocator@D@2@@std@@V34@E@Z 0000000180056c4c f   Chunk.obj
 0001:00055e38       ?readChunk@Chunk@IFF_RIFF@@QEAAXPEAVXMP_IO@@@Z 0000000180056e38 f   Chunk.obj
 0001:00055fe8       ?cacheChunkData@Chunk@IFF_RIFF@@QEAAXPEAVXMP_IO@@@Z 0000000180056fe8 f   Chunk.obj
 0001:000560ec       ?writeChunk@Chunk@IFF_RIFF@@QEAAXPEAVXMP_IO@@@Z 00000001800570ec f   Chunk.obj
 0001:000562a8       ?numChildren@Chunk@IFF_RIFF@@UEBAKXZ 00000001800572a8 f   Chunk.obj
 0001:000562b8       ?getChildAt@Chunk@IFF_RIFF@@UEBAPEAV12@K@Z 00000001800572b8 f   Chunk.obj
 0001:000562e4       ?appendChild@Chunk@IFF_RIFF@@UEAAXPEAV12@E@Z 00000001800572e4 f   Chunk.obj
 0001:00056454       ?insertChildAt@Chunk@IFF_RIFF@@UEAAXKPEAV12@@Z 0000000180057454 f   Chunk.obj
 0001:00056624       ?removeChildAt@Chunk@IFF_RIFF@@UEAAPEAV12@K@Z 0000000180057624 f   Chunk.obj
 0001:000566c8       ?replaceChildAt@Chunk@IFF_RIFF@@UEAAPEAV12@KPEAV12@@Z 00000001800576c8 f   Chunk.obj
 0001:00056818       ?setChanged@Chunk@IFF_RIFF@@QEAAXXZ 0000000180057818 f   Chunk.obj
 0001:00056838       ?adjustInternalBuffer@Chunk@IFF_RIFF@@AEAAX_K@Z 0000000180057838 f   Chunk.obj
 0001:00056898       ?adjustSize@Chunk@IFF_RIFF@@AEAAX_J@Z 0000000180057898 f   Chunk.obj
 0001:00056918       ??_EChunk@IFF_RIFF@@W7EAAPEAXI@Z 0000000180057918 f i Chunk.obj
 0001:00056924       ?toString@Chunk@IFF_RIFF@@W7EAA?AV?$basic_string@DU?$char_traits@D@std@@V?$allocator@D@2@@std@@V34@E@Z 0000000180057924 f i Chunk.obj
 0001:00056930       ??0ChunkController@IFF_RIFF@@QEAA@PEAVIChunkBehavior@1@E@Z 0000000180057930 f   ChunkController.obj
 0001:000569c8       ??1ChunkController@IFF_RIFF@@QEAA@XZ 00000001800579c8 f   ChunkController.obj
 0001:00056a6c       ?addChunkPath@ChunkController@IFF_RIFF@@QEAAXAEBVChunkPath@2@@Z 0000000180057a6c f   ChunkController.obj
 0001:00056aa8       ?parseChunks@ChunkController@IFF_RIFF@@IEAAXPEAVXMP_IO@@AEAVChunkPath@2@PEAKPEAVChunk@2@@Z 0000000180057aa8 f   ChunkController.obj
 0001:000571c4       ?parseFile@ChunkController@IFF_RIFF@@QEAAXPEAVXMP_IO@@PEAK@Z 00000001800581c4 f   ChunkController.obj
 0001:000572b8       ?writeFile@ChunkController@IFF_RIFF@@QEAAXPEAVXMP_IO@@PEAVXMP_ProgressTracker@@@Z 00000001800582b8 f   ChunkController.obj
 0001:00057514       ?getChunk@ChunkController@IFF_RIFF@@QEBAPEAVIChunkData@2@AEBVChunkPath@2@E@Z 0000000180058514 f   ChunkController.obj
 0001:000575f4       ?findChunk@ChunkController@IFF_RIFF@@IEBAPEAVChunk@2@AEBVChunkPath@2@AEAV42@AEBV32@E@Z 00000001800585f4 f   ChunkController.obj
 0001:00057758       ?getChunks@ChunkController@IFF_RIFF@@QEAAAEBV?$vector@PEAVIChunkData@IFF_RIFF@@V?$allocator@PEAVIChunkData@IFF_RIFF@@@std@@@std@@AEBVChunkPath@2@@Z 0000000180058758 f   ChunkController.obj
 0001:0005784c       ?findChunks@ChunkController@IFF_RIFF@@IEAAXAEBVChunkPath@2@AEAV32@AEBVChunk@2@@Z 000000018005884c f   ChunkController.obj
 0001:0005798c       ?cleanupTree@ChunkController@IFF_RIFF@@IEAAXXZ 000000018005898c f   ChunkController.obj
 0001:00057a18       ?createChunk@ChunkController@IFF_RIFF@@QEAAPEAVIChunkData@2@KK@Z 0000000180058a18 f   ChunkController.obj
 0001:00057a70       ?insertChunk@ChunkController@IFF_RIFF@@QEAAXPEAVIChunkData@2@@Z 0000000180058a70 f   ChunkController.obj
 0001:00057b14       ?removeChunk@ChunkController@IFF_RIFF@@QEAAXPEAVIChunkData@2@@Z 0000000180058b14 f   ChunkController.obj
 0001:00057bc0       ??1?$vector@VChunkPath@IFF_RIFF@@V?$allocator@VChunkPath@IFF_RIFF@@@std@@@std@@QEAA@XZ 0000000180058bc0 f i ChunkController.obj
 0001:00057c90       ??$_Emplace_reallocate@K@?$vector@KV?$allocator@K@std@@@std@@AEAAPEAKQEAK$$QEAK@Z 0000000180058c90 f i ChunkController.obj
 0001:00057e00       ??$_Emplace_reallocate@AEBVChunkPath@IFF_RIFF@@@?$vector@VChunkPath@IFF_RIFF@@V?$allocator@VChunkPath@IFF_RIFF@@@std@@@std@@AEAAPEAVChunkPath@IFF_RIFF@@QEAV23@AEBV23@@Z 0000000180058e00 f i ChunkController.obj
 0001:00058078       ??1_Reallocation_guard@?$vector@VChunkPath@IFF_RIFF@@V?$allocator@VChunkPath@IFF_RIFF@@@std@@@std@@QEAA@XZ 0000000180059078 f i ChunkController.obj
 0001:0005811c       ??1?$_Uninitialized_backout_al@V?$allocator@VChunkPath@IFF_RIFF@@@std@@@std@@QEAA@XZ 000000018005911c f i ChunkController.obj
 0001:00058158       ??0ChunkPath@IFF_RIFF@@QEAA@AEBV01@@Z 0000000180059158 f   ChunkPath.obj
 0001:00058208       ??1ChunkPath@IFF_RIFF@@QEAA@XZ 0000000180059208 f   ChunkPath.obj
 0001:0005821c       ?append@ChunkPath@IFF_RIFF@@QEAAXPEBUChunkIdentifier@2@K@Z 000000018005921c f   ChunkPath.obj
 0001:00058278       ?match@ChunkPath@IFF_RIFF@@QEBA?AW4MatchResult@12@AEBV12@@Z 0000000180059278 f   ChunkPath.obj
 0001:000583c0       ?arrangeChunksInPlace@IChunkBehavior@IFF_RIFF@@IEAAXAEAVIChunkContainer@2@0@Z 00000001800593c0 f   IChunkBehavior.obj
 0001:000587f0       ?arrangeChunksInTree@IChunkBehavior@IFF_RIFF@@IEAAXAEAVIChunkContainer@2@0@Z 00000001800597f0 f   IChunkBehavior.obj
 0001:00058a68       ?validateOffsets@IChunkBehavior@IFF_RIFF@@IEAAXAEAVIChunkContainer@2@_K@Z 0000000180059a68 f   IChunkBehavior.obj
 0001:00058b78       ?mergeFreeChunks@IChunkBehavior@IFF_RIFF@@IEAAPEAVChunk@2@AEAVIChunkContainer@2@K@Z 0000000180059b78 f   IChunkBehavior.obj
 0001:00058db0       ?moveChunks@IChunkBehavior@IFF_RIFF@@IEAAXAEAVIChunkContainer@2@0K@Z 0000000180059db0 f   IChunkBehavior.obj
 0001:00058e44       ?isMovable@IChunkBehavior@IFF_RIFF@@IEBA_NAEBVChunk@2@@Z 0000000180059e44 f   IChunkBehavior.obj
 0001:00058fb4       ?parse@BEXTMetadata@IFF_RIFF@@UEAAXPEAVXMP_IO@@@Z 0000000180059fb4 f i BEXTMetadata.obj
 0001:00058fb4       ?parse@CartMetadata@IFF_RIFF@@UEAAXPEAVXMP_IO@@@Z 0000000180059fb4 f i CartMetadata.obj
 0001:00058fb4       ?parse@DISPMetadata@IFF_RIFF@@UEAAXPEAVXMP_IO@@@Z 0000000180059fb4 f i DISPMetadata.obj
 0001:00058fb4       ?parse@INFOMetadata@IFF_RIFF@@UEAAXPEAVXMP_IO@@@Z 0000000180059fb4 f i INFOMetadata.obj
 0001:00058fb4       ?parse@iXMLMetadata@IFF_RIFF@@UEAAXPEAVXMP_IO@@@Z 0000000180059fb4 f i iXMLMetadata.obj
 0001:00058fc0       ??_EBEXTMetadata@IFF_RIFF@@UEAAPEAXI@Z 0000000180059fc0 f i * CIL library *:* CIL module *
 0001:00058fc0       ??_GBEXTMetadata@IFF_RIFF@@UEAAPEAXI@Z 0000000180059fc0 f i BEXTMetadata.obj
 0001:00059000       ?NormalizeLF@BEXTMetadata@IFF_RIFF@@KAXAEAV?$basic_string@DU?$char_traits@D@std@@V?$allocator@D@2@@std@@@Z 000000018005a000 f   BEXTMetadata.obj
 0001:000590e4       ??1BEXTMetadata@IFF_RIFF@@UEAA@XZ 000000018005a0e4 f   BEXTMetadata.obj
 0001:000590f4       ?parse@BEXTMetadata@IFF_RIFF@@UEAAXPEBE_K@Z 000000018005a0f4 f   BEXTMetadata.obj
 0001:000595d0       ?serialize@BEXTMetadata@IFF_RIFF@@UEAA_KPEAPEAE@Z 000000018005a5d0 f   BEXTMetadata.obj
 0001:00059980       ?isEmptyValue@BEXTMetadata@IFF_RIFF@@MEAA_NKAEAVValueObject@@@Z 000000018005a980 f   BEXTMetadata.obj
 0001:00059a1c       ??$setArray@E@IMetadata@@QEAAXKPEBEK@Z 000000018005aa1c f i BEXTMetadata.obj
 0001:00059b98       ??$getArray@E@IMetadata@@QEBAQEBEKAEAK@Z 000000018005ab98 f i BEXTMetadata.obj
 0001:00059c5c       ?insert@?$basic_string@DU?$char_traits@D@std@@V?$allocator@D@2@@std@@QEAAAEAV12@_K0D@Z 000000018005ac5c f i BEXTMetadata.obj
 0001:00059cf4       ??_E?$TArrayObject@E@@UEAAPEAXI@Z 000000018005acf4 f i * CIL library *:* CIL module *
 0001:00059cf4       ??_G?$TArrayObject@E@@UEAAPEAXI@Z 000000018005acf4 f i BEXTMetadata.obj
 0001:00059d48       ??$_Reallocate_grow_by@V<lambda_b986da8d428e4af07c64af60eec09b61>@@_K_KD@?$basic_string@DU?$char_traits@D@std@@V?$allocator@D@2@@std@@AEAAAEAV01@_KV<lambda_b986da8d428e4af07c64af60eec09b61>@@_K2D@Z 000000018005ad48 f i BEXTMetadata.obj
 0001:00059ecc       ?setArray@?$TArrayObject@E@@QEAAXPEBEK@Z 000000018005aecc f i BEXTMetadata.obj
 0001:00059fa0       ??_ECartMetadata@IFF_RIFF@@UEAAPEAXI@Z 000000018005afa0 f i * CIL library *:* CIL module *
 0001:00059fa0       ??_GCartMetadata@IFF_RIFF@@UEAAPEAXI@Z 000000018005afa0 f i CartMetadata.obj
 0001:00059fe0       ??1CartMetadata@IFF_RIFF@@UEAA@XZ 000000018005afe0 f   CartMetadata.obj
 0001:00059ff0       ?parse@CartMetadata@IFF_RIFF@@UEAAXPEBE_K@Z 000000018005aff0 f   CartMetadata.obj
 0001:0005a2c0       ?serialize@CartMetadata@IFF_RIFF@@UEAA_KPEAPEAE@Z 000000018005b2c0 f   CartMetadata.obj
 0001:0005a500       ?isEmptyValue@CartMetadata@IFF_RIFF@@MEAA_NKAEAVValueObject@@@Z 000000018005b500 f   CartMetadata.obj
 0001:0005a57c       ??$setArray@UStoredCartTimer@CartMetadata@IFF_RIFF@@@IMetadata@@QEAAXKPEBUStoredCartTimer@CartMetadata@IFF_RIFF@@K@Z 000000018005b57c f i CartMetadata.obj
 0001:0005a6e8       ??$getArray@UStoredCartTimer@CartMetadata@IFF_RIFF@@@IMetadata@@QEBAQEBUStoredCartTimer@CartMetadata@IFF_RIFF@@KAEAK@Z 000000018005b6e8 f i CartMetadata.obj
 0001:0005a7ac       ??_E?$TArrayObject@UStoredCartTimer@CartMetadata@IFF_RIFF@@@@UEAAPEAXI@Z 000000018005b7ac f i * CIL library *:* CIL module *
 0001:0005a7ac       ??_G?$TArrayObject@UStoredCartTimer@CartMetadata@IFF_RIFF@@@@UEAAPEAXI@Z 000000018005b7ac f i CartMetadata.obj
 0001:0005a800       ?setArray@?$TArrayObject@UStoredCartTimer@CartMetadata@IFF_RIFF@@@@QEAAXPEBUStoredCartTimer@CartMetadata@IFF_RIFF@@K@Z 000000018005b800 f i CartMetadata.obj
 0001:0005a8d0       ??_EDISPMetadata@IFF_RIFF@@UEAAPEAXI@Z 000000018005b8d0 f i * CIL library *:* CIL module *
 0001:0005a8d0       ??_GDISPMetadata@IFF_RIFF@@UEAAPEAXI@Z 000000018005b8d0 f i DISPMetadata.obj
 0001:0005a910       ??1DISPMetadata@IFF_RIFF@@UEAA@XZ 000000018005b910 f   DISPMetadata.obj
 0001:0005a920       ?parse@DISPMetadata@IFF_RIFF@@UEAAXPEBE_K@Z 000000018005b920 f   DISPMetadata.obj
 0001:0005aa38       ?serialize@DISPMetadata@IFF_RIFF@@UEAA_KPEAPEAE@Z 000000018005ba38 f   DISPMetadata.obj
 0001:0005ab34       ??_EINFOMetadata@IFF_RIFF@@UEAAPEAXI@Z 000000018005bb34 f i * CIL library *:* CIL module *
 0001:0005ab34       ??_GINFOMetadata@IFF_RIFF@@UEAAPEAXI@Z 000000018005bb34 f i INFOMetadata.obj
 0001:0005ab74       ??1INFOMetadata@IFF_RIFF@@UEAA@XZ 000000018005bb74 f   INFOMetadata.obj
 0001:0005ab84       ?parse@INFOMetadata@IFF_RIFF@@UEAAXPEBE_K@Z 000000018005bb84 f   INFOMetadata.obj
 0001:0005adcc       ?serialize@INFOMetadata@IFF_RIFF@@UEAA_KPEAPEAE@Z 000000018005bdcc f   INFOMetadata.obj
 0001:0005b0a8       ?getRealSize@WAVEBehavior@IFF_RIFF@@UEAA_K_KAEBUChunkIdentifier@2@AEAVIChunkContainer@2@PEAVXMP_IO@@@Z 000000018005c0a8 f   WAVEBehavior.obj
 0001:0005b1b8       ?getMaxChunkSize@WAVEBehavior@IFF_RIFF@@UEBA_KXZ 000000018005c1b8 f   WAVEBehavior.obj
 0001:0005b1d8       ?isValidTopLevelChunk@WAVEBehavior@IFF_RIFF@@UEAA_NAEBUChunkIdentifier@2@K@Z 000000018005c1d8 f   WAVEBehavior.obj
 0001:0005b200       ?fixHierarchy@WAVEBehavior@IFF_RIFF@@UEAAXAEAVIChunkContainer@2@@Z 000000018005c200 f   WAVEBehavior.obj
 0001:0005b3e8       ?insertChunk@WAVEBehavior@IFF_RIFF@@UEAAXAEAVIChunkContainer@2@AEAVChunk@2@@Z 000000018005c3e8 f   WAVEBehavior.obj
 0001:0005b4a4       ?removeChunk@WAVEBehavior@IFF_RIFF@@UEAA_NAEAVIChunkContainer@2@AEAVChunk@2@@Z 000000018005c4a4 f   WAVEBehavior.obj
 0001:0005b70c       ?createFREE@WAVEBehavior@IFF_RIFF@@MEAAPEAVChunk@2@_K@Z 000000018005c70c f   WAVEBehavior.obj
 0001:0005b7b8       ?isFREEChunk@WAVEBehavior@IFF_RIFF@@MEBAEAEBVChunk@2@@Z 000000018005c7b8 f   WAVEBehavior.obj
 0001:0005b7f0       ?isRF64@WAVEBehavior@IFF_RIFF@@IEAA_NAEBVIChunkContainer@2@@Z 000000018005c7f0 f   WAVEBehavior.obj
 0001:0005b868       ?getDS64@WAVEBehavior@IFF_RIFF@@IEAAPEAUDS64@12@AEAVIChunkContainer@2@PEAVXMP_IO@@@Z 000000018005c868 f   WAVEBehavior.obj
 0001:0005ba60       ?updateRF64@WAVEBehavior@IFF_RIFF@@IEAAXAEAVIChunkContainer@2@@Z 000000018005ca60 f   WAVEBehavior.obj
 0001:0005bbcc       ?doUpdateRF64@WAVEBehavior@IFF_RIFF@@AEAAXAEAVChunk@2@@Z 000000018005cbcc f   WAVEBehavior.obj
 0001:0005bd34       ?parseDS64Chunk@WAVEBehavior@IFF_RIFF@@IEAA_NAEBVChunk@2@AEAUDS64@12@@Z 000000018005cd34 f   WAVEBehavior.obj
 0001:0005be98       ?serializeDS64Chunk@WAVEBehavior@IFF_RIFF@@IEAA_NAEBUDS64@12@AEAVChunk@2@@Z 000000018005ce98 f   WAVEBehavior.obj
 0001:0005c008       ??$_Emplace_reallocate@AEBUChunkSize64@WAVEBehavior@IFF_RIFF@@@?$vector@UChunkSize64@WAVEBehavior@IFF_RIFF@@V?$allocator@UChunkSize64@WAVEBehavior@IFF_RIFF@@@std@@@std@@AEAAPEAUChunkSize64@WAVEBehavior@IFF_RIFF@@QEAU234@AEBU234@@Z 000000018005d008 f i WAVEBehavior.obj
 0001:0005c200       ??1_Reallocation_guard@?$vector@UChunkSize64@WAVEBehavior@IFF_RIFF@@V?$allocator@UChunkSize64@WAVEBehavior@IFF_RIFF@@@std@@@std@@QEAA@XZ 000000018005d200 f i WAVEBehavior.obj
 0001:0005c264       ??0TrackListInfo@iXMLMetadata@IFF_RIFF@@QEAA@XZ 000000018005d264 f i WAVEReconcile.obj
 0001:0005c2ac       ??9TrackListInfo@iXMLMetadata@IFF_RIFF@@QEBA_NAEBV012@@Z 000000018005d2ac f i WAVEReconcile.obj
 0001:0005c3f0       ?importToXMP@WAVEReconcile@IFF_RIFF@@UEAAEAEAV?$TXMPMeta@V?$basic_string@DU?$char_traits@D@std@@V?$allocator@D@2@@std@@@@AEBVMetadataSet@@@Z 000000018005d3f0 f   WAVEReconcile.obj
 0001:0005cc74       ?exportFromXMP@WAVEReconcile@IFF_RIFF@@UEAAEAEAVMetadataSet@@AEAV?$TXMPMeta@V?$basic_string@DU?$char_traits@D@std@@V?$allocator@D@2@@std@@@@@Z 000000018005dc74 f   WAVEReconcile.obj
 0001:0005d600       ?encodeToHexString@WAVEReconcile@IFF_RIFF@@CA_NPEBEAEAV?$basic_string@DU?$char_traits@D@std@@V?$allocator@D@2@@std@@@Z 000000018005e600 f   WAVEReconcile.obj
 0001:0005d7bc       ?decodeFromHexString@WAVEReconcile@IFF_RIFF@@CA_NV?$basic_string@DU?$char_traits@D@std@@V?$allocator@D@2@@std@@AEAV34@@Z 000000018005e7bc f   WAVEReconcile.obj
 0001:0005d8dc       ?stringToFOURCC@WAVEReconcile@IFF_RIFF@@CA_NV?$basic_string@DU?$char_traits@D@std@@V?$allocator@D@2@@std@@AEAK@Z 000000018005e8dc f   WAVEReconcile.obj
 0001:0005d9ec       ?exportSpecialXMPToiXML@WAVEReconcile@IFF_RIFF@@CAXAEAV?$TXMPMeta@V?$basic_string@DU?$char_traits@D@std@@V?$allocator@D@2@@std@@@@AEAVIMetadata@@AEAV?$vector@U?$pair@PEBDPEBD@std@@V?$allocator@U?$pair@PEBDPEBD@std@@@2@@std@@@Z 000000018005e9ec f   WAVEReconcile.obj
 0001:0005e464       ??1TrackListInfo@iXMLMetadata@IFF_RIFF@@QEAA@XZ 000000018005f464 f i WAVEReconcile.obj
 0001:0005e498       ?exportSpecialiXMLToXMP@WAVEReconcile@IFF_RIFF@@CA_NAEAVIMetadata@@AEAV?$TXMPMeta@V?$basic_string@DU?$char_traits@D@std@@V?$allocator@D@2@@std@@@@@Z 000000018005f498 f   WAVEReconcile.obj
 0001:0005eaa8       ??$get@ViXMLMetadata@IFF_RIFF@@@MetadataSet@@QEBAPEAViXMLMetadata@IFF_RIFF@@XZ 000000018005faa8 f i WAVEReconcile.obj
 0001:0005eb10       ??$get@VBEXTMetadata@IFF_RIFF@@@MetadataSet@@QEBAPEAVBEXTMetadata@IFF_RIFF@@XZ 000000018005fb10 f i WAVEReconcile.obj
 0001:0005eb78       ??$get@VCartMetadata@IFF_RIFF@@@MetadataSet@@QEBAPEAVCartMetadata@IFF_RIFF@@XZ 000000018005fb78 f i WAVEReconcile.obj
 0001:0005ebe0       ??$get@VINFOMetadata@IFF_RIFF@@@MetadataSet@@QEBAPEAVINFOMetadata@IFF_RIFF@@XZ 000000018005fbe0 f i WAVEReconcile.obj
 0001:0005ec48       ??$get@VDISPMetadata@IFF_RIFF@@@MetadataSet@@QEBAPEAVDISPMetadata@IFF_RIFF@@XZ 000000018005fc48 f i WAVEReconcile.obj
 0001:0005ecb0       ??$setArray@VTrackListInfo@iXMLMetadata@IFF_RIFF@@@IMetadata@@QEAAXKPEBVTrackListInfo@iXMLMetadata@IFF_RIFF@@K@Z 000000018005fcb0 f i WAVEReconcile.obj
 0001:0005edfc       ??$getArray@VTrackListInfo@iXMLMetadata@IFF_RIFF@@@IMetadata@@QEBAQEBVTrackListInfo@iXMLMetadata@IFF_RIFF@@KAEAK@Z 000000018005fdfc f i WAVEReconcile.obj
 0001:0005eec0       ??1?$vector@VTrackListInfo@iXMLMetadata@IFF_RIFF@@V?$allocator@VTrackListInfo@iXMLMetadata@IFF_RIFF@@@std@@@std@@QEAA@XZ 000000018005fec0 f i WAVEReconcile.obj
 0001:0005ef84       ??1?$TArrayObject@VTrackListInfo@iXMLMetadata@IFF_RIFF@@@@UEAA@XZ 000000018005ff84 f i WAVEReconcile.obj
 0001:0005efe8       ?setArray@?$TArrayObject@VTrackListInfo@iXMLMetadata@IFF_RIFF@@@@QEAAXPEBVTrackListInfo@iXMLMetadata@IFF_RIFF@@K@Z 000000018005ffe8 f i WAVEReconcile.obj
 0001:0005f1c0       ??_E?$TArrayObject@VTrackListInfo@iXMLMetadata@IFF_RIFF@@@@UEAAPEAXI@Z 00000001800601c0 f i * CIL library *:* CIL module *
 0001:0005f1c0       ??_G?$TArrayObject@VTrackListInfo@iXMLMetadata@IFF_RIFF@@@@UEAAPEAXI@Z 00000001800601c0 f i WAVEReconcile.obj
 0001:0005f1f4       ??$_Emplace_reallocate@AEBVTrackListInfo@iXMLMetadata@IFF_RIFF@@@?$vector@VTrackListInfo@iXMLMetadata@IFF_RIFF@@V?$allocator@VTrackListInfo@iXMLMetadata@IFF_RIFF@@@std@@@std@@AEAAPEAVTrackListInfo@iXMLMetadata@IFF_RIFF@@QEAV234@AEBV234@@Z 00000001800601f4 f i WAVEReconcile.obj
 0001:0005f410       ??$_Uninitialized_move@PEAVTrackListInfo@iXMLMetadata@IFF_RIFF@@V?$allocator@VTrackListInfo@iXMLMetadata@IFF_RIFF@@@std@@@std@@YAPEAVTrackListInfo@iXMLMetadata@IFF_RIFF@@QEAV123@0PEAV123@AEAV?$allocator@VTrackListInfo@iXMLMetadata@IFF_RIFF@@@0@@Z 0000000180060410 f i WAVEReconcile.obj
 0001:0005f544       ??1_Reallocation_guard@?$vector@VTrackListInfo@iXMLMetadata@IFF_RIFF@@V?$allocator@VTrackListInfo@iXMLMetadata@IFF_RIFF@@@std@@@std@@QEAA@XZ 0000000180060544 f i WAVEReconcile.obj
 0001:0005f5f0       ??_EiXMLMetadata@IFF_RIFF@@UEAAPEAXI@Z 00000001800605f0 f i * CIL library *:* CIL module *
 0001:0005f5f0       ??_GiXMLMetadata@IFF_RIFF@@UEAAPEAXI@Z 00000001800605f0 f i iXMLMetadata.obj
 0001:0005f624       ??1iXMLMetadata@IFF_RIFF@@UEAA@XZ 0000000180060624 f   iXMLMetadata.obj
 0001:0005f684       ?parse@iXMLMetadata@IFF_RIFF@@UEAAXPEBE_K@Z 0000000180060684 f   iXMLMetadata.obj
 0001:0005f7f4       ?serialize@iXMLMetadata@IFF_RIFF@@UEAA_KPEAPEAE@Z 00000001800607f4 f   iXMLMetadata.obj
 0001:0005faec       ?isEmptyValue@iXMLMetadata@IFF_RIFF@@MEAA_NKAEAVValueObject@@@Z 0000000180060aec f   iXMLMetadata.obj
 0001:0005fbec       ?ParseAndSetStringProperty@iXMLMetadata@IFF_RIFF@@IEAAXPEAVXML_Node@@K@Z 0000000180060bec f   iXMLMetadata.obj
 0001:0005fc68       ?NotifyClient@iXMLMetadata@IFF_RIFF@@IEAAXEAEAVXMP_Error@@@Z 0000000180060c68 f   iXMLMetadata.obj
 0001:0005fddc       ?ParseAndSetIntegerProperty@iXMLMetadata@IFF_RIFF@@IEAAXPEAVXML_Node@@K@Z 0000000180060ddc f   iXMLMetadata.obj
 0001:0005fe7c       ?ParseAndSetBoolProperty@iXMLMetadata@IFF_RIFF@@IEAAXPEAVXML_Node@@K@Z 0000000180060e7c f   iXMLMetadata.obj
 0001:0005ff94       ?ParseAndSetProperties@iXMLMetadata@IFF_RIFF@@IEAAXXZ 0000000180060f94 f   iXMLMetadata.obj
 0001:000601b8       ?UpdateStringProperty@iXMLMetadata@IFF_RIFF@@IEAAXPEAVXML_Node@@K@Z 00000001800611b8 f   iXMLMetadata.obj
 0001:000602c4       ?UpdateXMLNode@iXMLMetadata@IFF_RIFF@@IEAAXPEAVXML_Node@@PEBDAEBV?$basic_string@DU?$char_traits@D@std@@V?$allocator@D@2@@std@@@Z 00000001800612c4 f   iXMLMetadata.obj
 0001:000603e4       ?RemoveXMLNode@iXMLMetadata@IFF_RIFF@@IEAAXPEAVXML_Node@@PEBD@Z 00000001800613e4 f   iXMLMetadata.obj
 0001:000604e0       ?UpdateIntegerProperty@iXMLMetadata@IFF_RIFF@@IEAAXPEAVXML_Node@@K@Z 00000001800614e0 f   iXMLMetadata.obj
 0001:0006057c       ?UpdateBoolProperty@iXMLMetadata@IFF_RIFF@@IEAAXPEAVXML_Node@@K@Z 000000018006157c f   iXMLMetadata.obj
 0001:000606bc       ?UpdateTrackListInfo@iXMLMetadata@IFF_RIFF@@IEAAXPEAVXML_Node@@@Z 00000001800616bc f   iXMLMetadata.obj
 0001:00060988       ?UpdateProperties@iXMLMetadata@IFF_RIFF@@IEAAXXZ 0000000180061988 f   iXMLMetadata.obj
 0001:00060b8c       ?valueValid@iXMLMetadata@IFF_RIFF@@MEAA_NKPEAVValueObject@@@Z 0000000180061b8c f   iXMLMetadata.obj
 0001:00060c88       ?valueModify@iXMLMetadata@IFF_RIFF@@MEAAXKPEAVValueObject@@@Z 0000000180061c88 f   iXMLMetadata.obj
 0001:00060cc4       ?validateStringSize@iXMLMetadata@IFF_RIFF@@IEAA_NPEAVValueObject@@_K1@Z 0000000180061cc4 f   iXMLMetadata.obj
 0001:00060d70       ?validateInt@iXMLMetadata@IFF_RIFF@@IEAA_NPEAVValueObject@@_K1@Z 0000000180061d70 f   iXMLMetadata.obj
 0001:00060e24       ?validateBool@iXMLMetadata@IFF_RIFF@@IEAA_NPEAVValueObject@@@Z 0000000180061e24 f   iXMLMetadata.obj
 0001:00060e8c       ?shortenString@iXMLMetadata@IFF_RIFF@@IEAAXPEAVValueObject@@_K@Z 0000000180061e8c f   iXMLMetadata.obj
 0001:000610f0       ?validateDate@iXMLMetadata@IFF_RIFF@@IEAA_NPEAVValueObject@@@Z 00000001800620f0 f   iXMLMetadata.obj
 0001:000611b0       ?validateTime@iXMLMetadata@IFF_RIFF@@IEAA_NPEAVValueObject@@@Z 00000001800621b0 f   iXMLMetadata.obj
 0001:00061270       ?validateUMID@iXMLMetadata@IFF_RIFF@@IEAA_NPEAVValueObject@@@Z 0000000180062270 f   iXMLMetadata.obj
 0001:00061364       ?ParseStringValue@iXMLMetadata@IFF_RIFF@@IEAA?AV?$basic_string@DU?$char_traits@D@std@@V?$allocator@D@2@@std@@PEAVXML_Node@@PEBD_N@Z 0000000180062364 f   iXMLMetadata.obj
 0001:0006143c       ?ParseUns64Value@iXMLMetadata@IFF_RIFF@@IEAA_KPEAVXML_Node@@PEBD@Z 000000018006243c f   iXMLMetadata.obj
 0001:000614c8       ?ParseAndSetTrackListInfo@iXMLMetadata@IFF_RIFF@@IEAAXPEAVXML_Node@@@Z 00000001800624c8 f   iXMLMetadata.obj
 0001:00061c34       ?validateTimeCodeFlag@iXMLMetadata@IFF_RIFF@@IEAA_NPEAVValueObject@@@Z 0000000180062c34 f   iXMLMetadata.obj
 0001:00061d08       ?validateRational@iXMLMetadata@IFF_RIFF@@IEAA_NPEAVValueObject@@@Z 0000000180062d08 f   iXMLMetadata.obj
 0001:00061e44       ??_EASF_Support@@UEAAPEAXI@Z 0000000180062e44 f i * CIL library *:* CIL module *
 0001:00061e44       ??_GASF_Support@@UEAAPEAXI@Z 0000000180062e44 f i ASF_Support.obj
 0001:00061e78       ??1ASF_Support@@UEAA@XZ    0000000180062e78 f   ASF_Support.obj
 0001:00061e8c       ?OpenASF@ASF_Support@@QEAAJPEAVXMP_IO@@AEAVObjectState@1@@Z 0000000180062e8c f   ASF_Support.obj
 0001:00061f28       ?ReadObject@ASF_Support@@QEAA_NPEAVXMP_IO@@AEAVObjectState@1@PEA_KAEA_K@Z 0000000180062f28 f   ASF_Support.obj
 0001:000620c8       ?ReadHeaderObject@ASF_Support@@QEAA_NPEAVXMP_IO@@AEAVObjectState@1@AEBVObjectData@1@@Z 00000001800630c8 f   ASF_Support.obj
 0001:00062e70       ?WriteHeaderObject@ASF_Support@@QEAA_NPEAVXMP_IO@@0AEBVObjectData@1@AEAVASF_LegacyManager@@_N@Z 0000000180063e70 f   ASF_Support.obj
 0001:000645e0       ?ReadHeaderExtensionObject@ASF_Support@@QEAA_NPEAVXMP_IO@@AEAVObjectState@1@AEB_KAEBU_ASF_ObjectBase@@@Z 00000001800655e0 f   ASF_Support.obj
 0001:000646c8       ?WriteHeaderExtensionObject@ASF_Support@@SA_NAEBV?$basic_string@DU?$char_traits@D@std@@V?$allocator@D@2@@std@@PEAV23@AEBU_ASF_ObjectBase@@H@Z 00000001800656c8 f   ASF_Support.obj
 0001:0006496c       ?CreatePaddingObject@ASF_Support@@SA_NPEAV?$basic_string@DU?$char_traits@D@std@@V?$allocator@D@2@@std@@_K@Z 000000018006596c f   ASF_Support.obj
 0001:000649e4       ?WriteXMPObject@ASF_Support@@SA_NPEAVXMP_IO@@KPEBD@Z 00000001800659e4 f   ASF_Support.obj
 0001:00064a64       ?CopyObject@ASF_Support@@SA_NPEAVXMP_IO@@0AEBVObjectData@1@@Z 0000000180065a64 f   ASF_Support.obj
 0001:00064abc       ?ReadBuffer@ASF_Support@@SA_NPEAVXMP_IO@@AEA_K_KPEAD@Z 0000000180065abc f   ASF_Support.obj
 0001:00064b24       ?WriteBuffer@ASF_Support@@SA_NPEAVXMP_IO@@AEA_KKPEBD@Z 0000000180065b24 f   ASF_Support.obj
 0001:00064b24       ?WriteBuffer@PNG_Support@@YA_NPEAVXMP_IO@@AEA_KKPEBD@Z 0000000180065b24 f   PNG_Support.obj
 0001:00064b7c       ?ReplaceString@ASF_Support@@CA?AV?$basic_string@DU?$char_traits@D@std@@V?$allocator@D@2@@std@@AEAV23@0HH@Z 0000000180065b7c f   ASF_Support.obj
 0001:00064c10       ??_EASF_LegacyManager@@UEAAPEAXI@Z 0000000180065c10 f i * CIL library *:* CIL module *
 0001:00064c10       ??_GASF_LegacyManager@@UEAAPEAXI@Z 0000000180065c10 f i ASF_Support.obj
 0001:00064c44       ??1ASF_LegacyManager@@UEAA@XZ 0000000180065c44 f   ASF_Support.obj
 0001:00064c70       ?SetField@ASF_LegacyManager@@QEAA_NW4fieldType@1@AEBV?$basic_string@DU?$char_traits@D@std@@V?$allocator@D@2@@std@@@Z 0000000180065c70 f   ASF_Support.obj
 0001:00064e18       ?GetField@ASF_LegacyManager@@QEAA?AV?$basic_string@DU?$char_traits@D@std@@V?$allocator@D@2@@std@@W4fieldType@1@@Z 0000000180065e18 f   ASF_Support.obj
 0001:00064e40       ?ComputeDigest@ASF_LegacyManager@@QEAAXXZ 0000000180065e40 f   ASF_Support.obj
 0001:000650c4       ?CheckDigest@ASF_LegacyManager@@QEAA_NAEBV?$TXMPMeta@V?$basic_string@DU?$char_traits@D@std@@V?$allocator@D@2@@std@@@@@Z 00000001800660c4 f   ASF_Support.obj
 0001:000651ec       ?SetDigest@ASF_LegacyManager@@QEAAXPEAV?$TXMPMeta@V?$basic_string@DU?$char_traits@D@std@@V?$allocator@D@2@@std@@@@@Z 00000001800661ec f   ASF_Support.obj
 0001:00065240       ?ImportLegacy@ASF_LegacyManager@@QEAAXPEAV?$TXMPMeta@V?$basic_string@DU?$char_traits@D@std@@V?$allocator@D@2@@std@@@@@Z 0000000180066240 f   ASF_Support.obj
 0001:0006552c       ?ExportLegacy@ASF_LegacyManager@@QEAAHAEBV?$TXMPMeta@V?$basic_string@DU?$char_traits@D@std@@V?$allocator@D@2@@std@@@@@Z 000000018006652c f   ASF_Support.obj
 0001:00065be4       ?ConvertMSDateToISODate@ASF_LegacyManager@@CAXAEAV?$basic_string@DU?$char_traits@D@std@@V?$allocator@D@2@@std@@PEAV23@@Z 0000000180066be4 f   ASF_Support.obj
 0001:00065d40       ?ConvertISODateToMSDate@ASF_LegacyManager@@CAXAEAV?$basic_string@DU?$char_traits@D@std@@V?$allocator@D@2@@std@@PEAV23@@Z 0000000180066d40 f   ASF_Support.obj
 0001:00065f08       ??$_Emplace_reallocate@AEBVObjectData@ASF_Support@@@?$vector@VObjectData@ASF_Support@@V?$allocator@VObjectData@ASF_Support@@@std@@@std@@AEAAPEAVObjectData@ASF_Support@@QEAV23@AEBV23@@Z 0000000180066f08 f i ASF_Support.obj
 0001:000661c4       ??1_Reallocation_guard@?$vector@VObjectData@ASF_Support@@V?$allocator@VObjectData@ASF_Support@@@std@@@std@@QEAA@XZ 00000001800671c4 f i ASF_Support.obj
 0001:0006625c       ?InitializeGlobals@ID3_Support@@YA_NXZ 000000018006725c f   ID3_Support.obj
 0001:0006640c       ?TerminateGlobals@ID3_Support@@YAXXZ 000000018006740c f   ID3_Support.obj
 0001:000664e8       ?FindGenreCode@GenreUtils@ID3_Support@@YAPEBDAEBV?$basic_string@DU?$char_traits@D@std@@V?$allocator@D@2@@std@@@Z 00000001800674e8 f   ID3_Support.obj
 0001:00066690       ?ConvertGenreToXMP@GenreUtils@ID3_Support@@YAXPEBDPEAV?$basic_string@DU?$char_traits@D@std@@V?$allocator@D@2@@std@@@Z 0000000180067690 f   ID3_Support.obj
 0001:00066930       ?ConvertGenreToID3@GenreUtils@ID3_Support@@YAXPEBDPEAV?$basic_string@DU?$char_traits@D@std@@V?$allocator@D@2@@std@@@Z 0000000180067930 f   ID3_Support.obj
 0001:00066b88       ?setFrameValue@ID3v2Frame@ID3_Support@@QEAAXAEBV?$basic_string@DU?$char_traits@D@std@@V?$allocator@D@2@@std@@_N1111@Z 0000000180067b88 f   ID3_Support.obj
 0001:00066f00       ?read@ID3v2Frame@ID3_Support@@QEAA_JPEAVXMP_IO@@E@Z 0000000180067f00 f   ID3_Support.obj
 0001:0006711c       ?advancePastCOMMDescriptor@ID3v2Frame@ID3_Support@@QEAA_NAEAJ@Z 000000018006811c f   ID3_Support.obj
 0001:0006738c       ?getFrameValue@ID3v2Frame@ID3_Support@@QEAA_NEKPEAV?$basic_string@DU?$char_traits@D@std@@V?$allocator@D@2@@std@@@Z 000000018006838c f   ID3_Support.obj
 0001:00067604       ?read@ID3v1Tag@ID3_Support@@QEAA_NPEAVXMP_IO@@PEAV?$TXMPMeta@V?$basic_string@DU?$char_traits@D@std@@V?$allocator@D@2@@std@@@@@Z 0000000180068604 f   ID3_Support.obj
 0001:00067c80       ?write@ID3v1Tag@ID3_Support@@QEAAXPEAVXMP_IO@@PEAV?$TXMPMeta@V?$basic_string@DU?$char_traits@D@std@@V?$allocator@D@2@@std@@@@@Z 0000000180068c80 f   ID3_Support.obj
 0001:000682c0       ??$insert@AEAU?$pair@QEBDPEBD@std@@$0A@@?$map@PEBDPEBDVCharStarLess@@V?$allocator@U?$pair@QEBDPEBD@std@@@std@@@std@@QEAA?AV?$_Tree_iterator@V?$_Tree_val@U?$_Tree_simple_types@U?$pair@QEBDPEBD@std@@@std@@@std@@@1@V?$_Tree_const_iterator@V?$_Tree_val@U?$_Tree_simple_types@U?$pair@QEBDPEBD@std@@@std@@@std@@@1@AEAU?$pair@QEBDPEBD@1@@Z 00000001800692c0 f i ID3_Support.obj
 0001:00068388       ?find@?$_Tree@V?$_Tmap_traits@PEBDPEBDVCharStarLess@@V?$allocator@U?$pair@QEBDPEBD@std@@@std@@$0A@@std@@@std@@QEAA?AV?$_Tree_iterator@V?$_Tree_val@U?$_Tree_simple_types@U?$pair@QEBDPEBD@std@@@std@@@std@@@2@AEBQEBD@Z 0000000180069388 f i ID3_Support.obj
 0001:00068420       ??0?$basic_string@DU?$char_traits@D@std@@V?$allocator@D@2@@std@@QEAA@_KD@Z 0000000180069420 f i ID3_Support.obj
 0001:000684fc       ??$_Find_hint@PEBD@?$_Tree@V?$_Tmap_traits@PEBDPEBDVCharStarLess@@V?$allocator@U?$pair@QEBDPEBD@std@@@std@@$0A@@std@@@std@@IEBA?AU?$_Tree_find_hint_result@PEAU?$_Tree_node@U?$pair@QEBDPEBD@std@@PEAX@std@@@1@QEAU?$_Tree_node@U?$pair@QEBDPEBD@std@@PEAX@1@AEBQEBD@Z 00000001800694fc f i ID3_Support.obj
 0001:0006878c       ?ParseMemoryDataSets@IPTC_Manager@@QEAAXPEBXK_N@Z 000000018006978c f   IPTC_Support.obj
 0001:00068b60       ?GetDataSet@IPTC_Manager@@QEBA_KEPEAUDataSetInfo@1@_K@Z 0000000180069b60 f   IPTC_Support.obj
 0001:00068c50       ?GetDataSet_UTF8@IPTC_Manager@@QEBA_KEPEAV?$basic_string@DU?$char_traits@D@std@@V?$allocator@D@2@@std@@_K@Z 0000000180069c50 f   IPTC_Support.obj
 0001:00068d58       ?DisposeLooseValue@IPTC_Manager@@IEAAXAEAUDataSetInfo@1@@Z 0000000180069d58 f   IPTC_Support.obj
 0001:00068d9c       ?AppendDataSet@IPTC_Manager@@IEAAPEAEPEAEAEBUDataSetInfo@1@@Z 0000000180069d9c f   IPTC_Support.obj
 0001:00068e08       ??1IPTC_Writer@@UEAA@XZ    0000000180069e08 f   IPTC_Support.obj
 0001:00068e98       ?SetDataSet_UTF8@IPTC_Writer@@UEAAXEPEBXKJ@Z 0000000180069e98 f   IPTC_Support.obj
 0001:00069254       ?DeleteDataSet@IPTC_Writer@@UEAAXEJ@Z 000000018006a254 f   IPTC_Support.obj
 0001:000694f4       ?UpdateMemoryDataSets@IPTC_Writer@@UEAAXXZ 000000018006a4f4 f   IPTC_Support.obj
 0001:000697a4       ?ConvertToUTF8@IPTC_Writer@@AEAAXXZ 000000018006a7a4 f   IPTC_Support.obj
 0001:00069934       ?count@?$_Tree@V?$_Tmap_traits@GUDataSetInfo@IPTC_Manager@@U?$less@G@std@@V?$allocator@U?$pair@$$CBGUDataSetInfo@IPTC_Manager@@@std@@@4@$00@std@@@std@@QEBA_KAEBG@Z 000000018006a934 f i IPTC_Support.obj
 0001:000699f4       ??$_Emplace_hint@AEAU?$pair@$$CBGUDataSetInfo@IPTC_Manager@@@std@@@?$_Tree@V?$_Tmap_traits@GUDataSetInfo@IPTC_Manager@@U?$less@G@std@@V?$allocator@U?$pair@$$CBGUDataSetInfo@IPTC_Manager@@@std@@@4@$00@std@@@std@@IEAAPEAU?$_Tree_node@U?$pair@$$CBGUDataSetInfo@IPTC_Manager@@@std@@PEAX@1@QEAU21@AEAU?$pair@$$CBGUDataSetInfo@IPTC_Manager@@@1@@Z 000000018006a9f4 f i IPTC_Support.obj
 0001:00069c70       ??1?$_Alloc_construct_ptr@V?$allocator@U?$_Tree_node@U?$pair@$$CBGUDataSetInfo@IPTC_Manager@@@std@@PEAX@std@@@std@@@std@@QEAA@XZ 000000018006ac70 f i IPTC_Support.obj
 0001:00069c70       ??1?$_Tree_temp_node@V?$allocator@U?$_Tree_node@U?$pair@$$CBGUDataSetInfo@IPTC_Manager@@@std@@PEAX@std@@@std@@@std@@QEAA@XZ 000000018006ac70 f i IPTC_Support.obj
 0001:00069c8c       ??1?$set@KU?$less@K@std@@V?$allocator@K@2@@std@@QEAA@XZ 000000018006ac8c f i ISOBaseMedia_Support.obj
 0001:00069ce0       ?IsKnownBoxType@ISOMedia@@YA_NK@Z 000000018006ace0 f   ISOBaseMedia_Support.obj
 0001:0006a35c       ?GetBoxInfo@ISOMedia@@YAPEBEPEBE0PEAUBoxInfo@1@_N@Z 000000018006b35c f   ISOBaseMedia_Support.obj
 0001:0006a524       ?GetBoxInfo@ISOMedia@@YA_KPEAVXMP_IO@@_K1PEAUBoxInfo@1@_N3@Z 000000018006b524 f   ISOBaseMedia_Support.obj
 0001:0006a754       ?FillBoxInfo@ISOBaseMedia_Manager@@QEBAXAEBUBoxNode@1@PEAUBoxInfo@1@@Z 000000018006b754 f   ISOBaseMedia_Support.obj
 0001:0006a7d4       ?GetNthChild@ISOBaseMedia_Manager@@QEBAPEBXPEBX_KPEAUBoxInfo@1@@Z 000000018006b7d4 f   ISOBaseMedia_Support.obj
 0001:0006a85c       ?GetTypeChild@ISOBaseMedia_Manager@@QEBAPEBXPEBXKPEAUBoxInfo@1@@Z 000000018006b85c f   ISOBaseMedia_Support.obj
 0001:0006a900       ?NoteChange@ISOBaseMedia_Manager@@UEAAXXZ 000000018006b900 f   ISOBaseMedia_Support.obj
 0001:0006a908       ?SetBox@ISOBaseMedia_Manager@@QEAAXPEBX0KPEBE@Z 000000018006b908 f   ISOBaseMedia_Support.obj
 0001:0006a9fc       ?DeleteTypeChild@ISOBaseMedia_Manager@@QEAA_NPEBXK@Z 000000018006b9fc f   ISOBaseMedia_Support.obj
 0001:0006aa3c       ?WriteBoxHeader@ISOBaseMedia_Manager@@QEAAXPEAVXMP_IO@@K_K@Z 000000018006ba3c f   ISOBaseMedia_Support.obj
 0001:0006ab7c       ?WipeBoxFree@ISOBaseMedia_Manager@@QEAAXPEAVXMP_IO@@_KK@Z 000000018006bb7c f   ISOBaseMedia_Support.obj
 0001:0006ac88       ?CreateFreeSpaceList@ISOBaseMedia_Manager@@QEAAXPEAVXMP_IO@@_K1KPEAV?$vector@USpaceInfo@ISOBaseMedia_Manager@@V?$allocator@USpaceInfo@ISOBaseMedia_Manager@@@std@@@std@@@Z 000000018006bc88 f   ISOBaseMedia_Support.obj
 0001:0006adac       ?AddChildBox@ISOBaseMedia_Manager@@QEAAPEBXPEBXK0KPEBE@Z 000000018006bdac f   ISOBaseMedia_Support.obj
 0001:0006af3c       ??$insert@$0A@$0A@@?$_Tree@V?$_Tset_traits@KU?$less@K@std@@V?$allocator@K@2@$0A@@std@@@std@@QEAA?AU?$pair@V?$_Tree_const_iterator@V?$_Tree_val@U?$_Tree_simple_types@K@std@@@std@@@std@@_N@1@$$QEAK@Z 000000018006bf3c f i ISOBaseMedia_Support.obj
 0001:0006b044       ?erase@?$vector@UBoxNode@ISOBaseMedia_Manager@@V?$allocator@UBoxNode@ISOBaseMedia_Manager@@@std@@@std@@QEAA?AV?$_Vector_iterator@V?$_Vector_val@U?$_Simple_types@UBoxNode@ISOBaseMedia_Manager@@@std@@@std@@@2@V?$_Vector_const_iterator@V?$_Vector_val@U?$_Simple_types@UBoxNode@ISOBaseMedia_Manager@@@std@@@std@@@2@@Z 000000018006c044 f i ISOBaseMedia_Support.obj
 0001:0006b18c       ?push_back@?$vector@UBoxNode@ISOBaseMedia_Manager@@V?$allocator@UBoxNode@ISOBaseMedia_Manager@@@std@@@std@@QEAAX$$QEAUBoxNode@ISOBaseMedia_Manager@@@Z 000000018006c18c f i ISOBaseMedia_Support.obj
 0001:0006b224       ??$_Erase_tree@V?$allocator@U?$_Tree_node@KPEAX@std@@@std@@@?$_Tree_val@U?$_Tree_simple_types@K@std@@@std@@QEAAXAEAV?$allocator@U?$_Tree_node@KPEAX@std@@@1@PEAU?$_Tree_node@KPEAX@1@@Z 000000018006c224 f i ISOBaseMedia_Support.obj
 0001:0006b224       ??$_Erase_tree_and_orphan@V?$allocator@U?$_Tree_node@KPEAX@std@@@std@@@?$_Tree_val@U?$_Tree_simple_types@K@std@@@std@@QEAAXAEAV?$allocator@U?$_Tree_node@KPEAX@std@@@1@PEAU?$_Tree_node@KPEAX@1@@Z 000000018006c224 f i XMPAtoms.obj
 0001:0006b278       ??$_Emplace_reallocate@UBoxNode@ISOBaseMedia_Manager@@@?$vector@UBoxNode@ISOBaseMedia_Manager@@V?$allocator@UBoxNode@ISOBaseMedia_Manager@@@std@@@std@@AEAAPEAUBoxNode@ISOBaseMedia_Manager@@QEAU23@$$QEAU23@@Z 000000018006c278 f i ISOBaseMedia_Support.obj
 0001:0006b504       ??$_Uninitialized_move@PEAUBoxNode@ISOBaseMedia_Manager@@V?$allocator@UBoxNode@ISOBaseMedia_Manager@@@std@@@std@@YAPEAUBoxNode@ISOBaseMedia_Manager@@QEAU12@0PEAU12@AEAV?$allocator@UBoxNode@ISOBaseMedia_Manager@@@0@@Z 000000018006c504 f i ISOBaseMedia_Support.obj
 0001:0006b5dc       ??1?$_Alloc_construct_ptr@V?$allocator@U?$_Tree_node@KPEAX@std@@@std@@@std@@QEAA@XZ 000000018006c5dc f i ISOBaseMedia_Support.obj
 0001:0006b5f8       ??1_Reallocation_guard@?$vector@UBoxNode@ISOBaseMedia_Manager@@V?$allocator@UBoxNode@ISOBaseMedia_Manager@@@std@@@std@@QEAA@XZ 000000018006c5f8 f i ISOBaseMedia_Support.obj
 0001:0006b690       ?GetBox@MOOV_Manager@@QEBAPEBXPEBDPEAUBoxInfo@ISOBaseMedia_Manager@@@Z 000000018006c690 f   MOOV_Support.obj
 0001:0006b734       ?ParseMemoryTree@MOOV_Manager@@QEAAXE@Z 000000018006c734 f   MOOV_Support.obj
 0001:0006b92c       ?ParseNestedBoxes@MOOV_Manager@@AEAAXPEAUBoxNode@ISOBaseMedia_Manager@@AEBV?$basic_string@DU?$char_traits@D@std@@V?$allocator@D@2@@std@@_N@Z 000000018006c92c f   MOOV_Support.obj
 0001:0006bd94       ?SetBox@MOOV_Manager@@QEAAXPEBDPEBXKPEBE@Z 000000018006cd94 f   MOOV_Support.obj
 0001:0006be6c       ?NewSubtreeSize@MOOV_Manager@@AEAAKAEBUBoxNode@ISOBaseMedia_Manager@@AEBV?$basic_string@DU?$char_traits@D@std@@V?$allocator@D@2@@std@@@Z 000000018006ce6c f   MOOV_Support.obj
 0001:0006bfcc       ?AppendNewSubtree@MOOV_Manager@@AEAAPEAEAEBUBoxNode@ISOBaseMedia_Manager@@AEBV?$basic_string@DU?$char_traits@D@std@@V?$allocator@D@2@@std@@PEAE2@Z 000000018006cfcc f   MOOV_Support.obj
 0001:0006c258       ?UpdateMemoryTree@MOOV_Manager@@QEAAXXZ 000000018006d258 f   MOOV_Support.obj
 0001:0006c524       ??0P2_Clip@@QEAA@AEBV?$basic_string@DU?$char_traits@D@std@@V?$allocator@D@2@@std@@@Z 000000018006d524 f   P2_Support.obj
 0001:0006c5d0       ??_EP2_Clip@@UEAAPEAXI@Z   000000018006d5d0 f i * CIL library *:* CIL module *
 0001:0006c5d0       ??_GP2_Clip@@UEAAPEAXI@Z   000000018006d5d0 f i P2_Support.obj
 0001:0006c604       ?PrepareForExpatParser@P2_Clip@@AEAAXAEBV?$basic_string@DU?$char_traits@D@std@@V?$allocator@D@2@@std@@@Z 000000018006d604 f   P2_Support.obj
 0001:0006c6b0       ??1P2_Clip@@UEAA@XZ        000000018006d6b0 f   P2_Support.obj
 0001:0006c6e4       ?CreateExpatParser@P2_Clip@@AEAAXAEAVXMPFiles_IO@@@Z 000000018006d6e4 f   P2_Support.obj
 0001:0006c7a8       ?DestroyExpatParser@P2_Clip@@AEAAXXZ 000000018006d7a8 f   P2_Support.obj
 0001:0006c808       ?GetP2RootNode@P2_Clip@@QEAAPEAVXML_Node@@XZ 000000018006d808 f   P2_Support.obj
 0001:0006c8d8       ?CacheClipContent@P2_Clip@@AEAAXXZ 000000018006d8d8 f   P2_Support.obj
 0001:0006cb6c       ?GetClipName@P2_Clip@@QEAAPEAV?$basic_string@DU?$char_traits@D@std@@V?$allocator@D@2@@std@@XZ 000000018006db6c f   P2_Support.obj
 0001:0006cc74       ?GetClipTitle@P2_Clip@@QEAA?AV?$basic_string@DU?$char_traits@D@std@@V?$allocator@D@2@@std@@XZ 000000018006dc74 f   P2_Support.obj
 0001:0006ccd4       ?GetXMPFilePath@P2_Clip@@UEAA?AV?$basic_string@DU?$char_traits@D@std@@V?$allocator@D@2@@std@@XZ 000000018006dcd4 f   P2_Support.obj
 0001:0006ce0c       ??0P2_SpannedClip@@QEAA@AEBV?$basic_string@DU?$char_traits@D@std@@V?$allocator@D@2@@std@@@Z 000000018006de0c f   P2_Support.obj
 0001:0006cee4       ??_EP2_SpannedClip@@UEAAPEAXI@Z 000000018006dee4 f i * CIL library *:* CIL module *
 0001:0006cee4       ??_GP2_SpannedClip@@UEAAPEAXI@Z 000000018006dee4 f i P2_Support.obj
 0001:0006cf18       ??1?$set@V?$basic_string@DU?$char_traits@D@std@@V?$allocator@D@2@@std@@U?$less@V?$basic_string@DU?$char_traits@D@std@@V?$allocator@D@2@@std@@@2@V?$allocator@V?$basic_string@DU?$char_traits@D@std@@V?$allocator@D@2@@std@@@2@@std@@QEAA@XZ 000000018006df18 f i P2_Support.obj
 0001:0006cf20       ??1?$multiset@PEAVP2_Clip@@UP2SpannedClip_Order@@V?$allocator@PEAVP2_Clip@@@std@@@std@@QEAA@XZ 000000018006df20 f i P2_Support.obj
 0001:0006cf74       ?checkSpannedClipIsComplete@P2_SpannedClip@@QEAAXXZ 000000018006df74 f   P2_Support.obj
 0001:0006d1a8       ?GetXMPFilePath@P2_SpannedClip@@UEAA?AV?$basic_string@DU?$char_traits@D@std@@V?$allocator@D@2@@std@@XZ 000000018006e1a8 f   P2_Support.obj
 0001:0006d304       ?DigestElement@P2_SpannedClip@@AEAAXAEAUMD5_CTX@@PEAVXML_Node@@PEBD@Z 000000018006e304 f   P2_Support.obj
 0001:0006d38c       ?CreateDigest@P2_SpannedClip@@UEAAXPEAV?$basic_string@DU?$char_traits@D@std@@V?$allocator@D@2@@std@@@Z 000000018006e38c f   P2_Support.obj
 0001:0006d964       ??1P2_SpannedClip@@UEAA@XZ 000000018006e964 f   P2_Support.obj
 0001:0006db04       ?GetDuration@P2_SpannedClip@@QEAAKXZ 000000018006eb04 f   P2_Support.obj
 0001:0006dbb4       ?GetAllClipNames@P2_SpannedClip@@QEAAXAEAV?$vector@V?$basic_string@DU?$char_traits@D@std@@V?$allocator@D@2@@std@@V?$allocator@V?$basic_string@DU?$char_traits@D@std@@V?$allocator@D@2@@std@@@2@@std@@@Z 000000018006ebb4 f   P2_Support.obj
 0001:0006dcd8       ??1P2_Manager@@QEAA@XZ     000000018006ecd8 f   P2_Support.obj
 0001:0006dd04       ?ProcessClip@P2_Manager@@QEAAXAEAV?$basic_string@DU?$char_traits@D@std@@V?$allocator@D@2@@std@@@Z 000000018006ed04 f   P2_Support.obj
 0001:0006e3c0       ?GetManagedClip@P2_Manager@@QEAAPEAVP2_Clip@@XZ 000000018006f3c0 f   P2_Support.obj
 0001:0006e3e8       ??$insert@$00$0A@@?$_Tree@V?$_Tset_traits@PEAVP2_Clip@@UP2SpannedClip_Order@@V?$allocator@PEAVP2_Clip@@@std@@$00@std@@@std@@QEAA?AV?$_Tree_const_iterator@V?$_Tree_val@U?$_Tree_simple_types@PEAVP2_Clip@@@std@@@std@@@1@AEBQEAVP2_Clip@@@Z 000000018006f3e8 f i P2_Support.obj
 0001:0006e4f4       ??$insert@$0A@$0A@@?$_Tree@V?$_Tset_traits@V?$basic_string@DU?$char_traits@D@std@@V?$allocator@D@2@@std@@U?$less@V?$basic_string@DU?$char_traits@D@std@@V?$allocator@D@2@@std@@@2@V?$allocator@V?$basic_string@DU?$char_traits@D@std@@V?$allocator@D@2@@std@@@2@$0A@@std@@@std@@QEAA?AU?$pair@V?$_Tree_const_iterator@V?$_Tree_val@U?$_Tree_simple_types@V?$basic_string@DU?$char_traits@D@std@@V?$allocator@D@2@@std@@@std@@@std@@@std@@_N@1@AEBV?$basic_string@DU?$char_traits@D@std@@V?$allocator@D@2@@1@@Z 000000018006f4f4 f i P2_Support.obj
 0001:0006e624       ??1?$_Tree@V?$_Tset_traits@V?$basic_string@DU?$char_traits@D@std@@V?$allocator@D@2@@std@@U?$less@V?$basic_string@DU?$char_traits@D@std@@V?$allocator@D@2@@std@@@2@V?$allocator@V?$basic_string@DU?$char_traits@D@std@@V?$allocator@D@2@@std@@@2@$0A@@std@@@std@@QEAA@XZ 000000018006f624 f i P2_Support.obj
 0001:0006e68c       ??$_Erase_tree@V?$allocator@U?$_Tree_node@PEAVP2_Clip@@PEAX@std@@@std@@@?$_Tree_val@U?$_Tree_simple_types@PEAVP2_Clip@@@std@@@std@@QEAAXAEAV?$allocator@U?$_Tree_node@PEAVP2_Clip@@PEAX@std@@@1@PEAU?$_Tree_node@PEAVP2_Clip@@PEAX@1@@Z 000000018006f68c f i P2_Support.obj
 0001:0006e6e0       ??$_Erase_tree@V?$allocator@U?$_Tree_node@V?$basic_string@DU?$char_traits@D@std@@V?$allocator@D@2@@std@@PEAX@std@@@std@@@?$_Tree_val@U?$_Tree_simple_types@V?$basic_string@DU?$char_traits@D@std@@V?$allocator@D@2@@std@@@std@@@std@@QEAAXAEAV?$allocator@U?$_Tree_node@V?$basic_string@DU?$char_traits@D@std@@V?$allocator@D@2@@std@@PEAX@std@@@1@PEAU?$_Tree_node@V?$basic_string@DU?$char_traits@D@std@@V?$allocator@D@2@@std@@PEAX@1@@Z 000000018006f6e0 f i P2_Support.obj
 0001:0006e74c       ??1?$_Alloc_construct_ptr@V?$allocator@U?$_Tree_node@PEAVP2_Clip@@PEAX@std@@@std@@@std@@QEAA@XZ 000000018006f74c f i P2_Support.obj
 0001:0006e74c       ??1?$_Tree_temp_node@V?$allocator@U?$_Tree_node@PEAVP2_Clip@@PEAX@std@@@std@@@std@@QEAA@XZ 000000018006f74c f i P2_Support.obj
 0001:0006e768       ?OpenPNG@PNG_Support@@YAJPEAVXMP_IO@@AEAVChunkState@1@@Z 000000018006f768 f   PNG_Support.obj
 0001:0006e7d0       ?ReadChunk@PNG_Support@@YA_NPEAVXMP_IO@@AEAVChunkState@1@PEAJPEAKAEA_J@Z 000000018006f7d0 f   PNG_Support.obj
 0001:0006e934       ?FindAndReadXMPChunk@PNG_Support@@YA_NPEAVXMP_IO@@AEAV?$basic_string@DU?$char_traits@D@std@@V?$allocator@D@2@@std@@AEA_J_N@Z 000000018006f934 f   PNG_Support.obj
 0001:0006eb2c       ?ExtractXMPPacket@PNG_Support@@YA_NPEAVXMP_IO@@KPEAE_J2AEAV?$basic_string@DU?$char_traits@D@std@@V?$allocator@D@2@@std@@AEA_J@Z 000000018006fb2c f   PNG_Support.obj
 0001:0006ef60       ?WriteXMPChunk@PNG_Support@@YA_NPEAVXMP_IO@@KPEBD@Z 000000018006ff60 f   PNG_Support.obj
 0001:0006f054       ?CopyChunk@PNG_Support@@YA_NPEAVXMP_IO@@0AEAVChunkData@1@@Z 0000000180070054 f   PNG_Support.obj
 0001:0006f0b0       ?UpdateChunkCRC@PNG_Support@@YAKPEAVXMP_IO@@AEAVChunkData@1@@Z 00000001800700b0 f   PNG_Support.obj
 0001:0006f178       ?CheckiTXtChunkHeader@PNG_Support@@YAKPEAVXMP_IO@@AEAVChunkState@1@AEAVChunkData@1@@Z 0000000180070178 f   PNG_Support.obj
 0001:0006f238       ?CalculateCRC@PNG_Support@@YAKPEAEK@Z 0000000180070238 f   PNG_Support.obj
 0001:0006f2e0       ??$_Emplace_reallocate@AEBVChunkData@PNG_Support@@@?$vector@VChunkData@PNG_Support@@V?$allocator@VChunkData@PNG_Support@@@std@@@std@@AEAAPEAVChunkData@PNG_Support@@QEAV23@AEBV23@@Z 00000001800702e0 f i PNG_Support.obj
 0001:0006f53c       ??1_Reallocation_guard@?$vector@VChunkData@PNG_Support@@V?$allocator@VChunkData@PNG_Support@@@std@@@std@@QEAA@XZ 000000018007053c f i PNG_Support.obj
 0001:0006f5d0       ?DeleteExistingInfo@PSIR_FileWriter@@AEAAXXZ 00000001800705d0 f   PSIR_FileWriter.obj
 0001:0006f6c0       ??1PSIR_FileWriter@@UEAA@XZ 00000001800706c0 f   PSIR_FileWriter.obj
 0001:0006f728       ?GetImgRsrc@PSIR_FileWriter@@UEBA_NGPEAUImgRsrcInfo@PSIR_Manager@@@Z 0000000180070728 f   PSIR_FileWriter.obj
 0001:0006f78c       ?SetImgRsrc@PSIR_FileWriter@@UEAAXGPEBXK@Z 000000018007078c f   PSIR_FileWriter.obj
 0001:0006f98c       ?DeleteImgRsrc@PSIR_FileWriter@@UEAAXG@Z 000000018007098c f   PSIR_FileWriter.obj
 0001:0006fa08       ?IsLegacyChanged@PSIR_FileWriter@@UEAA_NXZ 0000000180070a08 f   PSIR_FileWriter.obj
 0001:0006fa80       ?ParseMemoryResources@PSIR_FileWriter@@UEAAXPEBXK_N@Z 0000000180070a80 f   PSIR_FileWriter.obj
 0001:0006fda0       ?ParseFileResources@PSIR_FileWriter@@UEAAXPEAVXMP_IO@@K@Z 0000000180070da0 f   PSIR_FileWriter.obj
 0001:0007026c       ?UpdateMemoryResources@PSIR_FileWriter@@UEAAKPEAPEAX@Z 000000018007126c f   PSIR_FileWriter.obj
 0001:000705c4       ?UpdateFileResources@PSIR_FileWriter@@UEAAKPEAVXMP_IO@@0P6A_NPEAX@Z1PEAVXMP_ProgressTracker@@@Z 00000001800715c4 f   PSIR_FileWriter.obj
 0001:00070900       ?erase@?$_Tree@V?$_Tmap_traits@GUInternalRsrcInfo@PSIR_FileWriter@@U?$less@G@std@@V?$allocator@U?$pair@$$CBGUInternalRsrcInfo@PSIR_FileWriter@@@std@@@4@$0A@@std@@@std@@QEAA_KAEBG@Z 0000000180071900 f i PSIR_FileWriter.obj
 0001:00070b00       ?insert@?$_Tree@V?$_Tmap_traits@GUInternalRsrcInfo@PSIR_FileWriter@@U?$less@G@std@@V?$allocator@U?$pair@$$CBGUInternalRsrcInfo@PSIR_FileWriter@@@std@@@4@$0A@@std@@@std@@QEAA?AV?$_Tree_iterator@V?$_Tree_val@U?$_Tree_simple_types@U?$pair@$$CBGUInternalRsrcInfo@PSIR_FileWriter@@@std@@@std@@@std@@@2@V?$_Tree_const_iterator@V?$_Tree_val@U?$_Tree_simple_types@U?$pair@$$CBGUInternalRsrcInfo@PSIR_FileWriter@@@std@@@std@@@std@@@2@$$QEAU?$pair@$$CBGUInternalRsrcInfo@PSIR_FileWriter@@@2@@Z 0000000180071b00 f i PSIR_FileWriter.obj
 0001:00070bdc       ??$_Find_hint@G@?$_Tree@V?$_Tmap_traits@GUInternalRsrcInfo@PSIR_FileWriter@@U?$less@G@std@@V?$allocator@U?$pair@$$CBGUInternalRsrcInfo@PSIR_FileWriter@@@std@@@4@$0A@@std@@@std@@IEBA?AU?$_Tree_find_hint_result@PEAU?$_Tree_node@U?$pair@$$CBGUInternalRsrcInfo@PSIR_FileWriter@@@std@@PEAX@std@@@1@QEAU?$_Tree_node@U?$pair@$$CBGUInternalRsrcInfo@PSIR_FileWriter@@@std@@PEAX@1@AEBG@Z 0000000180071bdc f i PSIR_FileWriter.obj
 0001:00070dc4       ?GetImgRsrc@PSIR_MemoryReader@@UEBA_NGPEAUImgRsrcInfo@PSIR_Manager@@@Z 0000000180071dc4 f   PSIR_MemoryReader.obj
 0001:00070e1c       ?ParseMemoryResources@PSIR_MemoryReader@@UEAAXPEBXK_N@Z 0000000180071e1c f   PSIR_MemoryReader.obj
 0001:000710c0       ??$_Emplace_hint@U?$pair@$$CBGUImgRsrcInfo@PSIR_Manager@@@std@@@?$_Tree@V?$_Tmap_traits@GUImgRsrcInfo@PSIR_Manager@@U?$less@G@std@@V?$allocator@U?$pair@$$CBGUImgRsrcInfo@PSIR_Manager@@@std@@@4@$0A@@std@@@std@@IEAAPEAU?$_Tree_node@U?$pair@$$CBGUImgRsrcInfo@PSIR_Manager@@@std@@PEAX@1@QEAU21@$$QEAU?$pair@$$CBGUImgRsrcInfo@PSIR_Manager@@@1@@Z 00000001800720c0 f i PSIR_MemoryReader.obj
 0001:0007132c       ?AddResourceIfExists@PackageFormat_Support@@YA_NPEAV?$vector@V?$basic_string@DU?$char_traits@D@std@@V?$allocator@D@2@@std@@V?$allocator@V?$basic_string@DU?$char_traits@D@std@@V?$allocator@D@2@@std@@@2@@std@@AEBV?$basic_string@DU?$char_traits@D@std@@V?$allocator@D@2@@3@@Z 000000018007232c f   PackageFormat_Support.obj
 0001:00071390       ?AddResourceIfExists@PackageFormat_Support@@YA_NPEAV?$vector@V?$basic_string@DU?$char_traits@D@std@@V?$allocator@D@2@@std@@V?$allocator@V?$basic_string@DU?$char_traits@D@std@@V?$allocator@D@2@@std@@@2@@std@@AEBV?$basic_string@DU?$char_traits@D@std@@V?$allocator@D@2@@3@PEBD2@Z 0000000180072390 f   PackageFormat_Support.obj
 0001:00071648       ?SkipTabsAndSpaces@PostScript_Support@@YA_NPEAVXMP_IO@@AEAUIOBuffer@@@Z 0000000180072648 f   PostScript_Support.obj
 0001:00071694       ?SkipUntilNewline@PostScript_Support@@YA_NPEAVXMP_IO@@AEAUIOBuffer@@@Z 0000000180072694 f   PostScript_Support.obj
 0001:00071700       ?RevRefillBuffer@PostScript_Support@@YAXPEAVXMP_IO@@PEAUIOBuffer@@@Z 0000000180072700 f   PostScript_Support.obj
 0001:00071804       ?RevCheckFileSpace@PostScript_Support@@YA_NPEAVXMP_IO@@PEAUIOBuffer@@_K@Z 0000000180072804 f   PostScript_Support.obj
 0001:00071a30       ?IsValidPSFile@PostScript_Support@@YA_NPEAVXMP_IO@@AEAK@Z 0000000180072a30 f   PostScript_Support.obj
 0001:000720fc       ?IsSFDFilterUsed@PostScript_Support@@YA_NAEAPEAVXMP_IO@@_J@Z 00000001800730fc f   PostScript_Support.obj
 0001:000732ec       ?ConvertToDate@PostScript_Support@@YA?AV?$basic_string@DU?$char_traits@D@std@@V?$allocator@D@2@@std@@PEBD@Z 00000001800742ec f   PostScript_Support.obj
 0001:000743b0       ??$_Emplace_reallocate@AEBUDateTimeTokens@PostScript_Support@@@?$vector@UDateTimeTokens@PostScript_Support@@V?$allocator@UDateTimeTokens@PostScript_Support@@@std@@@std@@AEAAPEAUDateTimeTokens@PostScript_Support@@QEAU23@AEBU23@@Z 00000001800753b0 f i PostScript_Support.obj
 0001:000745d4       ??$_Uninitialized_move@PEAUDateTimeTokens@PostScript_Support@@V?$allocator@UDateTimeTokens@PostScript_Support@@@std@@@std@@YAPEAUDateTimeTokens@PostScript_Support@@QEAU12@0PEAU12@AEAV?$allocator@UDateTimeTokens@PostScript_Support@@@0@@Z 00000001800755d4 f i PostScript_Support.obj
 0001:00074680       ??1_Reallocation_guard@?$vector@UDateTimeTokens@PostScript_Support@@V?$allocator@UDateTimeTokens@PostScript_Support@@@std@@@std@@QEAA@XZ 0000000180075680 f i PostScript_Support.obj
 0001:000747f0       ?ConvertToMacLang@@YA_NAEBV?$basic_string@DU?$char_traits@D@std@@V?$allocator@D@2@@std@@GPEAV12@@Z 00000001800757f0 f   QuickTime_Support.obj
 0001:00074868       ?ConvertFromMacLang@@YA_NAEBV?$basic_string@DU?$char_traits@D@std@@V?$allocator@D@2@@std@@GPEAV12@@Z 0000000180075868 f   QuickTime_Support.obj
 0001:000748d8       ?ParseCachedBoxes@TradQT_Manager@@QEAA_NAEBVMOOV_Manager@@@Z 00000001800758d8 f   QuickTime_Support.obj
 0001:00074bdc       ?ImportSimpleXMP@TradQT_Manager@@QEBA_NKPEAV?$TXMPMeta@V?$basic_string@DU?$char_traits@D@std@@V?$allocator@D@2@@std@@@@PEBD1@Z 0000000180075bdc f   QuickTime_Support.obj
 0001:0007504c       ?ExportSimpleXMP@TradQT_Manager@@QEAAXKAEBV?$TXMPMeta@V?$basic_string@DU?$char_traits@D@std@@V?$allocator@D@2@@std@@@@PEBD1_N@Z 000000018007604c f   QuickTime_Support.obj
 0001:000754e8       ?UpdateChangedBoxes@TradQT_Manager@@QEAAXPEAVMOOV_Manager@@@Z 00000001800764e8 f   QuickTime_Support.obj
 0001:000758a4       ?push_back@?$vector@UValueInfo@TradQT_Manager@@V?$allocator@UValueInfo@TradQT_Manager@@@std@@@std@@QEAAX$$QEAUValueInfo@TradQT_Manager@@@Z 00000001800768a4 f i QuickTime_Support.obj
 0001:0007592c       ??$_Emplace_hint@U?$pair@$$CBKUParsedBoxInfo@TradQT_Manager@@@std@@@?$_Tree@V?$_Tmap_traits@KUParsedBoxInfo@TradQT_Manager@@U?$less@K@std@@V?$allocator@U?$pair@$$CBKUParsedBoxInfo@TradQT_Manager@@@std@@@4@$0A@@std@@@std@@IEAAPEAU?$_Tree_node@U?$pair@$$CBKUParsedBoxInfo@TradQT_Manager@@@std@@PEAX@1@QEAU21@$$QEAU?$pair@$$CBKUParsedBoxInfo@TradQT_Manager@@@1@@Z 000000018007692c f i QuickTime_Support.obj
 0001:00075bb4       ??$_Emplace_reallocate@UValueInfo@TradQT_Manager@@@?$vector@UValueInfo@TradQT_Manager@@V?$allocator@UValueInfo@TradQT_Manager@@@std@@@std@@AEAAPEAUValueInfo@TradQT_Manager@@QEAU23@$$QEAU23@@Z 0000000180076bb4 f i QuickTime_Support.obj
 0001:00075e10       ??$_Uninitialized_move@PEAUValueInfo@TradQT_Manager@@V?$allocator@UValueInfo@TradQT_Manager@@@std@@@std@@YAPEAUValueInfo@TradQT_Manager@@QEAU12@0PEAU12@AEAV?$allocator@UValueInfo@TradQT_Manager@@@0@@Z 0000000180076e10 f i QuickTime_Support.obj
 0001:00075ec8       ??1?$_Alloc_construct_ptr@V?$allocator@U?$_Tree_node@U?$pair@$$CBGVInternalTagInfo@TIFF_FileWriter@@@std@@PEAX@std@@@std@@@std@@QEAA@XZ 0000000180076ec8 f i TIFF_FileWriter.obj
 0001:00075ec8       ??1?$_Alloc_construct_ptr@V?$allocator@U?$_Tree_node@U?$pair@$$CBKUParsedBoxInfo@TradQT_Manager@@@std@@PEAX@std@@@std@@@std@@QEAA@XZ 0000000180076ec8 f i QuickTime_Support.obj
 0001:00075ee4       ??1_Reallocation_guard@?$vector@UCheckFormat@XMP_PLUGIN@@V?$allocator@UCheckFormat@XMP_PLUGIN@@@std@@@std@@QEAA@XZ 0000000180076ee4 f i XMPAtoms.obj
 0001:00075ee4       ??1_Reallocation_guard@?$vector@UValueInfo@TradQT_Manager@@V?$allocator@UValueInfo@TradQT_Manager@@@std@@@std@@QEAA@XZ 0000000180076ee4 f i QuickTime_Support.obj
 0001:00075f7c       ?getChunk@RIFF@@YAPEAVChunk@1@PEAVContainerChunk@1@PEAVRIFF_MetaHandler@@@Z 0000000180076f7c f   RIFF.obj
 0001:000763fc       ??0Chunk@RIFF@@QEAA@PEAVContainerChunk@1@W4ChunkType@1@K@Z 00000001800773fc f   RIFF.obj
 0001:00076490       ??_EChunk@RIFF@@UEAAPEAXI@Z 0000000180077490 f i * CIL library *:* CIL module *
 0001:00076490       ??_EJunkChunk@RIFF@@UEAAPEAXI@Z 0000000180077490 f i * CIL library *:* CIL module *
 0001:00076490       ??_EXMPChunk@RIFF@@UEAAPEAXI@Z 0000000180077490 f i * CIL library *:* CIL module *
 0001:00076490       ??_GChunk@RIFF@@UEAAPEAXI@Z 0000000180077490 f i RIFF.obj
 0001:00076490       ??_GJunkChunk@RIFF@@UEAAPEAXI@Z 0000000180077490 f i RIFF.obj
 0001:00076490       ??_GXMPChunk@RIFF@@UEAAPEAXI@Z 0000000180077490 f i RIFF.obj
 0001:000764bc       ??0Chunk@RIFF@@QEAA@PEAVContainerChunk@1@PEAVRIFF_MetaHandler@@_NW4ChunkType@1@@Z 00000001800774bc f   RIFF.obj
 0001:00076694       ?changesAndSize@Chunk@RIFF@@UEAAXPEAVRIFF_MetaHandler@@@Z 0000000180077694 f   RIFF.obj
 0001:000766a4       ?toString@Chunk@RIFF@@UEAA?AV?$basic_string@DU?$char_traits@D@std@@V?$allocator@D@2@@std@@E@Z 00000001800776a4 f   RIFF.obj
 0001:00076750       ?write@Chunk@RIFF@@UEAAXPEAVRIFF_MetaHandler@@PEAVXMP_IO@@_N@Z 0000000180077750 f   RIFF.obj
 0001:00076790       ??1Chunk@RIFF@@UEAA@XZ     0000000180077790 f   RIFF.obj
 0001:0007679c       ??0ContainerChunk@RIFF@@QEAA@PEAV01@KK@Z 000000018007779c f   RIFF.obj
 0001:000768c0       ??_EContainerChunk@RIFF@@UEAAPEAXI@Z 00000001800778c0 f i * CIL library *:* CIL module *
 0001:000768c0       ??_GContainerChunk@RIFF@@UEAAPEAXI@Z 00000001800778c0 f i RIFF.obj
 0001:000768f4       ??0ContainerChunk@RIFF@@QEAA@PEAV01@PEAVRIFF_MetaHandler@@@Z 00000001800778f4 f   RIFF.obj
 0001:00076cc8       ?changesAndSize@ContainerChunk@RIFF@@UEAAXPEAVRIFF_MetaHandler@@@Z 0000000180077cc8 f   RIFF.obj
 0001:000774d8       ?toString@ContainerChunk@RIFF@@UEAA?AV?$basic_string@DU?$char_traits@D@std@@V?$allocator@D@2@@std@@E@Z 00000001800784d8 f   RIFF.obj
 0001:0007778c       ?write@ContainerChunk@RIFF@@UEAAXPEAVRIFF_MetaHandler@@PEAVXMP_IO@@_N@Z 000000018007878c f   RIFF.obj
 0001:00077990       ?release@ContainerChunk@RIFF@@QEAAXXZ 0000000180078990 f   RIFF.obj
 0001:000779d0       ??1ContainerChunk@RIFF@@UEAA@XZ 00000001800789d0 f   RIFF.obj
 0001:00077a8c       ??0XMPChunk@RIFF@@QEAA@PEAVContainerChunk@1@PEAVRIFF_MetaHandler@@@Z 0000000180078a8c f   RIFF.obj
 0001:00077b80       ?changesAndSize@XMPChunk@RIFF@@UEAAXPEAVRIFF_MetaHandler@@@Z 0000000180078b80 f   RIFF.obj
 0001:00077bf8       ?write@XMPChunk@RIFF@@UEAAXPEAVRIFF_MetaHandler@@PEAVXMP_IO@@_N@Z 0000000180078bf8 f   RIFF.obj
 0001:00077c78       ??0ValueChunk@RIFF@@QEAA@PEAVContainerChunk@1@V?$basic_string@DU?$char_traits@D@std@@V?$allocator@D@2@@std@@K@Z 0000000180078c78 f   RIFF.obj
 0001:00077dd4       ??_EValueChunk@RIFF@@UEAAPEAXI@Z 0000000180078dd4 f i * CIL library *:* CIL module *
 0001:00077dd4       ??_GValueChunk@RIFF@@UEAAPEAXI@Z 0000000180078dd4 f i RIFF.obj
 0001:00077e20       ??0ValueChunk@RIFF@@QEAA@PEAVContainerChunk@1@PEAVRIFF_MetaHandler@@@Z 0000000180078e20 f   RIFF.obj
 0001:00078050       ?SetValue@ValueChunk@RIFF@@QEAAXV?$basic_string@DU?$char_traits@D@std@@V?$allocator@D@2@@std@@_N@Z 0000000180079050 f   RIFF.obj
 0001:000780cc       ?changesAndSize@ValueChunk@RIFF@@UEAAXPEAVRIFF_MetaHandler@@@Z 00000001800790cc f   RIFF.obj
 0001:00078110       ?write@ValueChunk@RIFF@@UEAAXPEAVRIFF_MetaHandler@@PEAVXMP_IO@@_N@Z 0000000180079110 f   RIFF.obj
 0001:00078184       ?removeValue@ContainerChunk@RIFF@@QEAA_NK@Z 0000000180079184 f   RIFF.obj
 0001:000782cc       ?replaceChildWithJunk@ContainerChunk@RIFF@@QEAAXPEAVChunk@2@_N@Z 00000001800792cc f   RIFF.obj
 0001:000783a4       ?changesAndSize@JunkChunk@RIFF@@UEAAXPEAVRIFF_MetaHandler@@@Z 00000001800793a4 f   RIFF.obj
 0001:000783f4       ?write@JunkChunk@RIFF@@UEAAXPEAVRIFF_MetaHandler@@PEAVXMP_IO@@_N@Z 00000001800793f4 f   RIFF.obj
 0001:00078500       ??$insert@U?$pair@KPEAVValueChunk@RIFF@@@std@@$0A@@?$map@KPEAVValueChunk@RIFF@@U?$less@K@std@@V?$allocator@U?$pair@$$CBKPEAVValueChunk@RIFF@@@std@@@4@@std@@QEAA?AU?$pair@V?$_Tree_iterator@V?$_Tree_val@U?$_Tree_simple_types@U?$pair@$$CBKPEAVValueChunk@RIFF@@@std@@@std@@@std@@@std@@_N@1@$$QEAU?$pair@KPEAVValueChunk@RIFF@@@1@@Z 0000000180079500 f i RIFF.obj
 0001:0007860c       ??$?HDU?$char_traits@D@std@@V?$allocator@D@1@@std@@YA?AV?$basic_string@DU?$char_traits@D@std@@V?$allocator@D@2@@0@$$QEAV10@0@Z 000000018007960c f i RIFF.obj
 0001:000787b4       ?pop_back@?$vector@PEAVChunk@RIFF@@V?$allocator@PEAVChunk@RIFF@@@std@@@std@@QEAAXXZ 00000001800797b4 f i RIFF.obj
 0001:00079eb8       ?importProperties@RIFF@@YAXPEAVRIFF_MetaHandler@@@Z 000000018007aeb8 f   RIFF_Support.obj
 0001:0007a258       ?relocateWronglyPlacedXMPChunk@RIFF@@YAXPEAVRIFF_MetaHandler@@@Z 000000018007b258 f   RIFF_Support.obj
 0001:0007bda0       ?exportAndRemoveProperties@RIFF@@YAXPEAVRIFF_MetaHandler@@@Z 000000018007cda0 f   RIFF_Support.obj
 0001:0007c160       ??$?6U?$char_traits@D@std@@@std@@YAAEAV?$basic_ostream@DU?$char_traits@D@std@@@0@AEAV10@PEBD@Z 000000018007d160 f i RIFF_Support.obj
 0001:0007c2d0       ??0?$basic_stringstream@DU?$char_traits@D@std@@V?$allocator@D@2@@std@@QEAA@XZ 000000018007d2d0 f i RIFF_Support.obj
 0001:0007c380       ?CheckIPTCDigest@PhotoDataUtils@@YAHPEBXK0@Z 000000018007d380 f   ReconcileIPTC.obj
 0001:0007c428       ?ImportIPTC_Simple@PhotoDataUtils@@YAXAEBVIPTC_Manager@@PEAV?$TXMPMeta@V?$basic_string@DU?$char_traits@D@std@@V?$allocator@D@2@@std@@@@EPEBD2@Z 000000018007d428 f   ReconcileIPTC.obj
 0001:0007c53c       ?ImportIPTC_LangAlt@PhotoDataUtils@@YAXAEBVIPTC_Manager@@PEAV?$TXMPMeta@V?$basic_string@DU?$char_traits@D@std@@V?$allocator@D@2@@std@@@@EPEBD2@Z 000000018007d53c f   ReconcileIPTC.obj
 0001:0007c668       ?ImportIPTC_Array@PhotoDataUtils@@YAXAEBVIPTC_Manager@@PEAV?$TXMPMeta@V?$basic_string@DU?$char_traits@D@std@@V?$allocator@D@2@@std@@@@EPEBD2@Z 000000018007d668 f   ReconcileIPTC.obj
 0001:0007c808       ?ImportIPTC_Date@PhotoDataUtils@@YAXEAEBVIPTC_Manager@@PEAV?$TXMPMeta@V?$basic_string@DU?$char_traits@D@std@@V?$allocator@D@2@@std@@@@@Z 000000018007d808 f   ReconcileIPTC.obj
 0001:0007cf24       ?Import2WayIPTC@PhotoDataUtils@@YAXAEBVIPTC_Manager@@PEAV?$TXMPMeta@V?$basic_string@DU?$char_traits@D@std@@V?$allocator@D@2@@std@@@@H@Z 000000018007df24 f   ReconcileIPTC.obj
 0001:0007d18c       ?ImportPSIR@PhotoDataUtils@@YAXAEBVPSIR_Manager@@PEAV?$TXMPMeta@V?$basic_string@DU?$char_traits@D@std@@V?$allocator@D@2@@std@@@@H@Z 000000018007e18c f   ReconcileIPTC.obj
 0001:0007df78       ?ExportIPTC@PhotoDataUtils@@YAXAEBV?$TXMPMeta@V?$basic_string@DU?$char_traits@D@std@@V?$allocator@D@2@@std@@@@PEAVIPTC_Manager@@@Z 000000018007ef78 f   ReconcileIPTC.obj
 0001:0007e108       ?ExportPSIR@PhotoDataUtils@@YAXAEBV?$TXMPMeta@V?$basic_string@DU?$char_traits@D@std@@V?$allocator@D@2@@std@@@@PEAVPSIR_Manager@@@Z 000000018007f108 f   ReconcileIPTC.obj
 0001:0007e3a4       ?ImportPhotoData@@YAXAEBVTIFF_Manager@@AEBVIPTC_Manager@@AEBVPSIR_Manager@@HPEAV?$TXMPMeta@V?$basic_string@DU?$char_traits@D@std@@V?$allocator@D@2@@std@@@@K@Z 000000018007f3a4 f   ReconcileLegacy.obj
 0001:0007e7fc       ?ExportPhotoData@@YAXKPEAV?$TXMPMeta@V?$basic_string@DU?$char_traits@D@std@@V?$allocator@D@2@@std@@@@PEAVTIFF_Manager@@PEAVIPTC_Manager@@PEAVPSIR_Manager@@K@Z 000000018007f7fc f   ReconcileLegacy.obj
 0001:0007ec18       ?GetNativeInfo@PhotoDataUtils@@YA_NAEBVTIFF_Manager@@EGPEAUTagInfo@2@@Z 000000018007fc18 f   ReconcileTIFF.obj
 0001:0007ec7c       ?GetNativeInfo@PhotoDataUtils@@YA_KAEBVIPTC_Manager@@EH_NPEAUDataSetInfo@2@@Z 000000018007fc7c f   ReconcileTIFF.obj
 0001:0007ed34       ?IsValueDifferent@PhotoDataUtils@@YA_NAEBVIPTC_Manager@@0E@Z 000000018007fd34 f   ReconcileTIFF.obj
 0001:00081ef0       ?Import2WayExif@PhotoDataUtils@@YAXAEBVTIFF_Manager@@PEAV?$TXMPMeta@V?$basic_string@DU?$char_traits@D@std@@V?$allocator@D@2@@std@@@@H@Z 0000000180082ef0 f   ReconcileTIFF.obj
 0001:00082b2c       ?Import3WayItems@PhotoDataUtils@@YAXAEBVTIFF_Manager@@AEBVIPTC_Manager@@PEAV?$TXMPMeta@V?$basic_string@DU?$char_traits@D@std@@V?$allocator@D@2@@std@@@@H@Z 0000000180083b2c f   ReconcileTIFF.obj
 0001:000855b0       ?ExportExif@PhotoDataUtils@@YAXPEAV?$TXMPMeta@V?$basic_string@DU?$char_traits@D@std@@V?$allocator@D@2@@std@@@@PEAVTIFF_Manager@@@Z 00000001800865b0 f   ReconcileTIFF.obj
 0001:00086098       ?assign@?$vector@KV?$allocator@K@std@@@std@@QEAAX_KAEBK@Z 0000000180087098 f i ReconcileTIFF.obj
 0001:0008619c       ?assign@?$vector@GV?$allocator@G@std@@@std@@QEAAX_KAEBG@Z 000000018008719c f i ReconcileTIFF.obj
 0001:00086298       ??1?$vector@GV?$allocator@G@std@@@std@@QEAA@XZ 0000000180087298 f i ReconcileTIFF.obj
 0001:00086314       ??$fill@PEAKK@std@@YAXQEAK0AEBK@Z 0000000180087314 f i ReconcileTIFF.obj
 0001:000863d0       ??$fill@PEAGG@std@@YAXQEAG0AEBG@Z 00000001800873d0 f i ReconcileTIFF.obj
 0001:00086490       ?_Clear_and_reserve_geometric@?$vector@KV?$allocator@K@std@@@std@@AEAAX_K@Z 0000000180087490 f i ReconcileTIFF.obj
 0001:00086584       ?_Clear_and_reserve_geometric@?$vector@GV?$allocator@G@std@@@std@@AEAAX_K@Z 0000000180087584 f i ReconcileTIFF.obj
 0001:00086674       ?IsUTF8@ReconcileUtils@@YA_NPEBX_K@Z 0000000180087674 f   Reconcile_Impl.obj
 0001:000866cc       ?UTF8ToWinEncoding@ReconcileUtils@@YAXIPEBE_KPEAV?$basic_string@DU?$char_traits@D@std@@V?$allocator@D@2@@std@@@Z 00000001800876cc f   Reconcile_Impl.obj
 0001:00086858       ?UTF8ToLocal@ReconcileUtils@@YAXPEBX_KPEAV?$basic_string@DU?$char_traits@D@std@@V?$allocator@D@2@@std@@@Z 0000000180087858 f   Reconcile_Impl.obj
 0001:000868f0       ?UTF8ToLatin1@ReconcileUtils@@YAXPEBX_KPEAV?$basic_string@DU?$char_traits@D@std@@V?$allocator@D@2@@std@@@Z 00000001800878f0 f   Reconcile_Impl.obj
 0001:00086a44       ?WinEncodingToUTF8@ReconcileUtils@@YAXIPEBE_KPEAV?$basic_string@DU?$char_traits@D@std@@V?$allocator@D@2@@std@@@Z 0000000180087a44 f   Reconcile_Impl.obj
 0001:00086bd4       ?LocalToUTF8@ReconcileUtils@@YAXPEBX_KPEAV?$basic_string@DU?$char_traits@D@std@@V?$allocator@D@2@@std@@@Z 0000000180087bd4 f   Reconcile_Impl.obj
 0001:00086c6c       ?Latin1ToUTF8@ReconcileUtils@@YAXPEBX_KPEAV?$basic_string@DU?$char_traits@D@std@@V?$allocator@D@2@@std@@@Z 0000000180087c6c f   Reconcile_Impl.obj
 0001:00086d8c       ?NativeToUTF8@ReconcileUtils@@YAXAEBV?$basic_string@DU?$char_traits@D@std@@V?$allocator@D@2@@std@@AEAV23@@Z 0000000180087d8c f   Reconcile_Impl.obj
 0001:00086e00       ??1?$_Tidy_guard@V?$vector@GV?$allocator@G@std@@@std@@@std@@QEAA@XZ 0000000180087e00 f i Reconcile_Impl.obj
 0001:00086e80       ??1XMLParserAdapter@@UEAA@XZ 0000000180087e80 f i SVG_Adapter.obj
 0001:00086ef4       ?SetErrorCallback@XMLParserAdapter@@UEAAXPEAVGenericErrorCallback@@@Z 0000000180087ef4 f i SVG_Adapter.obj
 0001:00086efc       ?NotifyClient@XMLParserAdapter@@UEAAXEAEAVXMP_Error@@@Z 0000000180087efc f i SVG_Adapter.obj
 0001:00086f1c       ??_EXMLParserAdapter@@UEAAPEAXI@Z 0000000180087f1c f i * CIL library *:* CIL module *
 0001:00086f1c       ??_GXMLParserAdapter@@UEAAPEAXI@Z 0000000180087f1c f i SVG_Adapter.obj
 0001:00086f50       ??0SVG_Adapter@@QEAA@XZ    0000000180087f50 f   SVG_Adapter.obj
 0001:00087244       ??_ESVG_Adapter@@UEAAPEAXI@Z 0000000180088244 f i * CIL library *:* CIL module *
 0001:00087244       ??_GSVG_Adapter@@UEAAPEAXI@Z 0000000180088244 f i SVG_Adapter.obj
 0001:00087278       ??1?$multimap@V?$basic_string@DU?$char_traits@D@std@@V?$allocator@D@2@@std@@_JU?$less@V?$basic_string@DU?$char_traits@D@std@@V?$allocator@D@2@@std@@@2@V?$allocator@U?$pair@$$CBV?$basic_string@DU?$char_traits@D@std@@V?$allocator@D@2@@std@@_J@std@@@2@@std@@QEAA@XZ 0000000180088278 f i SVG_Adapter.obj
 0001:00087280       ??1?$map@V?$basic_string@DU?$char_traits@D@std@@V?$allocator@D@2@@std@@UOffsetStruct@@U?$less@V?$basic_string@DU?$char_traits@D@std@@V?$allocator@D@2@@std@@@2@V?$allocator@U?$pair@$$CBV?$basic_string@DU?$char_traits@D@std@@V?$allocator@D@2@@std@@UOffsetStruct@@@std@@@2@@std@@QEAA@XZ 0000000180088280 f i SVG_Adapter.obj
 0001:00087288       ??1SVG_Adapter@@UEAA@XZ    0000000180088288 f   SVG_Adapter.obj
 0001:0008730c       ?GetElementOffsets@SVG_Adapter@@UEAA?AUOffsetStruct@@V?$basic_string@DU?$char_traits@D@std@@V?$allocator@D@2@@std@@@Z 000000018008830c f   SVG_Adapter.obj
 0001:000873c4       ?RegisterElement@SVG_Adapter@@UEAAXV?$basic_string@DU?$char_traits@D@std@@V?$allocator@D@2@@std@@0@Z 00000001800883c4 f   SVG_Adapter.obj
 0001:00087620       ??1?$pair@V?$basic_string@DU?$char_traits@D@std@@V?$allocator@D@2@@std@@UOffsetStruct@@@std@@QEAA@XZ 0000000180088620 f i SVG_Adapter.obj
 0001:00087640       ?GetPIOffset@SVG_Adapter@@UEAA_JV?$basic_string@DU?$char_traits@D@std@@V?$allocator@D@2@@std@@K@Z 0000000180088640 f   SVG_Adapter.obj
 0001:00087798       ?RegisterPI@SVG_Adapter@@UEAAXV?$basic_string@DU?$char_traits@D@std@@V?$allocator@D@2@@std@@@Z 0000000180088798 f   SVG_Adapter.obj
 0001:00087888       ?IsParsingRequire@SVG_Adapter@@UEAAEXZ 0000000180088888 f   SVG_Adapter.obj
 0001:00087900       ?ParseBuffer@SVG_Adapter@@UEAAXPEBX_K_N@Z 0000000180088900 f   SVG_Adapter.obj
 0001:00087964       ?ParseBufferNoThrow@SVG_Adapter@@UEAAEPEBX_K_N@Z 0000000180088964 f   SVG_Adapter.obj
 0001:00088c28       ??1?$_Tree@V?$_Tmap_traits@V?$basic_string@DU?$char_traits@D@std@@V?$allocator@D@2@@std@@KU?$less@V?$basic_string@DU?$char_traits@D@std@@V?$allocator@D@2@@std@@@2@V?$allocator@U?$pair@$$CBV?$basic_string@DU?$char_traits@D@std@@V?$allocator@D@2@@std@@K@std@@@2@$0A@@std@@@std@@QEAA@XZ 0000000180089c28 f i XMPAtoms.obj
 0001:00088c28       ??1?$_Tree@V?$_Tmap_traits@V?$basic_string@DU?$char_traits@D@std@@V?$allocator@D@2@@std@@_JU?$less@V?$basic_string@DU?$char_traits@D@std@@V?$allocator@D@2@@std@@@2@V?$allocator@U?$pair@$$CBV?$basic_string@DU?$char_traits@D@std@@V?$allocator@D@2@@std@@_J@std@@@2@$00@std@@@std@@QEAA@XZ 0000000180089c28 f i SVG_Adapter.obj
 0001:00088c90       ??1?$_Tree@V?$_Tmap_traits@V?$basic_string@DU?$char_traits@D@std@@V?$allocator@D@2@@std@@UOffsetStruct@@U?$less@V?$basic_string@DU?$char_traits@D@std@@V?$allocator@D@2@@std@@@2@V?$allocator@U?$pair@$$CBV?$basic_string@DU?$char_traits@D@std@@V?$allocator@D@2@@std@@UOffsetStruct@@@std@@@2@$0A@@std@@@std@@QEAA@XZ 0000000180089c90 f i SVG_Adapter.obj
 0001:00088d10       ??$_Erase_tree@V?$allocator@U?$_Tree_node@U?$pair@$$CBV?$basic_string@DU?$char_traits@D@std@@V?$allocator@D@2@@std@@K@std@@PEAX@std@@@std@@@?$_Tree_val@U?$_Tree_simple_types@U?$pair@$$CBV?$basic_string@DU?$char_traits@D@std@@V?$allocator@D@2@@std@@K@std@@@std@@@std@@QEAAXAEAV?$allocator@U?$_Tree_node@U?$pair@$$CBV?$basic_string@DU?$char_traits@D@std@@V?$allocator@D@2@@std@@K@std@@PEAX@std@@@1@PEAU?$_Tree_node@U?$pair@$$CBV?$basic_string@DU?$char_traits@D@std@@V?$allocator@D@2@@std@@K@std@@PEAX@1@@Z 0000000180089d10 f i XMPAtoms.obj
 0001:00088d10       ??$_Erase_tree@V?$allocator@U?$_Tree_node@U?$pair@$$CBV?$basic_string@DU?$char_traits@D@std@@V?$allocator@D@2@@std@@_J@std@@PEAX@std@@@std@@@?$_Tree_val@U?$_Tree_simple_types@U?$pair@$$CBV?$basic_string@DU?$char_traits@D@std@@V?$allocator@D@2@@std@@_J@std@@@std@@@std@@QEAAXAEAV?$allocator@U?$_Tree_node@U?$pair@$$CBV?$basic_string@DU?$char_traits@D@std@@V?$allocator@D@2@@std@@_J@std@@PEAX@std@@@1@PEAU?$_Tree_node@U?$pair@$$CBV?$basic_string@DU?$char_traits@D@std@@V?$allocator@D@2@@std@@_J@std@@PEAX@1@@Z 0000000180089d10 f i SVG_Adapter.obj
 0001:00088d7c       ??$_Erase_tree@V?$allocator@U?$_Tree_node@U?$pair@$$CBV?$basic_string@DU?$char_traits@D@std@@V?$allocator@D@2@@std@@UOffsetStruct@@@std@@PEAX@std@@@std@@@?$_Tree_val@U?$_Tree_simple_types@U?$pair@$$CBV?$basic_string@DU?$char_traits@D@std@@V?$allocator@D@2@@std@@UOffsetStruct@@@std@@@std@@@std@@QEAAXAEAV?$allocator@U?$_Tree_node@U?$pair@$$CBV?$basic_string@DU?$char_traits@D@std@@V?$allocator@D@2@@std@@UOffsetStruct@@@std@@PEAX@std@@@1@PEAU?$_Tree_node@U?$pair@$$CBV?$basic_string@DU?$char_traits@D@std@@V?$allocator@D@2@@std@@UOffsetStruct@@@std@@PEAX@1@@Z 0000000180089d7c f i SVG_Adapter.obj
 0001:00088dfc       ??$?0U?$pair@V?$basic_string@DU?$char_traits@D@std@@V?$allocator@D@2@@std@@UOffsetStruct@@@std@@@?$_Tree_temp_node@V?$allocator@U?$_Tree_node@U?$pair@$$CBV?$basic_string@DU?$char_traits@D@std@@V?$allocator@D@2@@std@@UOffsetStruct@@@std@@PEAX@std@@@std@@@std@@QEAA@AEAV?$allocator@U?$_Tree_node@U?$pair@$$CBV?$basic_string@DU?$char_traits@D@std@@V?$allocator@D@2@@std@@UOffsetStruct@@@std@@PEAX@std@@@1@PEAU?$_Tree_node@U?$pair@$$CBV?$basic_string@DU?$char_traits@D@std@@V?$allocator@D@2@@std@@UOffsetStruct@@@std@@PEAX@1@$$QEAU?$pair@V?$basic_string@DU?$char_traits@D@std@@V?$allocator@D@2@@std@@UOffsetStruct@@@1@@Z 0000000180089dfc f i SVG_Adapter.obj
 0001:00088f10       ??$?0U?$pair@V?$basic_string@DU?$char_traits@D@std@@V?$allocator@D@2@@std@@_J@std@@@?$_Tree_temp_node@V?$allocator@U?$_Tree_node@U?$pair@$$CBV?$basic_string@DU?$char_traits@D@std@@V?$allocator@D@2@@std@@_J@std@@PEAX@std@@@std@@@std@@QEAA@AEAV?$allocator@U?$_Tree_node@U?$pair@$$CBV?$basic_string@DU?$char_traits@D@std@@V?$allocator@D@2@@std@@_J@std@@PEAX@std@@@1@PEAU?$_Tree_node@U?$pair@$$CBV?$basic_string@DU?$char_traits@D@std@@V?$allocator@D@2@@std@@_J@std@@PEAX@1@$$QEAU?$pair@V?$basic_string@DU?$char_traits@D@std@@V?$allocator@D@2@@std@@_J@1@@Z 0000000180089f10 f i SVG_Adapter.obj
 0001:00088fd8       ??$_Find_hint@V?$basic_string@DU?$char_traits@D@std@@V?$allocator@D@2@@std@@@?$_Tree@V?$_Tmap_traits@V?$basic_string@DU?$char_traits@D@std@@V?$allocator@D@2@@std@@_JU?$less@V?$basic_string@DU?$char_traits@D@std@@V?$allocator@D@2@@std@@@2@V?$allocator@U?$pair@$$CBV?$basic_string@DU?$char_traits@D@std@@V?$allocator@D@2@@std@@_J@std@@@2@$00@std@@@std@@IEBA?AU?$_Tree_find_hint_result@PEAU?$_Tree_node@U?$pair@$$CBV?$basic_string@DU?$char_traits@D@std@@V?$allocator@D@2@@std@@_J@std@@PEAX@std@@@1@QEAU?$_Tree_node@U?$pair@$$CBV?$basic_string@DU?$char_traits@D@std@@V?$allocator@D@2@@std@@_J@std@@PEAX@1@AEBV?$basic_string@DU?$char_traits@D@std@@V?$allocator@D@2@@1@@Z 0000000180089fd8 f i SVG_Adapter.obj
 0001:0008920c       ??1?$_Tree_temp_node@V?$allocator@U?$_Tree_node@U?$pair@$$CBV?$basic_string@DU?$char_traits@D@std@@V?$allocator@D@2@@std@@_J@std@@PEAX@std@@@std@@@std@@QEAA@XZ 000000018008a20c f i SVG_Adapter.obj
 0001:00089240       ??1?$_Alloc_construct_ptr@V?$allocator@U?$_Tree_node@U?$pair@$$CBV?$basic_string@DU?$char_traits@D@std@@V?$allocator@D@2@@std@@UOffsetStruct@@@std@@PEAX@std@@@std@@@std@@QEAA@XZ 000000018008a240 f i SVG_Adapter.obj
 0001:0008925c       ?GetTagInfo@SWF_IO@@YA_NAEBV?$vector@EV?$allocator@E@std@@@std@@KPEAVTagInfo@1@@Z 000000018008a25c f   SWF_Support.obj
 0001:000892d0       ?DecompressFileToMemory@SWF_IO@@YA_JPEAVXMP_IO@@PEAV?$vector@EV?$allocator@E@std@@@std@@@Z 000000018008a2d0 f   SWF_Support.obj
 0001:000896cc       ?CompressMemoryToFile@SWF_IO@@YA_JAEBV?$vector@EV?$allocator@E@std@@@std@@PEAVXMP_IO@@@Z 000000018008a6cc f   SWF_Support.obj
 0001:000898fc       ?HasExifIFD@TIFF_FileWriter@@UEBA_NXZ 000000018008a8fc f i TIFF_FileWriter.obj
 0001:00089908       ?HasGPSInfoIFD@TIFF_FileWriter@@UEBA_NXZ 000000018008a908 f i TIFF_FileWriter.obj
 0001:00089914       ?IsChanged@TIFF_FileWriter@@UEAA_NXZ 000000018008a914 f i TIFF_FileWriter.obj
 0001:00089918       ??0InternalIFDInfo@TIFF_FileWriter@@QEAA@XZ 000000018008a918 f i TIFF_FileWriter.obj
 0001:00089964       ??0TIFF_FileWriter@@QEAA@XZ 000000018008a964 f   TIFF_FileWriter.obj
 0001:00089a00       ??_ETIFF_FileWriter@@UEAAPEAXI@Z 000000018008aa00 f i * CIL library *:* CIL module *
 0001:00089a00       ??_GTIFF_FileWriter@@UEAAPEAXI@Z 000000018008aa00 f i TIFF_FileWriter.obj
 0001:00089a34       ??1InternalIFDInfo@TIFF_FileWriter@@QEAA@XZ 000000018008aa34 f i TIFF_FileWriter.obj
 0001:00089a64       ??1TIFF_FileWriter@@UEAA@XZ 000000018008aa64 f   TIFF_FileWriter.obj
 0001:00089ab0       ?DeleteExistingInfo@TIFF_FileWriter@@AEAAXXZ 000000018008aab0 f   TIFF_FileWriter.obj
 0001:00089b4c       ?PickIFD@TIFF_FileWriter@@CAEEG@Z 000000018008ab4c f   TIFF_FileWriter.obj
 0001:00089bb0       ?FindTagInIFD@TIFF_FileWriter@@AEBAPEBVInternalTagInfo@1@EG@Z 000000018008abb0 f   TIFF_FileWriter.obj
 0001:00089c24       ?GetIFD@TIFF_FileWriter@@UEBA_NEPEAV?$map@GUTagInfo@TIFF_Manager@@U?$less@G@std@@V?$allocator@U?$pair@$$CBGUTagInfo@TIFF_Manager@@@std@@@4@@std@@@Z 000000018008ac24 f   TIFF_FileWriter.obj
 0001:00089e3c       ?GetValueOffset@TIFF_FileWriter@@UEBAKEG@Z 000000018008ae3c f   TIFF_FileWriter.obj
 0001:00089e5c       ?GetTag@TIFF_FileWriter@@UEBA_NEGPEAUTagInfo@TIFF_Manager@@@Z 000000018008ae5c f   TIFF_FileWriter.obj
 0001:00089eb8       ?SetTag@TIFF_FileWriter@@UEAAXEGGKPEBX@Z 000000018008aeb8 f   TIFF_FileWriter.obj
 0001:0008a0d4       ??1?$pair@$$CBGVInternalTagInfo@TIFF_FileWriter@@@std@@QEAA@XZ 000000018008b0d4 f i TIFF_FileWriter.obj
 0001:0008a10c       ?DeleteTag@TIFF_FileWriter@@UEAAXEG@Z 000000018008b10c f   TIFF_FileWriter.obj
 0001:0008a248       ?GetTag_Integer@TIFF_FileWriter@@UEBA_NEGPEAK@Z 000000018008b248 f   TIFF_FileWriter.obj
 0001:0008a2e0       ?GetTag_Byte@TIFF_FileWriter@@UEBA_NEGPEAE@Z 000000018008b2e0 f   TIFF_FileWriter.obj
 0001:0008a320       ?GetTag_SByte@TIFF_FileWriter@@UEBA_NEGPEAC@Z 000000018008b320 f   TIFF_FileWriter.obj
 0001:0008a35c       ?GetTag_Short@TIFF_FileWriter@@UEBA_NEGPEAG@Z 000000018008b35c f   TIFF_FileWriter.obj
 0001:0008a3a8       ?GetTag_SShort@TIFF_FileWriter@@UEBA_NEGPEAF@Z 000000018008b3a8 f   TIFF_FileWriter.obj
 0001:0008a3f4       ?GetTag_Long@TIFF_FileWriter@@UEBA_NEGPEAK@Z 000000018008b3f4 f   TIFF_FileWriter.obj
 0001:0008a444       ?GetTag_SLong@TIFF_FileWriter@@UEBA_NEGPEAJ@Z 000000018008b444 f   TIFF_FileWriter.obj
 0001:0008a490       ?GetTag_Rational@TIFF_FileWriter@@UEBA_NEGPEAURational@TIFF_Manager@@@Z 000000018008b490 f   TIFF_FileWriter.obj
 0001:0008a4f8       ?GetTag_SRational@TIFF_FileWriter@@UEBA_NEGPEAUSRational@TIFF_Manager@@@Z 000000018008b4f8 f   TIFF_FileWriter.obj
 0001:0008a560       ?GetTag_Float@TIFF_FileWriter@@UEBA_NEGPEAM@Z 000000018008b560 f   TIFF_FileWriter.obj
 0001:0008a5ac       ?GetTag_Double@TIFF_FileWriter@@UEBA_NEGPEAN@Z 000000018008b5ac f   TIFF_FileWriter.obj
 0001:0008a5fc       ?GetTag_ASCII@TIFF_FileWriter@@UEBA_NEGPEAPEBDPEAK@Z 000000018008b5fc f   TIFF_FileWriter.obj
 0001:0008a650       ?GetTag_EncodedString@TIFF_FileWriter@@UEBA_NEGPEAV?$basic_string@DU?$char_traits@D@std@@V?$allocator@D@2@@std@@@Z 000000018008b650 f   TIFF_FileWriter.obj
 0001:0008a69c       ?SetTag_EncodedString@TIFF_FileWriter@@UEAAXEGAEBV?$basic_string@DU?$char_traits@D@std@@V?$allocator@D@2@@std@@E@Z 000000018008b69c f   TIFF_FileWriter.obj
 0001:0008a794       ?IsLegacyChanged@TIFF_FileWriter@@UEAA_NXZ 000000018008b794 f   TIFF_FileWriter.obj
 0001:0008a830       ?ParseMemoryStream@TIFF_FileWriter@@UEAAXPEBXK_N1@Z 000000018008b830 f   TIFF_FileWriter.obj
 0001:0008aaac       ?ProcessMemoryIFD@TIFF_FileWriter@@AEAAKKE@Z 000000018008baac f   TIFF_FileWriter.obj
 0001:0008ad5c       ?ParseFileStream@TIFF_FileWriter@@UEAAXPEAVXMP_IO@@@Z 000000018008bd5c f   TIFF_FileWriter.obj
 0001:0008afd0       ?ProcessFileIFD@TIFF_FileWriter@@AEAAKEKPEAVXMP_IO@@@Z 000000018008bfd0 f   TIFF_FileWriter.obj
 0001:0008b4f4       ?IntegrateFromPShop6@TIFF_FileWriter@@UEAAXPEBX_K@Z 000000018008c4f4 f   TIFF_FileWriter.obj
 0001:0008b5d4       ?CopyTagToMainIFD@TIFF_FileWriter@@AEAAPEAXAEBUTagInfo@TIFF_Manager@@PEAUInternalIFDInfo@1@@Z 000000018008c5d4 f   TIFF_FileWriter.obj
 0001:0008b7c0       ?ProcessPShop6IFD@TIFF_FileWriter@@AEAAXAEBVTIFF_MemoryReader@@E@Z 000000018008c7c0 f   TIFF_FileWriter.obj
 0001:0008bb7c       ?PreflightIFDLinkage@TIFF_FileWriter@@AEAAXXZ 000000018008cb7c f   TIFF_FileWriter.obj
 0001:0008bc68       ?DetermineAppendInfo@TIFF_FileWriter@@AEAAKKQEA_NQEAK_N@Z 000000018008cc68 f   TIFF_FileWriter.obj
 0001:0008bed4       ?UpdateMemByAppend@TIFF_FileWriter@@AEAAXPEAPEAEPEAK_NK@Z 000000018008ced4 f   TIFF_FileWriter.obj
 0001:0008c1cc       ?UpdateMemByRewrite@TIFF_FileWriter@@AEAAXPEAPEAEPEAK@Z 000000018008d1cc f   TIFF_FileWriter.obj
 0001:0008c4a4       ?UpdateMemoryStream@TIFF_FileWriter@@UEAAKPEAPEAX_N@Z 000000018008d4a4 f   TIFF_FileWriter.obj
 0001:0008c5c8       ?UpdateFileStream@TIFF_FileWriter@@UEAAXPEAVXMP_IO@@PEAVXMP_ProgressTracker@@@Z 000000018008d5c8 f   TIFF_FileWriter.obj
 0001:0008cab4       ?WriteFileIFD@TIFF_FileWriter@@AEAAXPEAVXMP_IO@@AEAUInternalIFDInfo@1@@Z 000000018008dab4 f   TIFF_FileWriter.obj
 0001:0008cbe4       ??$_Erase_tree@V?$allocator@U?$_Tree_node@U?$pair@$$CBGVInternalTagInfo@TIFF_FileWriter@@@std@@PEAX@std@@@std@@@?$_Tree_val@U?$_Tree_simple_types@U?$pair@$$CBGVInternalTagInfo@TIFF_FileWriter@@@std@@@std@@@std@@QEAAXAEAV?$allocator@U?$_Tree_node@U?$pair@$$CBGVInternalTagInfo@TIFF_FileWriter@@@std@@PEAX@std@@@1@PEAU?$_Tree_node@U?$pair@$$CBGVInternalTagInfo@TIFF_FileWriter@@@std@@PEAX@1@@Z 000000018008dbe4 f i TIFF_FileWriter.obj
 0001:0008cc7c       ??$_Emplace_hint@AEAU?$pair@$$CBGVInternalTagInfo@TIFF_FileWriter@@@std@@@?$_Tree@V?$_Tmap_traits@GVInternalTagInfo@TIFF_FileWriter@@U?$less@G@std@@V?$allocator@U?$pair@$$CBGVInternalTagInfo@TIFF_FileWriter@@@std@@@4@$0A@@std@@@std@@IEAAPEAU?$_Tree_node@U?$pair@$$CBGVInternalTagInfo@TIFF_FileWriter@@@std@@PEAX@1@QEAU21@AEAU?$pair@$$CBGVInternalTagInfo@TIFF_FileWriter@@@1@@Z 000000018008dc7c f i TIFF_FileWriter.obj
 0001:0008cef0       ??1?$_Tidy_guard@V?$vector@EV?$allocator@E@std@@@std@@@std@@QEAA@XZ 000000018008def0 f i TIFF_FileWriter.obj
 0001:0008cf38       ?SortIFD@TIFF_MemoryReader@@CAXPEAUTweakedIFDInfo@1@@Z 000000018008df38 f   TIFF_MemoryReader.obj
 0001:0008d108       ?GetIFD@TIFF_MemoryReader@@UEBA_NEPEAV?$map@GUTagInfo@TIFF_Manager@@U?$less@G@std@@V?$allocator@U?$pair@$$CBGUTagInfo@TIFF_Manager@@@std@@@4@@std@@@Z 000000018008e108 f   TIFF_MemoryReader.obj
 0001:0008d340       ?FindTagInIFD@TIFF_MemoryReader@@AEBAPEBUTweakedIFDEntry@1@EG@Z 000000018008e340 f   TIFF_MemoryReader.obj
 0001:0008d3e0       ?GetValueOffset@TIFF_MemoryReader@@UEBAKEG@Z 000000018008e3e0 f   TIFF_MemoryReader.obj
 0001:0008d410       ?GetTag@TIFF_MemoryReader@@UEBA_NEGPEAUTagInfo@TIFF_Manager@@@Z 000000018008e410 f   TIFF_MemoryReader.obj
 0001:0008d490       ?GetTag_Integer@TIFF_MemoryReader@@UEBA_NEGPEAK@Z 000000018008e490 f   TIFF_MemoryReader.obj
 0001:0008d584       ?GetTag_Byte@TIFF_MemoryReader@@UEBA_NEGPEAE@Z 000000018008e584 f   TIFF_MemoryReader.obj
 0001:0008d5c0       ?GetTag_SByte@TIFF_MemoryReader@@UEBA_NEGPEAC@Z 000000018008e5c0 f   TIFF_MemoryReader.obj
 0001:0008d5f8       ?GetTag_Short@TIFF_MemoryReader@@UEBA_NEGPEAG@Z 000000018008e5f8 f   TIFF_MemoryReader.obj
 0001:0008d644       ?GetTag_SShort@TIFF_MemoryReader@@UEBA_NEGPEAF@Z 000000018008e644 f   TIFF_MemoryReader.obj
 0001:0008d690       ?GetTag_Long@TIFF_MemoryReader@@UEBA_NEGPEAK@Z 000000018008e690 f   TIFF_MemoryReader.obj
 0001:0008d6dc       ?GetTag_SLong@TIFF_MemoryReader@@UEBA_NEGPEAJ@Z 000000018008e6dc f   TIFF_MemoryReader.obj
 0001:0008d728       ?GetTag_Rational@TIFF_MemoryReader@@UEBA_NEGPEAURational@TIFF_Manager@@@Z 000000018008e728 f   TIFF_MemoryReader.obj
 0001:0008d790       ?GetTag_SRational@TIFF_MemoryReader@@UEBA_NEGPEAUSRational@TIFF_Manager@@@Z 000000018008e790 f   TIFF_MemoryReader.obj
 0001:0008d7f8       ?GetTag_Float@TIFF_MemoryReader@@UEBA_NEGPEAM@Z 000000018008e7f8 f   TIFF_MemoryReader.obj
 0001:0008d844       ?GetTag_Double@TIFF_MemoryReader@@UEBA_NEGPEAN@Z 000000018008e844 f   TIFF_MemoryReader.obj
 0001:0008d894       ?GetTag_ASCII@TIFF_MemoryReader@@UEBA_NEGPEAPEBDPEAK@Z 000000018008e894 f   TIFF_MemoryReader.obj
 0001:0008d8f0       ?GetTag_EncodedString@TIFF_MemoryReader@@UEBA_NEGPEAV?$basic_string@DU?$char_traits@D@std@@V?$allocator@D@2@@std@@@Z 000000018008e8f0 f   TIFF_MemoryReader.obj
 0001:0008d948       ?ParseMemoryStream@TIFF_MemoryReader@@UEAAXPEBXK_N1@Z 000000018008e948 f   TIFF_MemoryReader.obj
 0001:0008dc5c       ?ProcessOneIFD@TIFF_MemoryReader@@AEAAKKE_N@Z 000000018008ec5c f   TIFF_MemoryReader.obj
 0001:0008dfac       ??0TIFF_Manager@@IEAA@XZ   000000018008efac f   TIFF_Support.obj
 0001:0008dff8       ?CheckTIFFHeader@TIFF_Manager@@IEAAKPEBEK@Z 000000018008eff8 f   TIFF_Support.obj
 0001:0008e1ac       ?SetTag_Short@TIFF_Manager@@QEAAXEGG@Z 000000018008f1ac f   TIFF_Support.obj
 0001:0008e20c       ?SetTag_Long@TIFF_Manager@@QEAAXEGK@Z 000000018008f20c f   TIFF_Support.obj
 0001:0008e26c       ?SetTag_Rational@TIFF_Manager@@QEAAXEGKK@Z 000000018008f26c f   TIFF_Support.obj
 0001:0008e2dc       ?SetTag_ASCII@TIFF_Manager@@QEAAXEGPEBD@Z 000000018008f2dc f   TIFF_Support.obj
 0001:0008e41c       ?DecodeString@TIFF_Manager@@QEBA_NPEBX_KPEAV?$basic_string@DU?$char_traits@D@std@@V?$allocator@D@2@@std@@@Z 000000018008f41c f   TIFF_Support.obj
 0001:0008e5c4       ?EncodeString@TIFF_Manager@@QEAA_NAEBV?$basic_string@DU?$char_traits@D@std@@V?$allocator@D@2@@std@@EPEAV23@@Z 000000018008f5c4 f   TIFF_Support.obj
 0001:0008e880       ?NotifyClient@TIFF_Manager@@UEAAXEAEAVXMP_Error@@@Z 000000018008f880 f   TIFF_Support.obj
 0001:0008f0b4       ?ConvertSamplesToSMPTETimecode@TimeConversionUtils@@YA_NAEAV?$basic_string@DU?$char_traits@D@std@@V?$allocator@D@2@@std@@_J_KAEBV23@@Z 00000001800900b4 f   TimeConversionUtils.obj
 0001:0008fa5c       ?GetMediaProLegacyMetadata@XDCAM_Support@@YA_NPEAV?$TXMPMeta@V?$basic_string@DU?$char_traits@D@std@@V?$allocator@D@2@@std@@@@AEBV?$basic_string@DU?$char_traits@D@std@@V?$allocator@D@2@@std@@1_N@Z 0000000180090a5c f   XDCAM_Support.obj
 0001:0008fd38       ?GetLegacyMetadata@XDCAM_Support@@YA_NPEAV?$TXMPMeta@V?$basic_string@DU?$char_traits@D@std@@V?$allocator@D@2@@std@@@@PEAVXML_Node@@PEBD_NAEAV?$basic_string@DU?$char_traits@D@std@@V?$allocator@D@2@@std@@@Z 0000000180090d38 f   XDCAM_Support.obj
 0001:0009090c       ?SetLegacyMetadata@XDCAM_Support@@YA_NPEAVXML_Node@@PEAV?$TXMPMeta@V?$basic_string@DU?$char_traits@D@std@@V?$allocator@D@2@@std@@@@PEBD@Z 000000018009190c f   XDCAM_Support.obj
 0001:00090ba8       ??0runtime_error@std@@QEAA@PEBD@Z 0000000180091ba8 f i XMPScanner.obj
 0001:00090bf4       ??0runtime_error@std@@QEAA@AEBV01@@Z 0000000180091bf4 f i XMPScanner.obj
 0001:00090c34       ??0ScanError@XMPScanner@@QEAA@PEBD@Z 0000000180091c34 f i XMPScanner.obj
 0001:00090c7c       ??1PacketMachine@XMPScanner@@QEAA@XZ 0000000180091c7c f   XMPScanner.obj
 0001:00090ca8       ?ResetMachine@PacketMachine@XMPScanner@@QEAAXXZ 0000000180091ca8 f   XMPScanner.obj
 0001:00090d68       ?FindLessThan@PacketMachine@XMPScanner@@CA?AW4TriState@12@PEAV12@PEBD@Z 0000000180091d68 f   XMPScanner.obj
 0001:00090dec       ?MatchString@PacketMachine@XMPScanner@@CA?AW4TriState@12@PEAV12@PEBD@Z 0000000180091dec f   XMPScanner.obj
 0001:00090e74       ?MatchChar@PacketMachine@XMPScanner@@CA?AW4TriState@12@PEAV12@PEBD@Z 0000000180091e74 f   XMPScanner.obj
 0001:00090ea0       ?MatchOpenQuote@PacketMachine@XMPScanner@@CA?AW4TriState@12@PEAV12@PEBD@Z 0000000180091ea0 f   XMPScanner.obj
 0001:00090ed4       ?MatchCloseQuote@PacketMachine@XMPScanner@@CA?AW4TriState@12@PEAV12@PEBD@Z 0000000180091ed4 f   XMPScanner.obj
 0001:00090ee0       ?CaptureAttrName@PacketMachine@XMPScanner@@CA?AW4TriState@12@PEAV12@PEBD@Z 0000000180091ee0 f   XMPScanner.obj
 0001:00091068       ?CaptureAttrValue@PacketMachine@XMPScanner@@CA?AW4TriState@12@PEAV12@PEBD@Z 0000000180092068 f   XMPScanner.obj
 0001:00091144       ?RecordStart@PacketMachine@XMPScanner@@CA?AW4TriState@12@PEAV12@PEBD@Z 0000000180092144 f   XMPScanner.obj
 0001:0009120c       ?RecognizeBOM@PacketMachine@XMPScanner@@CA?AW4TriState@12@PEAV12@PEBD@Z 000000018009220c f   XMPScanner.obj
 0001:00091488       ?RecordHeadAttr@PacketMachine@XMPScanner@@CA?AW4TriState@12@PEAV12@PEBD@Z 0000000180092488 f   XMPScanner.obj
 0001:000915dc       ?CaptureAccess@PacketMachine@XMPScanner@@CA?AW4TriState@12@PEAV12@PEBD@Z 00000001800925dc f   XMPScanner.obj
 0001:00091658       ?RecordTailAttr@PacketMachine@XMPScanner@@CA?AW4TriState@12@PEAV12@PEBD@Z 0000000180092658 f   XMPScanner.obj
 0001:000916d0       ?CheckPacketEnd@PacketMachine@XMPScanner@@CA?AW4TriState@12@PEAV12@PEBD@Z 00000001800926d0 f   XMPScanner.obj
 0001:000917d4       ?CheckFinalNulls@PacketMachine@XMPScanner@@CA?AW4TriState@12@PEAV12@PEBD@Z 00000001800927d4 f   XMPScanner.obj
 0001:000917f4       ??1InternalSnip@XMPScanner@@QEAA@XZ 00000001800927f4 f   XMPScanner.obj
 0001:00091820       ??0XMPScanner@@QEAA@_J@Z   0000000180092820 f   XMPScanner.obj
 0001:0009192c       ??1XMPScanner@@QEAA@XZ     000000018009292c f   XMPScanner.obj
 0001:00091938       ?SplitInternalSnip@XMPScanner@@AEAAXV?$_List_iterator@V?$_List_val@U?$_List_simple_types@VInternalSnip@XMPScanner@@@std@@@std@@@std@@_J1@Z 0000000180092938 f   XMPScanner.obj
 0001:00091ac4       ?MergeInternalSnips@XMPScanner@@AEAA?AV?$_List_iterator@V?$_List_val@U?$_List_simple_types@VInternalSnip@XMPScanner@@@std@@@std@@@std@@V23@0@Z 0000000180092ac4 f   XMPScanner.obj
 0001:00091b2c       ?Scan@XMPScanner@@QEAAXPEBX_J1@Z 0000000180092b2c f   XMPScanner.obj
 0001:00091fd0       ??0ScanError@XMPScanner@@QEAA@AEBV01@@Z 0000000180092fd0 f i XMPScanner.obj
 0001:00092010       ??0logic_error@std@@QEAA@AEBV01@@Z 0000000180093010 f i XMPScanner.obj
 0001:00092050       ?Report@XMPScanner@@QEAAXAEAV?$vector@USnipInfo@XMPScanner@@V?$allocator@USnipInfo@XMPScanner@@@std@@@std@@@Z 0000000180093050 f   XMPScanner.obj
 0001:000921fc       ??1?$list@VInternalSnip@XMPScanner@@V?$allocator@VInternalSnip@XMPScanner@@@std@@@std@@QEAA@XZ 00000001800931fc f i XMPScanner.obj
 0001:00092264       ??$_Emplace@AEBVInternalSnip@XMPScanner@@@?$list@VInternalSnip@XMPScanner@@V?$allocator@VInternalSnip@XMPScanner@@@std@@@std@@QEAAPEAU?$_List_node@VInternalSnip@XMPScanner@@PEAX@1@QEAU21@AEBVInternalSnip@XMPScanner@@@Z 0000000180093264 f i XMPScanner.obj
 0001:000922fc       ??$_Emplace_reallocate@USnipInfo@XMPScanner@@@?$vector@USnipInfo@XMPScanner@@V?$allocator@USnipInfo@XMPScanner@@@std@@@std@@AEAAPEAUSnipInfo@XMPScanner@@QEAU23@$$QEAU23@@Z 00000001800932fc f i XMPScanner.obj
 0001:00092484       ?_Change_array@?$vector@USnipInfo@XMPScanner@@V?$allocator@USnipInfo@XMPScanner@@@std@@@std@@AEAAXQEAUSnipInfo@XMPScanner@@_K1@Z 0000000180093484 f i XMPScanner.obj
 0001:00092540       ??0FileHandlerInstance@XMP_PLUGIN@@QEAA@PEAXV?$shared_ptr@VFileHandler@XMP_PLUGIN@@@std@@PEAVXMPFiles@@@Z 0000000180093540 f   FileHandlerInstance.obj
 0001:00092744       ??_EFileHandlerInstance@XMP_PLUGIN@@UEAAPEAXI@Z 0000000180093744 f i * CIL library *:* CIL module *
 0001:00092744       ??_GFileHandlerInstance@XMP_PLUGIN@@UEAAPEAXI@Z 0000000180093744 f i FileHandlerInstance.obj
 0001:00092778       ??1FileHandlerInstance@XMP_PLUGIN@@UEAA@XZ 0000000180093778 f   FileHandlerInstance.obj
 0001:0009297c       ?GetFileModDate@FileHandlerInstance@XMP_PLUGIN@@UEAA_NPEAUXMP_DateTime@@@Z 000000018009397c f   FileHandlerInstance.obj
 0001:00092a88       ?CacheFileData@FileHandlerInstance@XMP_PLUGIN@@UEAAXXZ 0000000180093a88 f   FileHandlerInstance.obj
 0001:00092bc4       ?ProcessXMP@FileHandlerInstance@XMP_PLUGIN@@UEAAXXZ 0000000180093bc4 f   FileHandlerInstance.obj
 0001:00093174       ?UpdateFile@FileHandlerInstance@XMP_PLUGIN@@UEAAX_N@Z 0000000180094174 f   FileHandlerInstance.obj
 0001:000935c0       ?WriteTempFile@FileHandlerInstance@XMP_PLUGIN@@UEAAXPEAVXMP_IO@@@Z 00000001800945c0 f   FileHandlerInstance.obj
 0001:00093968       ?FillMetadataFiles@FileHandlerInstance@XMP_PLUGIN@@UEAAXPEAV?$vector@V?$basic_string@DU?$char_traits@D@std@@V?$allocator@D@2@@std@@V?$allocator@V?$basic_string@DU?$char_traits@D@std@@V?$allocator@D@2@@std@@@2@@std@@@Z 0000000180094968 f   FileHandlerInstance.obj
 0001:00093aa8       ?FillAssociatedResources@FileHandlerInstance@XMP_PLUGIN@@UEAAXPEAV?$vector@V?$basic_string@DU?$char_traits@D@std@@V?$allocator@D@2@@std@@V?$allocator@V?$basic_string@DU?$char_traits@D@std@@V?$allocator@D@2@@std@@@2@@std@@@Z 0000000180094aa8 f   FileHandlerInstance.obj
 0001:00093bec       ?IsMetadataWritable@FileHandlerInstance@XMP_PLUGIN@@UEAA_NXZ 0000000180094bec f   FileHandlerInstance.obj
 0001:00093d2c       ?SetErrorCallback@FileHandlerInstance@XMP_PLUGIN@@UEAAXUErrorCallbackBox@@@Z 0000000180094d2c f   FileHandlerInstance.obj
 0001:00093e78       ?SetProgressCallback@FileHandlerInstance@XMP_PLUGIN@@UEAAXPEAUCallbackInfo@XMP_ProgressTracker@@@Z 0000000180094e78 f   FileHandlerInstance.obj
 0001:00093fb4       ??1?$shared_ptr@VFileHandler@XMP_PLUGIN@@@std@@QEAA@XZ 0000000180094fb4 f i FileHandlerInstance.obj
 0001:00093fb4       ??1?$shared_ptr@VModule@XMP_PLUGIN@@@std@@QEAA@XZ 0000000180094fb4 f i FileHandlerInstance.obj
 0001:00095810       ?SetupHostAPI_V1@PluginManager@XMP_PLUGIN@@CAXPEAUHostAPI@2@@Z 0000000180096810 f   HostAPIImpl.obj
 0001:000959a8       ?getPluginAPIs@Module@XMP_PLUGIN@@QEAAPEAUPluginAPI@2@XZ 00000001800969a8 f   Module.obj
 0001:000959fc       ?load@Module@XMP_PLUGIN@@QEAA_NXZ 00000001800969fc f   Module.obj
 0001:00095a9c       ?unloadInternal@Module@XMP_PLUGIN@@AEAAXXZ 0000000180096a9c f   Module.obj
 0001:00095b78       ?loadInternal@Module@XMP_PLUGIN@@AEAA_NXZ 0000000180096b78 f   Module.obj
 0001:00095f08       ?_Get_deleter@_Ref_count_base@std@@UEBAPEAXAEBVtype_info@@@Z 0000000180096f08 f i PluginManager.obj
 0001:00095f08       __scrt_stub_for_is_c_termination_complete 0000000180096f08 f i MSVCRT:ucrt_stubs.obj
 0001:00095f08       _is_c_termination_complete 0000000180096f08 f i MSVCRT:ucrt_stubs.obj
 0001:00095f0c       ??1Module@XMP_PLUGIN@@QEAA@XZ 0000000180096f0c f i PluginManager.obj
 0001:00095fac       ?getCheckFormat@FileHandler@XMP_PLUGIN@@QEBA?AUCheckFormat@2@K@Z 0000000180096fac f i PluginManager.obj
 0001:0009603c       ??0ResourceParser@XMP_PLUGIN@@QEAA@V?$shared_ptr@VModule@XMP_PLUGIN@@@std@@@Z 000000018009703c f i PluginManager.obj
 0001:00096ee0       ??0PluginManager@XMP_PLUGIN@@AEAA@AEBV?$basic_string@DU?$char_traits@D@std@@V?$allocator@D@2@@std@@0@Z 0000000180097ee0 f   PluginManager.obj
 0001:00097384       ??1?$map@KUFileHandlerPair@XMP_PLUGIN@@U?$less@K@std@@V?$allocator@U?$pair@$$CBKUFileHandlerPair@XMP_PLUGIN@@@std@@@4@@std@@QEAA@XZ 0000000180098384 f i PluginManager.obj
 0001:0009738c       ??1PluginManager@XMP_PLUGIN@@AEAA@XZ 000000018009838c f   PluginManager.obj
 0001:00097794       ?initialize@PluginManager@XMP_PLUGIN@@SAXAEBV?$basic_string@DU?$char_traits@D@std@@V?$allocator@D@2@@std@@0@Z 0000000180098794 f   PluginManager.obj
 0001:00097a9c       ??1FileHandlerPair@XMP_PLUGIN@@QEAA@XZ 0000000180098a9c f i PluginManager.obj
 0001:00097b24       ?addFileHandler@PluginManager@XMP_PLUGIN@@SAXKV?$shared_ptr@VFileHandler@XMP_PLUGIN@@@std@@@Z 0000000180098b24 f   PluginManager.obj
 0001:00097d38       ??1?$pair@KUFileHandlerPair@XMP_PLUGIN@@@std@@QEAA@XZ 0000000180098d38 f i PluginManager.obj
 0001:00097d44       ?getFileHandler@PluginManager@XMP_PLUGIN@@SA?AV?$shared_ptr@VFileHandler@XMP_PLUGIN@@@std@@KW4HandlerPriority@12@@Z 0000000180098d44 f   PluginManager.obj
 0001:00097de8       ?getHandlerInstance@PluginManager@XMP_PLUGIN@@SAPEAVFileHandlerInstance@2@PEAX@Z 0000000180098de8 f   PluginManager.obj
 0001:00097ec0       ?getHandlerPriority@PluginManager@XMP_PLUGIN@@SA?AW4HandlerPriority@12@PEAVFileHandlerInstance@2@@Z 0000000180098ec0 f   PluginManager.obj
 0001:00098120       ?loadResourceFile@PluginManager@XMP_PLUGIN@@AEAAXV?$shared_ptr@VModule@XMP_PLUGIN@@@std@@@Z 0000000180099120 f   PluginManager.obj
 0001:00098480       ??1ResourceParser@XMP_PLUGIN@@QEAA@XZ 0000000180099480 f i PluginManager.obj
 0001:000985b4       ?scanRecursive@PluginManager@XMP_PLUGIN@@AEAAXAEBV?$basic_string@DU?$char_traits@D@std@@V?$allocator@D@2@@std@@AEAV?$vector@V?$basic_string@DU?$char_traits@D@std@@V?$allocator@D@2@@std@@V?$allocator@V?$basic_string@DU?$char_traits@D@std@@V?$allocator@D@2@@std@@@2@@4@JJ@Z 00000001800995b4 f   PluginManager.obj
 0001:00098a58       ?doScan@PluginManager@XMP_PLUGIN@@AEAAXJ@Z 0000000180099a58 f   PluginManager.obj
 0001:00098c44       ?getHostAPI@PluginManager@XMP_PLUGIN@@SAPEAUHostAPI@2@K@Z 0000000180099c44 f   PluginManager.obj
 0001:00098c90       ?erase@?$_Tree@V?$_Tmap_traits@PEAXPEAVFileHandlerInstance@XMP_PLUGIN@@U?$less@PEAX@std@@V?$allocator@U?$pair@QEAXPEAVFileHandlerInstance@XMP_PLUGIN@@@std@@@4@$0A@@std@@@std@@QEAA_KAEBQEAX@Z 0000000180099c90 f i PluginManager.obj
 0001:00098e84       ??1?$_Tree@V?$_Tmap_traits@KUFileHandlerPair@XMP_PLUGIN@@U?$less@K@std@@V?$allocator@U?$pair@$$CBKUFileHandlerPair@XMP_PLUGIN@@@std@@@4@$0A@@std@@@std@@QEAA@XZ 0000000180099e84 f i PluginManager.obj
 0001:00098ef0       ??A?$map@PEAXPEAVFileHandlerInstance@XMP_PLUGIN@@U?$less@PEAX@std@@V?$allocator@U?$pair@QEAXPEAVFileHandlerInstance@XMP_PLUGIN@@@std@@@4@@std@@QEAAAEAPEAVFileHandlerInstance@XMP_PLUGIN@@AEBQEAX@Z 0000000180099ef0 f i PluginManager.obj
 0001:00098fe4       ??A?$map@KUFileHandlerPair@XMP_PLUGIN@@U?$less@K@std@@V?$allocator@U?$pair@$$CBKUFileHandlerPair@XMP_PLUGIN@@@std@@@4@@std@@QEAAAEAUFileHandlerPair@XMP_PLUGIN@@AEBK@Z 0000000180099fe4 f i PluginManager.obj
 0001:000990d8       ??$_Erase_tree@V?$allocator@U?$_Tree_node@U?$pair@$$CBKUFileHandlerPair@XMP_PLUGIN@@@std@@PEAX@std@@@std@@@?$_Tree_val@U?$_Tree_simple_types@U?$pair@$$CBKUFileHandlerPair@XMP_PLUGIN@@@std@@@std@@@std@@QEAAXAEAV?$allocator@U?$_Tree_node@U?$pair@$$CBKUFileHandlerPair@XMP_PLUGIN@@@std@@PEAX@std@@@1@PEAU?$_Tree_node@U?$pair@$$CBKUFileHandlerPair@XMP_PLUGIN@@@std@@PEAX@1@@Z 000000018009a0d8 f i PluginManager.obj
 0001:00099148       ?_Delete_this@?$_Ref_count@VFileHandler@XMP_PLUGIN@@@std@@EEAAXXZ 000000018009a148 f i XMPAtoms.obj
 0001:00099148       ?_Delete_this@?$_Ref_count@VModule@XMP_PLUGIN@@@std@@EEAAXXZ 000000018009a148 f i PluginManager.obj
 0001:00099164       ?_Destroy@?$_Ref_count@VModule@XMP_PLUGIN@@@std@@EEAAXXZ 000000018009a164 f i PluginManager.obj
 0001:00099190       ??1?$_Temporary_owner@VModule@XMP_PLUGIN@@@std@@QEAA@XZ 000000018009a190 f i PluginManager.obj
 0001:000991bc       ??_E?$_Ref_count@VFileHandler@XMP_PLUGIN@@@std@@UEAAPEAXI@Z 000000018009a1bc f i * CIL library *:* CIL module *
 0001:000991bc       ??_E?$_Ref_count@VModule@XMP_PLUGIN@@@std@@UEAAPEAXI@Z 000000018009a1bc f i * CIL library *:* CIL module *
 0001:000991bc       ??_G?$_Ref_count@VFileHandler@XMP_PLUGIN@@@std@@UEAAPEAXI@Z 000000018009a1bc f i XMPAtoms.obj
 0001:000991bc       ??_G?$_Ref_count@VModule@XMP_PLUGIN@@@std@@UEAAPEAXI@Z 000000018009a1bc f i PluginManager.obj
 0001:000991e0       ??$_Emplace_hint@U?$pair@KUFileHandlerPair@XMP_PLUGIN@@@std@@@?$_Tree@V?$_Tmap_traits@KUFileHandlerPair@XMP_PLUGIN@@U?$less@K@std@@V?$allocator@U?$pair@$$CBKUFileHandlerPair@XMP_PLUGIN@@@std@@@4@$0A@@std@@@std@@IEAAPEAU?$_Tree_node@U?$pair@$$CBKUFileHandlerPair@XMP_PLUGIN@@@std@@PEAX@1@QEAU21@$$QEAU?$pair@KUFileHandlerPair@XMP_PLUGIN@@@1@@Z 000000018009a1e0 f i PluginManager.obj
 0001:00099478       ??1FileHandler@XMP_PLUGIN@@UEAA@XZ 000000018009a478 f i XMPAtoms.obj
 0001:000994e0       ??_EFileHandler@XMP_PLUGIN@@UEAAPEAXI@Z 000000018009a4e0 f i * CIL library *:* CIL module *
 0001:000994e0       ??_GFileHandler@XMP_PLUGIN@@UEAAPEAXI@Z 000000018009a4e0 f i XMPAtoms.obj
 0001:00099514       ?clear@ResourceParser@XMP_PLUGIN@@AEAAXXZ 000000018009a514 f   XMPAtoms.obj
 0001:00099658       ?addHandler@ResourceParser@XMP_PLUGIN@@AEAAXXZ 000000018009a658 f   XMPAtoms.obj
 0001:000998e0       ?parseElementAttrs@ResourceParser@XMP_PLUGIN@@AEAA_NPEBVXML_Node@@_N@Z 000000018009a8e0 f   XMPAtoms.obj
 0001:00099e44       ?parseElementList@ResourceParser@XMP_PLUGIN@@QEAAXPEBVXML_Node@@_N@Z 000000018009ae44 f   XMPAtoms.obj
 0001:00099ed4       ?initialize@ResourceParser@XMP_PLUGIN@@SA_NXZ 000000018009aed4 f   XMPAtoms.obj
 0001:0009a118       ?getXMPAtomFromString@ResourceParser@XMP_PLUGIN@@CAKAEBV?$basic_string@DU?$char_traits@D@std@@V?$allocator@D@2@@std@@@Z 000000018009b118 f   XMPAtoms.obj
 0001:0009a144       ?getHandlerFlag@ResourceParser@XMP_PLUGIN@@CAKAEBV?$basic_string@DU?$char_traits@D@std@@V?$allocator@D@2@@std@@@Z 000000018009b144 f   XMPAtoms.obj
 0001:0009a200       ?getSerializeOption@ResourceParser@XMP_PLUGIN@@CAKAEBV?$basic_string@DU?$char_traits@D@std@@V?$allocator@D@2@@std@@@Z 000000018009b200 f   XMPAtoms.obj
 0001:0009a2c0       ?find@?$_Tree@V?$_Tmap_traits@V?$basic_string@DU?$char_traits@D@std@@V?$allocator@D@2@@std@@KU?$less@V?$basic_string@DU?$char_traits@D@std@@V?$allocator@D@2@@std@@@2@V?$allocator@U?$pair@$$CBV?$basic_string@DU?$char_traits@D@std@@V?$allocator@D@2@@std@@K@std@@@2@$0A@@std@@@std@@QEAA?AV?$_Tree_iterator@V?$_Tree_val@U?$_Tree_simple_types@U?$pair@$$CBV?$basic_string@DU?$char_traits@D@std@@V?$allocator@D@2@@std@@K@std@@@std@@@std@@@2@AEBV?$basic_string@DU?$char_traits@D@std@@V?$allocator@D@2@@2@@Z 000000018009b2c0 f i XMPAtoms.obj
 0001:0009a358       ??A?$map@V?$basic_string@DU?$char_traits@D@std@@V?$allocator@D@2@@std@@KU?$less@V?$basic_string@DU?$char_traits@D@std@@V?$allocator@D@2@@std@@@2@V?$allocator@U?$pair@$$CBV?$basic_string@DU?$char_traits@D@std@@V?$allocator@D@2@@std@@K@std@@@2@@std@@QEAAAEAKAEBV?$basic_string@DU?$char_traits@D@std@@V?$allocator@D@2@@1@@Z 000000018009b358 f i XMPAtoms.obj
 0001:0009a484       ?_Destroy@?$_Ref_count@VFileHandler@XMP_PLUGIN@@@std@@EEAAXXZ 000000018009b484 f i XMPAtoms.obj
 0001:0009a4a0       ??1?$_Temporary_owner@VFileHandler@XMP_PLUGIN@@@std@@QEAA@XZ 000000018009b4a0 f i XMPAtoms.obj
 0001:0009a4bc       ??$_Emplace_reallocate@AEBUCheckFormat@XMP_PLUGIN@@@?$vector@UCheckFormat@XMP_PLUGIN@@V?$allocator@UCheckFormat@XMP_PLUGIN@@@std@@@std@@AEAAPEAUCheckFormat@XMP_PLUGIN@@QEAU23@AEBU23@@Z 000000018009b4bc f i XMPAtoms.obj
 0001:0009a6e4       ??1?$_Tree_head_scoped_ptr@V?$allocator@U?$_Tree_node@KPEAX@std@@@std@@V?$_Tree_val@U?$_Tree_simple_types@K@std@@@2@@std@@QEAA@XZ 000000018009b6e4 f i XMPAtoms.obj
 0001:0009a74c       ??$_Copy_nodes@$0A@@?$_Tree@V?$_Tset_traits@KU?$less@K@std@@V?$allocator@K@2@$0A@@std@@@std@@IEAAPEAU?$_Tree_node@KPEAX@1@PEAU21@0@Z 000000018009b74c f i XMPAtoms.obj
 0001:0009a804       ??$_Uninitialized_move@PEAUCheckFormat@XMP_PLUGIN@@V?$allocator@UCheckFormat@XMP_PLUGIN@@@std@@@std@@YAPEAUCheckFormat@XMP_PLUGIN@@QEAU12@0PEAU12@AEAV?$allocator@UCheckFormat@XMP_PLUGIN@@@0@@Z 000000018009b804 f i XMPAtoms.obj
 0001:0009a8b4       ??1?$_Erase_tree_and_orphan_guard@V?$allocator@U?$_Tree_node@KPEAX@std@@@std@@@?$_Tree_val@U?$_Tree_simple_types@K@std@@@std@@QEAA@XZ 000000018009b8b4 f i XMPAtoms.obj
 0001:0009a90c       ?LoadModule@XMP_PLUGIN@@YAPEAUHINSTANCE__@@AEBV?$basic_string@DU?$char_traits@D@std@@V?$allocator@D@2@@std@@_N@Z 000000018009b90c f   OS_Utils_WIN.obj
 0001:0009a9fc       ?GetResourceDataFromModule@XMP_PLUGIN@@YA_NPEAUHINSTANCE__@@AEBV?$basic_string@DU?$char_traits@D@std@@V?$allocator@D@2@@std@@1AEAV34@@Z 000000018009b9fc f   OS_Utils_WIN.obj
 0001:0009aacc       fprintf                    000000018009bacc f i xmlparse.obj
 0001:0009b904       XML_ParserFree             000000018009c904 f   xmlparse.obj
 0001:0009bc0c       XML_Parse                  000000018009cc0c f   xmlparse.obj
 0001:0009bcf8       XML_ParseBuffer            000000018009ccf8 f   xmlparse.obj
 0001:0009be64       XML_GetBuffer              000000018009ce64 f   xmlparse.obj
 0001:000a2c88       unsignedCharToPrintable    00000001800a3c88 f   xmlparse.obj
 0001:000ae6c4       XmlUtf8Encode              00000001800af6c4 f   xmltok.obj
 0001:000aea08       XmlInitUnknownEncoding     00000001800afa08 f   xmltok.obj
 0001:000aeefc       XmlInitEncoding            00000001800afefc f   xmltok.obj
 0001:000af024       XmlParseXmlDecl            00000001800b0024 f   xmltok.obj
 0001:000af08c       ??_EIMetadata@@UEAAPEAXI@Z 00000001800b008c f i * CIL library *:* CIL module *
 0001:000af08c       ??_GIMetadata@@UEAAPEAXI@Z 00000001800b008c f i IMetadata.cpp.obj
 0001:000af0c0       ??0IMetadata@@QEAA@XZ      00000001800b00c0 f   IMetadata.cpp.obj
 0001:000af118       ??1IMetadata@@UEAA@XZ      00000001800b0118 f   IMetadata.cpp.obj
 0001:000af1d8       ?parse@IMetadata@@UEAAXPEAVXMP_IO@@@Z 00000001800b01d8 f   IMetadata.cpp.obj
 0001:000af1d8       ?parse@IMetadata@@UEAAXPEBE_K@Z 00000001800b01d8 f   IMetadata.cpp.obj
 0001:000af1d8       ?serialize@IMetadata@@UEAA_KPEAPEAE@Z 00000001800b01d8 f   IMetadata.cpp.obj
 0001:000af204       ?hasChanged@IMetadata@@UEBA_NXZ 00000001800b0204 f   IMetadata.cpp.obj
 0001:000af26c       ?resetChanges@IMetadata@@UEAAXXZ 00000001800b026c f   IMetadata.cpp.obj
 0001:000af2d4       ?isEmpty@IMetadata@@UEBA_NXZ 00000001800b02d4 f   IMetadata.cpp.obj
 0001:000af2e0       ?deleteValue@IMetadata@@UEAAXK@Z 00000001800b02e0 f   IMetadata.cpp.obj
 0001:000af3a4       ?deleteAll@IMetadata@@UEAAXXZ 00000001800b03a4 f   IMetadata.cpp.obj
 0001:000af478       ?valueExists@IMetadata@@UEBA_NK@Z 00000001800b0478 f   IMetadata.cpp.obj
 0001:000af4b4       ?valueChanged@IMetadata@@UEBA_NK@Z 00000001800b04b4 f   IMetadata.cpp.obj
 0001:000af4f8       ?valueValid@IMetadata@@MEAA_NKPEAVValueObject@@@Z 00000001800b04f8 f   IMetadata.cpp.obj
 0001:000af4f8       __acrt_initialize          00000001800b04f8 f   MSVCRT:ucrt_stubs.obj
 0001:000af4f8       __acrt_thread_attach       00000001800b04f8 f   MSVCRT:ucrt_stubs.obj
 0001:000af4f8       __acrt_thread_detach       00000001800b04f8 f   MSVCRT:ucrt_stubs.obj
 0001:000af4f8       __acrt_uninitialize        00000001800b04f8 f   MSVCRT:ucrt_stubs.obj
 0001:000af4f8       __acrt_uninitialize_critical 00000001800b04f8 f   MSVCRT:ucrt_stubs.obj
 0001:000af4f8       __scrt_stub_for_acrt_initialize 00000001800b04f8 f   MSVCRT:ucrt_stubs.obj
 0001:000af4f8       __scrt_stub_for_acrt_thread_attach 00000001800b04f8 f   MSVCRT:ucrt_stubs.obj
 0001:000af4f8       __scrt_stub_for_acrt_thread_detach 00000001800b04f8 f   MSVCRT:ucrt_stubs.obj
 0001:000af4f8       __scrt_stub_for_acrt_uninitialize 00000001800b04f8 f   MSVCRT:ucrt_stubs.obj
 0001:000af4f8       __scrt_stub_for_acrt_uninitialize_critical 00000001800b04f8 f   MSVCRT:ucrt_stubs.obj
 0001:000af4f8       __vcrt_initialize          00000001800b04f8 f   MSVCRT:ucrt_stubs.obj
 0001:000af4f8       __vcrt_thread_attach       00000001800b04f8 f   MSVCRT:ucrt_stubs.obj
 0001:000af4f8       __vcrt_thread_detach       00000001800b04f8 f   MSVCRT:ucrt_stubs.obj
 0001:000af4f8       __vcrt_uninitialize        00000001800b04f8 f   MSVCRT:ucrt_stubs.obj
 0001:000af4f8       __vcrt_uninitialize_critical 00000001800b04f8 f   MSVCRT:ucrt_stubs.obj
 0001:000af510       __security_check_cookie    00000001800b0510 f   MSVCRT:amdsecgs.obj
 0001:000af530       __raise_securityfailure    00000001800b0530 f   MSVCRT:gs_report.obj
 0001:000af564       __report_gsfailure         00000001800b0564 f   MSVCRT:gs_report.obj
 0001:000af638       __report_rangecheckfailure 00000001800b0638 f   MSVCRT:gs_report.obj
 0001:000af64c       __report_securityfailure   00000001800b064c f   MSVCRT:gs_report.obj
 0001:000af7d0       _Init_thread_footer        00000001800b07d0 f   MSVCRT:thread_safe_statics.obj
 0001:000af83c       _Init_thread_header        00000001800b083c f   MSVCRT:thread_safe_statics.obj
 0001:000af8b8       ??2@YAPEAX_K@Z             00000001800b08b8 f   MSVCRT:new_scalar.obj
 0001:000af8f4       __scrt_acquire_startup_lock 00000001800b08f4 f   MSVCRT:utility.obj
 0001:000af930       __scrt_dllmain_after_initialize_c 00000001800b0930 f   MSVCRT:utility.obj
 0001:000af964       __scrt_dllmain_before_initialize_c 00000001800b0964 f   MSVCRT:utility.obj
 0001:000af97c       __scrt_dllmain_crt_thread_attach 00000001800b097c f   MSVCRT:utility.obj
 0001:000af9a4       __scrt_dllmain_crt_thread_detach 00000001800b09a4 f   MSVCRT:utility.obj
 0001:000af9bc       __scrt_dllmain_exception_filter 00000001800b09bc f   MSVCRT:utility.obj
 0001:000afa1c       __scrt_dllmain_uninitialize_c 00000001800b0a1c f   MSVCRT:utility.obj
 0001:000afa4c       __scrt_dllmain_uninitialize_critical 00000001800b0a4c f   MSVCRT:utility.obj
 0001:000afa60       __scrt_initialize_crt      00000001800b0a60 f   MSVCRT:utility.obj
 0001:000afa9c       __scrt_initialize_onexit_tables 00000001800b0a9c f   MSVCRT:utility.obj
 0001:000afb28       __scrt_is_nonwritable_in_current_image 00000001800b0b28 f   MSVCRT:utility.obj
 0001:000afbc0       __scrt_release_startup_lock 00000001800b0bc0 f   MSVCRT:utility.obj
 0001:000afbe4       __scrt_uninitialize_crt    00000001800b0be4 f   MSVCRT:utility.obj
 0001:000afc10       _onexit                    00000001800b0c10 f   MSVCRT:utility.obj
 0001:000afc4c       atexit                     00000001800b0c4c f   MSVCRT:utility.obj
 0001:000afc64       ??3@YAXPEAXAEBUnothrow_t@std@@@Z 00000001800b0c64 f   MSVCRT:delete_scalar_nothrow.obj
 0001:000afc64       ??3@YAXPEAX_K@Z            00000001800b0c64 f   MSVCRT:delete_scalar_size.obj
 0001:000afc64       ??_V@YAXPEAX@Z             00000001800b0c64 f   MSVCRT:delete_array.obj
 0001:000afc6c       ??_Etype_info@@UEAAPEAXI@Z 00000001800b0c6c f i MSVCRT:std_type_info_static.obj
 0001:000afc6c       ??_Gtype_info@@UEAAPEAXI@Z 00000001800b0c6c f i MSVCRT:std_type_info_static.obj
 0001:000afc98       ??_M@YAXPEAX_K1P6AX0@Z@Z   00000001800b0c98 f   MSVCRT:ehvecdtr.obj
 0001:000afd04       ?__ArrayUnwind@@YAXPEAX_K1P6AX0@Z@Z 00000001800b0d04 f   MSVCRT:ehvecdtr.obj
 0001:000afd60       ??_L@YAXPEAX_K1P6AX0@Z2@Z  00000001800b0d60 f   MSVCRT:ehvecctr.obj
 0001:000afdd0       ??2@YAPEAX_KAEBUnothrow_t@std@@@Z 00000001800b0dd0 f   MSVCRT:new_scalar_nothrow.obj
 0001:000afde4       ??_U@YAPEAX_K@Z            00000001800b0de4 f   MSVCRT:new_array.obj
 0001:000afdec       ??_V@YAXPEAX_K@Z           00000001800b0dec f   MSVCRT:delete_array_size.obj
 0001:000b0108       _DllMainCRTStartup         00000001800b1108 f   MSVCRT:dll_dllmain.obj
 0001:000b0148       ??0bad_alloc@std@@QEAA@XZ  00000001800b1148 f i MSVCRT:throw_bad_alloc.obj
 0001:000b016c       ?__scrt_throw_std_bad_alloc@@YAXXZ 00000001800b116c f   MSVCRT:throw_bad_alloc.obj
 0001:000b018c       __isa_available_init       00000001800b118c f   MSVCRT:cpu_disp.obj
 0001:000b0424       _get_startup_argv_mode     00000001800b1424 f   MSVCRT:argv_mode.obj
 0001:000b042c       __scrt_is_ucrt_dll_in_use  00000001800b142c f   MSVCRT:ucrt_detection.obj
 0001:000b0438       __crt_debugger_hook        00000001800b1438 f   MSVCRT:utility_desktop.obj
 0001:000b0444       __scrt_fastfail            00000001800b1444 f   MSVCRT:utility_desktop.obj
 0001:000b0590       ??3@YAXPEAX@Z              00000001800b1590 f   MSVCRT:delete_scalar.obj
 0001:000b0598       __security_init_cookie     00000001800b1598 f   MSVCRT:gs_support.obj
 0001:000b0648       DllMain                    00000001800b1648 f   MSVCRT:dll_dllmain_stub.obj
 0001:000b066c       ?__scrt_initialize_type_info@@YAXXZ 00000001800b166c f   MSVCRT:tncleanup.obj
 0001:000b067c       ?__scrt_uninitialize_type_info@@YAXXZ 00000001800b167c f   MSVCRT:tncleanup.obj
 0001:000b0688       __scrt_initialize_default_local_stdio_options 00000001800b1688 f   MSVCRT:default_local_stdio_options.obj
 0001:000b06a4       __scrt_get_dyn_tls_init_callback 00000001800b16a4 f   MSVCRT:dyn_tls_init.obj
 0001:000b06ac       _RTC_Initialize            00000001800b16ac f   MSVCRT:initsect.obj
 0001:000b06e8       _RTC_Terminate             00000001800b16e8 f   MSVCRT:initsect.obj
 0001:000b10a0       __std_find_end_1           00000001800b20a0 f   msvcprt:vector_algorithms.obj
 0001:000b10b0       __std_find_last_trivial_1  00000001800b20b0 f   msvcprt:vector_algorithms.obj
 0001:000b10c0       __std_find_trivial_1       00000001800b20c0 f   msvcprt:vector_algorithms.obj
 0001:000b10d0       __std_find_trivial_8       00000001800b20d0 f   msvcprt:vector_algorithms.obj
 0001:000b10e0       __std_reverse_trivially_swappable_1 00000001800b20e0 f   msvcprt:vector_algorithms.obj
 0001:000b11d0       __std_search_1             00000001800b21d0 f   msvcprt:vector_algorithms.obj
 0001:000b11d5       ??1?$basic_streambuf@DU?$char_traits@D@std@@@std@@UEAA@XZ 00000001800b21d5 f   msvcprt:MSVCP140.dll
 0001:000b11db       ?_Lock@?$basic_streambuf@DU?$char_traits@D@std@@@std@@UEAAXXZ 00000001800b21db f   msvcprt:MSVCP140.dll
 0001:000b11e1       ?_Unlock@?$basic_streambuf@DU?$char_traits@D@std@@@std@@UEAAXXZ 00000001800b21e1 f   msvcprt:MSVCP140.dll
 0001:000b11e7       ?showmanyc@?$basic_streambuf@DU?$char_traits@D@std@@@std@@MEAA_JXZ 00000001800b21e7 f   msvcprt:MSVCP140.dll
 0001:000b11ed       ?uflow@?$basic_streambuf@DU?$char_traits@D@std@@@std@@MEAAHXZ 00000001800b21ed f   msvcprt:MSVCP140.dll
 0001:000b11f3       ?xsgetn@?$basic_streambuf@DU?$char_traits@D@std@@@std@@MEAA_JPEAD_J@Z 00000001800b21f3 f   msvcprt:MSVCP140.dll
 0001:000b11f9       ?xsputn@?$basic_streambuf@DU?$char_traits@D@std@@@std@@MEAA_JPEBD_J@Z 00000001800b21f9 f   msvcprt:MSVCP140.dll
 0001:000b11ff       ?setbuf@?$basic_streambuf@DU?$char_traits@D@std@@@std@@MEAAPEAV12@PEAD_J@Z 00000001800b21ff f   msvcprt:MSVCP140.dll
 0001:000b1205       ?sync@?$basic_streambuf@DU?$char_traits@D@std@@@std@@MEAAHXZ 00000001800b2205 f   msvcprt:MSVCP140.dll
 0001:000b120b       ?imbue@?$basic_streambuf@DU?$char_traits@D@std@@@std@@MEAAXAEBVlocale@2@@Z 00000001800b220b f   msvcprt:MSVCP140.dll
 0001:000b1211       memcpy                     00000001800b2211 f   vcruntime:VCRUNTIME140.dll
 0001:000b1217       memset                     00000001800b2217 f   vcruntime:VCRUNTIME140.dll
 0001:000b121d       __CxxFrameHandler4         00000001800b221d f   vcruntime:VCRUNTIME140_1.dll
 0001:000b1223       _purecall                  00000001800b2223 f   vcruntime:VCRUNTIME140.dll
 0001:000b1229       __std_terminate            00000001800b2229 f   vcruntime:VCRUNTIME140.dll
 0001:000b122f       memcmp                     00000001800b222f f   vcruntime:VCRUNTIME140.dll
 0001:000b1235       __C_specific_handler       00000001800b2235 f   vcruntime:VCRUNTIME140.dll
 0001:000b123b       __current_exception        00000001800b223b f   vcruntime:VCRUNTIME140.dll
 0001:000b1241       __current_exception_context 00000001800b2241 f   vcruntime:VCRUNTIME140.dll
 0001:000b1247       _CxxThrowException         00000001800b2247 f   vcruntime:VCRUNTIME140.dll
 0001:000b124d       __std_type_info_destroy_list 00000001800b224d f   vcruntime:VCRUNTIME140.dll
 0001:000b1253       free                       00000001800b2253 f   ucrt:api-ms-win-crt-heap-l1-1-0.dll
 0001:000b1259       malloc                     00000001800b2259 f   ucrt:api-ms-win-crt-heap-l1-1-0.dll
 0001:000b125f       _callnewh                  00000001800b225f f   ucrt:api-ms-win-crt-heap-l1-1-0.dll
 0001:000b1265       _seh_filter_dll            00000001800b2265 f   ucrt:api-ms-win-crt-runtime-l1-1-0.dll
 0001:000b126b       _configure_narrow_argv     00000001800b226b f   ucrt:api-ms-win-crt-runtime-l1-1-0.dll
 0001:000b1271       _initialize_narrow_environment 00000001800b2271 f   ucrt:api-ms-win-crt-runtime-l1-1-0.dll
 0001:000b1277       _initialize_onexit_table   00000001800b2277 f   ucrt:api-ms-win-crt-runtime-l1-1-0.dll
 0001:000b127d       _register_onexit_function  00000001800b227d f   ucrt:api-ms-win-crt-runtime-l1-1-0.dll
 0001:000b1283       _execute_onexit_table      00000001800b2283 f   ucrt:api-ms-win-crt-runtime-l1-1-0.dll
 0001:000b1289       _crt_atexit                00000001800b2289 f   ucrt:api-ms-win-crt-runtime-l1-1-0.dll
 0001:000b128f       _cexit                     00000001800b228f f   ucrt:api-ms-win-crt-runtime-l1-1-0.dll
 0001:000b1295       __initialize_lconv_for_unsigned_char 00000001800b2295 f   ucrt:api-ms-win-crt-locale-l1-1-0.dll
 0001:000b129b       terminate                  00000001800b229b f   ucrt:api-ms-win-crt-runtime-l1-1-0.dll
 0001:000b12a1       _initterm                  00000001800b22a1 f   ucrt:api-ms-win-crt-runtime-l1-1-0.dll
 0001:000b12a7       _initterm_e                00000001800b22a7 f   ucrt:api-ms-win-crt-runtime-l1-1-0.dll
 0001:000b12b0       __GSHandlerCheck           00000001800b22b0 f   MSVCRT:gshandler.obj
 0001:000b12d0       __GSHandlerCheckCommon     00000001800b22d0 f   MSVCRT:gshandler.obj
 0001:000b1330       __GSHandlerCheck_EH4       00000001800b2330 f   MSVCRT:gshandlereh4.obj
 0001:000b13c0       __chkstk                   00000001800b23c0 f   MSVCRT:chkstk.obj
 0001:000b13c0       _alloca_probe              00000001800b23c0 f   MSVCRT:chkstk.obj
 0001:000b140e       __RTDynamicCast            00000001800b240e f   vcruntime:VCRUNTIME140.dll
 0001:000b1430       _guard_dispatch_icall_nop  00000001800b2430 f   MSVCRT:guard_dispatch.obj
 0001:000b1450       _guard_xfg_dispatch_icall_nop 00000001800b2450 f   MSVCRT:guard_xfg_dispatch.obj
 0001:000b5cb4       ??__Finstance@?1??getInstance@LittleEndian@@SAAEBV1@XZ@YAXXZ 00000001800b6cb4 f i IReconcile.obj
 0001:000b5de4       ??__Finstance@?1??getInstance@BigEndian@@SAAEBV1@XZ@YAXXZ 00000001800b6de4 f i AIFF_Handler.obj
 0002:00000000       __imp_LoadLibraryExW       00000001800b8000     kernel32:KERNEL32.dll
 0002:00000008       __imp_InitializeSListHead  00000001800b8008     kernel32:KERNEL32.dll
 0002:00000010       __imp_DisableThreadLibraryCalls 00000001800b8010     kernel32:KERNEL32.dll
 0002:00000018       __imp_GetCurrentThreadId   00000001800b8018     kernel32:KERNEL32.dll
 0002:00000020       __imp_IsDebuggerPresent    00000001800b8020     kernel32:KERNEL32.dll
 0002:00000028       __imp_SleepConditionVariableSRW 00000001800b8028     kernel32:KERNEL32.dll
 0002:00000030       __imp_WakeAllConditionVariable 00000001800b8030     kernel32:KERNEL32.dll
 0002:00000038       __imp_AcquireSRWLockExclusive 00000001800b8038     kernel32:KERNEL32.dll
 0002:00000040       __imp_ReleaseSRWLockExclusive 00000001800b8040     kernel32:KERNEL32.dll
 0002:00000048       __imp_IsProcessorFeaturePresent 00000001800b8048     kernel32:KERNEL32.dll
 0002:00000050       __imp_TerminateProcess     00000001800b8050     kernel32:KERNEL32.dll
 0002:00000058       __imp_GetCurrentProcess    00000001800b8058     kernel32:KERNEL32.dll
 0002:00000060       __imp_SetUnhandledExceptionFilter 00000001800b8060     kernel32:KERNEL32.dll
 0002:00000068       __imp_UnhandledExceptionFilter 00000001800b8068     kernel32:KERNEL32.dll
 0002:00000070       __imp_RtlVirtualUnwind     00000001800b8070     kernel32:KERNEL32.dll
 0002:00000078       __imp_RtlLookupFunctionEntry 00000001800b8078     kernel32:KERNEL32.dll
 0002:00000080       __imp_RtlCaptureContext    00000001800b8080     kernel32:KERNEL32.dll
 0002:00000088       __imp_FreeLibrary          00000001800b8088     kernel32:KERNEL32.dll
 0002:00000090       __imp_GetProcAddress       00000001800b8090     kernel32:KERNEL32.dll
 0002:00000098       __imp_LoadResource         00000001800b8098     kernel32:KERNEL32.dll
 0002:000000a0       __imp_LockResource         00000001800b80a0     kernel32:KERNEL32.dll
 0002:000000a8       __imp_FreeResource         00000001800b80a8     kernel32:KERNEL32.dll
 0002:000000b0       __imp_FindResourceA        00000001800b80b0     kernel32:KERNEL32.dll
 0002:000000b8       __imp_SizeofResource       00000001800b80b8     kernel32:KERNEL32.dll
 0002:000000c0       __imp_GetFileTime          00000001800b80c0     kernel32:KERNEL32.dll
 0002:000000c8       __imp_MoveFileW            00000001800b80c8     kernel32:KERNEL32.dll
 0002:000000d0       __imp_WideCharToMultiByte  00000001800b80d0     kernel32:KERNEL32.dll
 0002:000000d8       __imp_SetFilePointerEx     00000001800b80d8     kernel32:KERNEL32.dll
 0002:000000e0       __imp_DeleteFileW          00000001800b80e0     kernel32:KERNEL32.dll
 0002:000000e8       __imp_FileTimeToSystemTime 00000001800b80e8     kernel32:KERNEL32.dll
 0002:000000f0       __imp_GetLastError         00000001800b80f0     kernel32:KERNEL32.dll
 0002:000000f8       __imp_MultiByteToWideChar  00000001800b80f8     kernel32:KERNEL32.dll
 0002:00000100       __imp_GetFileAttributesW   00000001800b8100     kernel32:KERNEL32.dll
 0002:00000108       __imp_CreateFileW          00000001800b8108     kernel32:KERNEL32.dll
 0002:00000110       __imp_FindClose            00000001800b8110     kernel32:KERNEL32.dll
 0002:00000118       __imp_FindNextFileW        00000001800b8118     kernel32:KERNEL32.dll
 0002:00000120       __imp_GetFileSizeEx        00000001800b8120     kernel32:KERNEL32.dll
 0002:00000128       __imp_FindFirstFileW       00000001800b8128     kernel32:KERNEL32.dll
 0002:00000130       __imp_ReadFile             00000001800b8130     kernel32:KERNEL32.dll
 0002:00000138       __imp_DeleteCriticalSection 00000001800b8138     kernel32:KERNEL32.dll
 0002:00000140       __imp_CloseHandle          00000001800b8140     kernel32:KERNEL32.dll
 0002:00000148       __imp_SetEvent             00000001800b8148     kernel32:KERNEL32.dll
 0002:00000150       __imp_CreateEventW         00000001800b8150     kernel32:KERNEL32.dll
 0002:00000158       __imp_WaitForSingleObject  00000001800b8158     kernel32:KERNEL32.dll
 0002:00000160       __imp_InitializeCriticalSection 00000001800b8160     kernel32:KERNEL32.dll
 0002:00000168       __imp_LeaveCriticalSection 00000001800b8168     kernel32:KERNEL32.dll
 0002:00000170       __imp_EnterCriticalSection 00000001800b8170     kernel32:KERNEL32.dll
 0002:00000178       __imp_QueryPerformanceCounter 00000001800b8178     kernel32:KERNEL32.dll
 0002:00000180       __imp_QueryPerformanceFrequency 00000001800b8180     kernel32:KERNEL32.dll
 0002:00000188       __imp_GetCurrentProcessId  00000001800b8188     kernel32:KERNEL32.dll
 0002:00000190       __imp_GetSystemTimeAsFileTime 00000001800b8190     kernel32:KERNEL32.dll
 0002:00000198       __imp_SetEndOfFile         00000001800b8198     kernel32:KERNEL32.dll
 0002:000001a0       __imp_WriteFile            00000001800b81a0     kernel32:KERNEL32.dll
 0002:000001a8       \177KERNEL32_NULL_THUNK_DATA 00000001800b81a8     kernel32:KERNEL32.dll
 0002:000001b0       __imp_?xsputn@?$basic_streambuf@DU?$char_traits@D@std@@@std@@MEAA_JPEBD_J@Z 00000001800b81b0     msvcprt:MSVCP140.dll
 0002:000001b8       __imp_?xsgetn@?$basic_streambuf@DU?$char_traits@D@std@@@std@@MEAA_JPEAD_J@Z 00000001800b81b8     msvcprt:MSVCP140.dll
 0002:000001c0       __imp_?uflow@?$basic_streambuf@DU?$char_traits@D@std@@@std@@MEAAHXZ 00000001800b81c0     msvcprt:MSVCP140.dll
 0002:000001c8       __imp_?showmanyc@?$basic_streambuf@DU?$char_traits@D@std@@@std@@MEAA_JXZ 00000001800b81c8     msvcprt:MSVCP140.dll
 0002:000001d0       __imp_?_Unlock@?$basic_streambuf@DU?$char_traits@D@std@@@std@@UEAAXXZ 00000001800b81d0     msvcprt:MSVCP140.dll
 0002:000001d8       __imp_?_Lock@?$basic_streambuf@DU?$char_traits@D@std@@@std@@UEAAXXZ 00000001800b81d8     msvcprt:MSVCP140.dll
 0002:000001e0       __imp_??1?$basic_streambuf@DU?$char_traits@D@std@@@std@@UEAA@XZ 00000001800b81e0     msvcprt:MSVCP140.dll
 0002:000001e8       __imp_?clear@?$basic_ios@DU?$char_traits@D@std@@@std@@QEAAXH_N@Z 00000001800b81e8     msvcprt:MSVCP140.dll
 0002:000001f0       __imp_??1?$basic_ios@DU?$char_traits@D@std@@@std@@UEAA@XZ 00000001800b81f0     msvcprt:MSVCP140.dll
 0002:000001f8       __imp_??0?$basic_iostream@DU?$char_traits@D@std@@@std@@QEAA@PEAV?$basic_streambuf@DU?$char_traits@D@std@@@1@@Z 00000001800b81f8     msvcprt:MSVCP140.dll
 0002:00000200       __imp_??0?$basic_ostream@DU?$char_traits@D@std@@@std@@QEAA@PEAV?$basic_streambuf@DU?$char_traits@D@std@@@1@_N@Z 00000001800b8200     msvcprt:MSVCP140.dll
 0002:00000208       __imp_?imbue@?$basic_streambuf@DU?$char_traits@D@std@@@std@@MEAAXAEBVlocale@2@@Z 00000001800b8208     msvcprt:MSVCP140.dll
 0002:00000210       __imp_??0?$basic_ios@DU?$char_traits@D@std@@@std@@IEAA@XZ 00000001800b8210     msvcprt:MSVCP140.dll
 0002:00000218       __imp_?setstate@?$basic_ios@DU?$char_traits@D@std@@@std@@QEAAXH_N@Z 00000001800b8218     msvcprt:MSVCP140.dll
 0002:00000220       __imp_?flush@?$basic_ostream@DU?$char_traits@D@std@@@std@@QEAAAEAV12@XZ 00000001800b8220     msvcprt:MSVCP140.dll
 0002:00000228       __imp_?_Osfx@?$basic_ostream@DU?$char_traits@D@std@@@std@@QEAAXXZ 00000001800b8228     msvcprt:MSVCP140.dll
 0002:00000230       __imp_?sputn@?$basic_streambuf@DU?$char_traits@D@std@@@std@@QEAA_JPEBD_J@Z 00000001800b8230     msvcprt:MSVCP140.dll
 0002:00000238       __imp_??0?$basic_streambuf@DU?$char_traits@D@std@@@std@@IEAA@XZ 00000001800b8238     msvcprt:MSVCP140.dll
 0002:00000240       __imp_?_Xbad_alloc@std@@YAXXZ 00000001800b8240     msvcprt:MSVCP140.dll
 0002:00000248       __imp_?uncaught_exception@std@@YA_NXZ 00000001800b8248     msvcprt:MSVCP140.dll
 0002:00000250       __imp_?_Xlength_error@std@@YAXPEBD@Z 00000001800b8250     msvcprt:MSVCP140.dll
 0002:00000258       __imp_?_Xout_of_range@std@@YAXPEBD@Z 00000001800b8258     msvcprt:MSVCP140.dll
 0002:00000260       __imp_?sync@?$basic_streambuf@DU?$char_traits@D@std@@@std@@MEAAHXZ 00000001800b8260     msvcprt:MSVCP140.dll
 0002:00000268       __imp_??5?$basic_istream@DU?$char_traits@D@std@@@std@@QEAAAEAV01@AEAK@Z 00000001800b8268     msvcprt:MSVCP140.dll
 0002:00000270       __imp_??1?$basic_ostream@DU?$char_traits@D@std@@@std@@UEAA@XZ 00000001800b8270     msvcprt:MSVCP140.dll
 0002:00000278       __imp_??6?$basic_ostream@DU?$char_traits@D@std@@@std@@QEAAAEAV01@K@Z 00000001800b8278     msvcprt:MSVCP140.dll
 0002:00000280       __imp_??1?$basic_iostream@DU?$char_traits@D@std@@@std@@UEAA@XZ 00000001800b8280     msvcprt:MSVCP140.dll
 0002:00000288       __imp_?good@ios_base@std@@QEBA_NXZ 00000001800b8288     msvcprt:MSVCP140.dll
 0002:00000290       __imp_??6?$basic_ostream@DU?$char_traits@D@std@@@std@@QEAAAEAV01@J@Z 00000001800b8290     msvcprt:MSVCP140.dll
 0002:00000298       __imp_?put@?$basic_ostream@DU?$char_traits@D@std@@@std@@QEAAAEAV12@D@Z 00000001800b8298     msvcprt:MSVCP140.dll
 0002:000002a0       __imp_?setw@std@@YA?AU?$_Smanip@_J@1@_J@Z 00000001800b82a0     msvcprt:MSVCP140.dll
 0002:000002a8       __imp_??6?$basic_ostream@DU?$char_traits@D@std@@@std@@QEAAAEAV01@H@Z 00000001800b82a8     msvcprt:MSVCP140.dll
 0002:000002b0       __imp_?setbuf@?$basic_streambuf@DU?$char_traits@D@std@@@std@@MEAAPEAV12@PEAD_J@Z 00000001800b82b0     msvcprt:MSVCP140.dll
 0002:000002b8       __imp_?sputc@?$basic_streambuf@DU?$char_traits@D@std@@@std@@QEAAHD@Z 00000001800b82b8     msvcprt:MSVCP140.dll
 0002:000002c0       \177MSVCP140_NULL_THUNK_DATA 00000001800b82c0     msvcprt:MSVCP140.dll
 0002:000002c8       __imp_memcpy               00000001800b82c8     vcruntime:VCRUNTIME140.dll
 0002:000002d0       __imp_memset               00000001800b82d0     vcruntime:VCRUNTIME140.dll
 0002:000002d8       __imp___std_exception_destroy 00000001800b82d8     vcruntime:VCRUNTIME140.dll
 0002:000002e0       __imp_memmove              00000001800b82e0     vcruntime:VCRUNTIME140.dll
 0002:000002e8       __imp___std_exception_copy 00000001800b82e8     vcruntime:VCRUNTIME140.dll
 0002:000002f0       __imp__purecall            00000001800b82f0     vcruntime:VCRUNTIME140.dll
 0002:000002f8       __imp___std_terminate      00000001800b82f8     vcruntime:VCRUNTIME140.dll
 0002:00000300       __imp_memcmp               00000001800b8300     vcruntime:VCRUNTIME140.dll
 0002:00000308       __imp_strchr               00000001800b8308     vcruntime:VCRUNTIME140.dll
 0002:00000310       __imp___std_type_info_compare 00000001800b8310     vcruntime:VCRUNTIME140.dll
 0002:00000318       __imp___RTtypeid           00000001800b8318     vcruntime:VCRUNTIME140.dll
 0002:00000320       __imp___C_specific_handler 00000001800b8320     vcruntime:VCRUNTIME140.dll
 0002:00000328       __imp___current_exception  00000001800b8328     vcruntime:VCRUNTIME140.dll
 0002:00000330       __imp___current_exception_context 00000001800b8330     vcruntime:VCRUNTIME140.dll
 0002:00000338       __imp__CxxThrowException   00000001800b8338     vcruntime:VCRUNTIME140.dll
 0002:00000340       __imp___std_type_info_destroy_list 00000001800b8340     vcruntime:VCRUNTIME140.dll
 0002:00000348       __imp___RTDynamicCast      00000001800b8348     vcruntime:VCRUNTIME140.dll
 0002:00000350       \177VCRUNTIME140_NULL_THUNK_DATA 00000001800b8350     vcruntime:VCRUNTIME140.dll
 0002:00000358       __imp___CxxFrameHandler4   00000001800b8358     vcruntime:VCRUNTIME140_1.dll
 0002:00000360       \177VCRUNTIME140_1_NULL_THUNK_DATA 00000001800b8360     vcruntime:VCRUNTIME140_1.dll
 0002:00000368       __imp_WXMPMeta_AppendArrayItem_1 00000001800b8368     XMPCore:XMPCore.dll
 0002:00000370       __imp_WXMPMeta_GetArrayItem_1 00000001800b8370     XMPCore:XMPCore.dll
 0002:00000378       __imp_WXMPUtils_RemoveProperties_1 00000001800b8378     XMPCore:XMPCore.dll
 0002:00000380       __imp_WXMPMeta_GetProperty_Int_1 00000001800b8380     XMPCore:XMPCore.dll
 0002:00000388       __imp_WXMPMeta_Clone_1     00000001800b8388     XMPCore:XMPCore.dll
 0002:00000390       __imp_WXMPMeta_SetProperty_Date_1 00000001800b8390     XMPCore:XMPCore.dll
 0002:00000398       __imp_WXMPMeta_SetProperty_1 00000001800b8398     XMPCore:XMPCore.dll
 0002:000003a0       __imp_WXMPMeta_CTor_1      00000001800b83a0     XMPCore:XMPCore.dll
 0002:000003a8       __imp_WXMPMeta_DeleteProperty_1 00000001800b83a8     XMPCore:XMPCore.dll
 0002:000003b0       __imp_WXMPMeta_DeleteLocalizedText_1 00000001800b83b0     XMPCore:XMPCore.dll
 0002:000003b8       __imp_WXMPMeta_SetProperty_Float_1 00000001800b83b8     XMPCore:XMPCore.dll
 0002:000003c0       __imp_WXMPUtils_CatenateArrayItems_1 00000001800b83c0     XMPCore:XMPCore.dll
 0002:000003c8       __imp_WXMPUtils_ComposeStructFieldPath_1 00000001800b83c8     XMPCore:XMPCore.dll
 0002:000003d0       __imp_WXMPUtils_ConvertToBool_1 00000001800b83d0     XMPCore:XMPCore.dll
 0002:000003d8       __imp_WXMPMeta_GetProperty_Bool_1 00000001800b83d8     XMPCore:XMPCore.dll
 0002:000003e0       __imp_WXMPMeta_SerializeToBuffer_1 00000001800b83e0     XMPCore:XMPCore.dll
 0002:000003e8       __imp_WXMPMeta_SetLocalizedText_1 00000001800b83e8     XMPCore:XMPCore.dll
 0002:000003f0       __imp_WXMPUtils_ConvertFromFloat_1 00000001800b83f0     XMPCore:XMPCore.dll
 0002:000003f8       __imp_WXMPMeta_GetQualifier_1 00000001800b83f8     XMPCore:XMPCore.dll
 0002:00000400       __imp_WXMPMeta_SetProperty_Bool_1 00000001800b8400     XMPCore:XMPCore.dll
 0002:00000408       __imp_WXMPUtils_SeparateArrayItems_1 00000001800b8408     XMPCore:XMPCore.dll
 0002:00000410       __imp_WXMPUtils_ConvertFromInt_1 00000001800b8410     XMPCore:XMPCore.dll
 0002:00000418       __imp_WXMPMeta_GetProperty_Date_1 00000001800b8418     XMPCore:XMPCore.dll
 0002:00000420       __imp_XMP_NewExpatAdapter  00000001800b8420     XMPCore:XMPCore.dll
 0002:00000428       __imp_WXMPMeta_IncrementRefCount_1 00000001800b8428     XMPCore:XMPCore.dll
 0002:00000430       __imp_WXMPMeta_Terminate_1 00000001800b8430     XMPCore:XMPCore.dll
 0002:00000438       __imp_WXMPMeta_SetErrorCallback_1 00000001800b8438     XMPCore:XMPCore.dll
 0002:00000440       __imp_WXMPUtils_ApplyTemplate_1 00000001800b8440     XMPCore:XMPCore.dll
 0002:00000448       __imp_WXMPUtils_ComposeArrayItemPath_1 00000001800b8448     XMPCore:XMPCore.dll
 0002:00000450       __imp_WXMPMeta_DoesStructFieldExist_1 00000001800b8450     XMPCore:XMPCore.dll
 0002:00000458       __imp_WXMPMeta_Erase_1     00000001800b8458     XMPCore:XMPCore.dll
 0002:00000460       __imp_WXMPUtils_ConvertToUTCTime_1 00000001800b8460     XMPCore:XMPCore.dll
 0002:00000468       __imp_WXMPMeta_ParseFromBuffer_1 00000001800b8468     XMPCore:XMPCore.dll
 0002:00000470       __imp_WXMPMeta_GetLocalizedText_1 00000001800b8470     XMPCore:XMPCore.dll
 0002:00000478       __imp_WXMPMeta_DoesPropertyExist_1 00000001800b8478     XMPCore:XMPCore.dll
 0002:00000480       __imp_WXMPMeta_GetXMPDOMFactoryInstance_1 00000001800b8480     XMPCore:XMPCore.dll
 0002:00000488       __imp_WXMPUtils_ConvertFromDate_1 00000001800b8488     XMPCore:XMPCore.dll
 0002:00000490       __imp_WXMPMeta_DoesArrayItemExist_1 00000001800b8490     XMPCore:XMPCore.dll
 0002:00000498       __imp_WXMPMeta_GetProperty_1 00000001800b8498     XMPCore:XMPCore.dll
 0002:000004a0       __imp_WXMPMeta_DecrementRefCount_1 00000001800b84a0     XMPCore:XMPCore.dll
 0002:000004a8       __imp_WXMPUtils_ConvertToDate_1 00000001800b84a8     XMPCore:XMPCore.dll
 0002:000004b0       __imp_WXMPMeta_SetProperty_Int_1 00000001800b84b0     XMPCore:XMPCore.dll
 0002:000004b8       __imp_WXMPUtils_MergeFromJPEG_1 00000001800b84b8     XMPCore:XMPCore.dll
 0002:000004c0       __imp_WXMPMeta_CountArrayItems_1 00000001800b84c0     XMPCore:XMPCore.dll
 0002:000004c8       __imp_WXMPUtils_ConvertToInt64_1 00000001800b84c8     XMPCore:XMPCore.dll
 0002:000004d0       __imp_WXMPMeta_SetProperty_Int64_1 00000001800b84d0     XMPCore:XMPCore.dll
 0002:000004d8       __imp_WXMPMeta_RegisterNamespace_1 00000001800b84d8     XMPCore:XMPCore.dll
 0002:000004e0       __imp_WXMPMeta_Initialize_1 00000001800b84e0     XMPCore:XMPCore.dll
 0002:000004e8       __imp_WXMPUtils_ConvertFromBool_1 00000001800b84e8     XMPCore:XMPCore.dll
 0002:000004f0       __imp_WXMPUtils_PackageForJPEG_1 00000001800b84f0     XMPCore:XMPCore.dll
 0002:000004f8       __imp_WXMPMeta_GetStructField_1 00000001800b84f8     XMPCore:XMPCore.dll
 0002:00000500       __imp_WXMPUtils_ConvertToInt_1 00000001800b8500     XMPCore:XMPCore.dll
 0002:00000508       __imp_WXMPUtils_ConvertFromInt64_1 00000001800b8508     XMPCore:XMPCore.dll
 0002:00000510       __imp_WXMPUtils_CurrentDateTime_1 00000001800b8510     XMPCore:XMPCore.dll
 0002:00000518       __imp_WXMPUtils_DuplicateSubtree_1 00000001800b8518     XMPCore:XMPCore.dll
 0002:00000520       __imp_WXMPMeta_GetProperty_Int64_1 00000001800b8520     XMPCore:XMPCore.dll
 0002:00000528       __imp_WXMPMeta_SetStructField_1 00000001800b8528     XMPCore:XMPCore.dll
 0002:00000530       __imp_WXMPUtils_CompareDateTime_1 00000001800b8530     XMPCore:XMPCore.dll
 0002:00000538       \177XMPCore_NULL_THUNK_DATA 00000001800b8538     XMPCore:XMPCore.dll
 0002:00000540       __imp_atoi                 00000001800b8540     ucrt:api-ms-win-crt-convert-l1-1-0.dll
 0002:00000548       __imp_strtoul              00000001800b8548     ucrt:api-ms-win-crt-convert-l1-1-0.dll
 0002:00000550       \177api-ms-win-crt-convert-l1-1-0_NULL_THUNK_DATA 00000001800b8550     ucrt:api-ms-win-crt-convert-l1-1-0.dll
 0002:00000558       __imp_getenv               00000001800b8558     ucrt:api-ms-win-crt-environment-l1-1-0.dll
 0002:00000560       \177api-ms-win-crt-environment-l1-1-0_NULL_THUNK_DATA 00000001800b8560     ucrt:api-ms-win-crt-environment-l1-1-0.dll
 0002:00000568       __imp__callnewh            00000001800b8568     ucrt:api-ms-win-crt-heap-l1-1-0.dll
 0002:00000570       __imp_realloc              00000001800b8570     ucrt:api-ms-win-crt-heap-l1-1-0.dll
 0002:00000578       __imp_malloc               00000001800b8578     ucrt:api-ms-win-crt-heap-l1-1-0.dll
 0002:00000580       __imp_free                 00000001800b8580     ucrt:api-ms-win-crt-heap-l1-1-0.dll
 0002:00000588       \177api-ms-win-crt-heap-l1-1-0_NULL_THUNK_DATA 00000001800b8588     ucrt:api-ms-win-crt-heap-l1-1-0.dll
 0002:00000590       __imp___initialize_lconv_for_unsigned_char 00000001800b8590     ucrt:api-ms-win-crt-locale-l1-1-0.dll
 0002:00000598       \177api-ms-win-crt-locale-l1-1-0_NULL_THUNK_DATA 00000001800b8598     ucrt:api-ms-win-crt-locale-l1-1-0.dll
 0002:000005a0       __imp_modf                 00000001800b85a0     ucrt:api-ms-win-crt-math-l1-1-0.dll
 0002:000005a8       \177api-ms-win-crt-math-l1-1-0_NULL_THUNK_DATA 00000001800b85a8     ucrt:api-ms-win-crt-math-l1-1-0.dll
 0002:000005b0       __imp__initialize_onexit_table 00000001800b85b0     ucrt:api-ms-win-crt-runtime-l1-1-0.dll
 0002:000005b8       __imp__execute_onexit_table 00000001800b85b8     ucrt:api-ms-win-crt-runtime-l1-1-0.dll
 0002:000005c0       __imp__crt_atexit          00000001800b85c0     ucrt:api-ms-win-crt-runtime-l1-1-0.dll
 0002:000005c8       __imp__cexit               00000001800b85c8     ucrt:api-ms-win-crt-runtime-l1-1-0.dll
 0002:000005d0       __imp__initialize_narrow_environment 00000001800b85d0     ucrt:api-ms-win-crt-runtime-l1-1-0.dll
 0002:000005d8       __imp_terminate            00000001800b85d8     ucrt:api-ms-win-crt-runtime-l1-1-0.dll
 0002:000005e0       __imp__initterm            00000001800b85e0     ucrt:api-ms-win-crt-runtime-l1-1-0.dll
 0002:000005e8       __imp__initterm_e          00000001800b85e8     ucrt:api-ms-win-crt-runtime-l1-1-0.dll
 0002:000005f0       __imp__configure_narrow_argv 00000001800b85f0     ucrt:api-ms-win-crt-runtime-l1-1-0.dll
 0002:000005f8       __imp__seh_filter_dll      00000001800b85f8     ucrt:api-ms-win-crt-runtime-l1-1-0.dll
 0002:00000600       __imp__invoke_watson       00000001800b8600     ucrt:api-ms-win-crt-runtime-l1-1-0.dll
 0002:00000608       __imp__register_onexit_function 00000001800b8608     ucrt:api-ms-win-crt-runtime-l1-1-0.dll
 0002:00000610       __imp__errno               00000001800b8610     ucrt:api-ms-win-crt-runtime-l1-1-0.dll
 0002:00000618       \177api-ms-win-crt-runtime-l1-1-0_NULL_THUNK_DATA 00000001800b8618     ucrt:api-ms-win-crt-runtime-l1-1-0.dll
 0002:00000620       __imp___stdio_common_vsprintf 00000001800b8620     ucrt:api-ms-win-crt-stdio-l1-1-0.dll
 0002:00000628       __imp___acrt_iob_func      00000001800b8628     ucrt:api-ms-win-crt-stdio-l1-1-0.dll
 0002:00000630       __imp___stdio_common_vfprintf 00000001800b8630     ucrt:api-ms-win-crt-stdio-l1-1-0.dll
 0002:00000638       __imp___stdio_common_vsscanf 00000001800b8638     ucrt:api-ms-win-crt-stdio-l1-1-0.dll
 0002:00000640       \177api-ms-win-crt-stdio-l1-1-0_NULL_THUNK_DATA 00000001800b8640     ucrt:api-ms-win-crt-stdio-l1-1-0.dll
 0002:00000648       __imp_strncpy              00000001800b8648     ucrt:api-ms-win-crt-string-l1-1-0.dll
 0002:00000650       __imp_tolower              00000001800b8650     ucrt:api-ms-win-crt-string-l1-1-0.dll
 0002:00000658       __imp_strcmp               00000001800b8658     ucrt:api-ms-win-crt-string-l1-1-0.dll
 0002:00000660       __imp_strnlen              00000001800b8660     ucrt:api-ms-win-crt-string-l1-1-0.dll
 0002:00000668       __imp__stricmp             00000001800b8668     ucrt:api-ms-win-crt-string-l1-1-0.dll
 0002:00000670       __imp_strncmp              00000001800b8670     ucrt:api-ms-win-crt-string-l1-1-0.dll
 0002:00000678       __imp_strlen               00000001800b8678     ucrt:api-ms-win-crt-string-l1-1-0.dll
 0002:00000680       \177api-ms-win-crt-string-l1-1-0_NULL_THUNK_DATA 00000001800b8680     ucrt:api-ms-win-crt-string-l1-1-0.dll
 0002:00000688       __imp_labs                 00000001800b8688     ucrt:api-ms-win-crt-utility-l1-1-0.dll
 0002:00000690       __imp_rand_s               00000001800b8690     ucrt:api-ms-win-crt-utility-l1-1-0.dll
 0002:00000698       \177api-ms-win-crt-utility-l1-1-0_NULL_THUNK_DATA 00000001800b8698     ucrt:api-ms-win-crt-utility-l1-1-0.dll
 0002:000006a0       __guard_check_icall_fptr   00000001800b86a0     MSVCRT:guard_support.obj
 0002:000006a8       __guard_xfg_check_icall_fptr 00000001800b86a8     MSVCRT:guard_support.obj
 0002:000006b0       __guard_dispatch_icall_fptr 00000001800b86b0     MSVCRT:guard_support.obj
 0002:000006b8       __guard_xfg_dispatch_icall_fptr 00000001800b86b8     MSVCRT:guard_support.obj
 0002:000006c0       __guard_xfg_table_dispatch_icall_fptr 00000001800b86c0     MSVCRT:guard_support.obj
 0002:000006c8       __castguard_check_failure_os_handled_fptr 00000001800b86c8     MSVCRT:guard_support.obj
 0002:000006d0       __guard_memcpy_fptr        00000001800b86d0     vcruntime:softmemtag.obj
 0002:000006d8       __xc_a                     00000001800b86d8     MSVCRT:initializers.obj
 0002:000009b8       __xc_z                     00000001800b89b8     MSVCRT:initializers.obj
 0002:000009c0       __xi_a                     00000001800b89c0     MSVCRT:initializers.obj
 0002:000009d0       __xi_z                     00000001800b89d0     MSVCRT:initializers.obj
 0002:000009d8       __xl_a                     00000001800b89d8     MSVCRT:tlssup.obj
 0002:000009e0       __xl_z                     00000001800b89e0     MSVCRT:tlssup.obj
 0002:000009e8       __xp_a                     00000001800b89e8     MSVCRT:initializers.obj
 0002:000009f0       __xp_z                     00000001800b89f0     MSVCRT:initializers.obj
 0002:000009f8       __xt_a                     00000001800b89f8     MSVCRT:initializers.obj
 0002:00000a00       __xt_z                     00000001800b8a00     MSVCRT:initializers.obj
 0002:00000a20       GUID_NULL                  00000001800b8a20     uuid:cguid_i.obj
 0002:00000a48       ??_7type_info@@6B@         00000001800b8a48     MSVCRT:std_type_info_static.obj
 0002:00000a50       ?nothrow@std@@3Unothrow_t@1@B 00000001800b8a50     MSVCRT:std_nothrow.obj
 0002:00000a58       _pDefaultRawDllMain        00000001800b8a58     MSVCRT:dll_dllmain.obj
 0002:00000a58       _pRawDllMain               00000001800b8a58     MSVCRT:dll_dllmain.obj
 0002:00000a68       ??_7exception@std@@6B@     00000001800b8a68     MSVCRT:throw_bad_alloc.obj
 0002:00000a80       ??_7bad_alloc@std@@6B@     00000001800b8a80     MSVCRT:throw_bad_alloc.obj
 0002:00000a90       ??_C@_0P@GHFPNOJB@bad?5allocation@ 00000001800b8a90     MSVCRT:throw_bad_alloc.obj
 0002:00000aa8       ??_7bad_array_new_length@std@@6B@ 00000001800b8aa8     MSVCRT:throw_bad_alloc.obj
 0002:00003010       __xmm@000102030405060708090a0b0c0d0e0f 00000001800bb010     msvcprt:vector_algorithms.obj
 0002:00003020       __ymm@000102030405060708090a0b0c0d0e0f000102030405060708090a0b0c0d0e0f 00000001800bb020     msvcprt:vector_algorithms.obj
 0002:000058c6       g_reparseDeferralEnabledDefault 00000001800bd8c6     xmlparse.obj
 0002:00006ba0       _length_code               00000001800beba0     trees.obj
 0002:00006ca0       _dist_code                 00000001800beca0     trees.obj
 0002:00007670       z_errmsg                   00000001800bf670     zutil.obj
 0002:000079a8       ?kXMPFiles_EmbeddedCopyright@@3PEBDEB 00000001800bf9a8     XMPFiles.obj
 0002:000079b0       ?kXMPFiles_EmbeddedVersion@@3PEBDEB 00000001800bf9b0     XMPFiles.obj
 0002:000079c0       ?kFileExtMap@@3QBUFileExtMapping@@B 00000001800bf9c0     XMPFiles_Impl.obj
 0002:00007e60       ?kKnownRejectedFiles@@3PAPEBDA 00000001800bfe60     XMPFiles_Impl.obj
 0002:00007f40       ?kKnownScannedFiles@@3PAPEBDA 00000001800bff40     XMPFiles_Impl.obj
 0002:00007ff0       ?kAIFCAnno@AIFF_MetaHandler@@0QBUChunkIdentifier@IFF_RIFF@@B 00000001800bfff0     AIFF_Handler.obj
 0002:00008000       ?kAIFFAnno@AIFF_MetaHandler@@0QBUChunkIdentifier@IFF_RIFF@@B 00000001800c0000     AIFF_Handler.obj
 0002:00008010       ?kAIFCName@AIFF_MetaHandler@@0QBUChunkIdentifier@IFF_RIFF@@B 00000001800c0010     AIFF_Handler.obj
 0002:00008020       ?kAIFFCpr@AIFF_MetaHandler@@0QBUChunkIdentifier@IFF_RIFF@@B 00000001800c0020     AIFF_Handler.obj
 0002:00008030       ?kAIFFName@AIFF_MetaHandler@@0QBUChunkIdentifier@IFF_RIFF@@B 00000001800c0030     AIFF_Handler.obj
 0002:00008040       ?kAIFCCpr@AIFF_MetaHandler@@0QBUChunkIdentifier@IFF_RIFF@@B 00000001800c0040     AIFF_Handler.obj
 0002:00008050       ?kAIFFAuth@AIFF_MetaHandler@@0QBUChunkIdentifier@IFF_RIFF@@B 00000001800c0050     AIFF_Handler.obj
 0002:00008060       ?kAIFCAuth@AIFF_MetaHandler@@0QBUChunkIdentifier@IFF_RIFF@@B 00000001800c0060     AIFF_Handler.obj
 0002:00008070       ?kAIFCXMP@AIFF_MetaHandler@@0QBUChunkIdentifier@IFF_RIFF@@B 00000001800c0070     AIFF_Handler.obj
 0002:00008080       ?kAIFFXMP@AIFF_MetaHandler@@0QBUChunkIdentifier@IFF_RIFF@@B 00000001800c0080     AIFF_Handler.obj
 0002:00009a40       ?kRIFFBext@WAVE_MetaHandler@@0QBUChunkIdentifier@IFF_RIFF@@B 00000001800c1a40     WAVE_Handler.obj
 0002:00009a50       ?kRIFFInfo@WAVE_MetaHandler@@0QBUChunkIdentifier@IFF_RIFF@@B 00000001800c1a50     WAVE_Handler.obj
 0002:00009a60       ?kRF64Disp@WAVE_MetaHandler@@0QBUChunkIdentifier@IFF_RIFF@@B 00000001800c1a60     WAVE_Handler.obj
 0002:00009a70       ?kRF64Bext@WAVE_MetaHandler@@0QBUChunkIdentifier@IFF_RIFF@@B 00000001800c1a70     WAVE_Handler.obj
 0002:00009a80       ?kRIFFCart@WAVE_MetaHandler@@0QBUChunkIdentifier@IFF_RIFF@@B 00000001800c1a80     WAVE_Handler.obj
 0002:00009a90       ?kRF64Cart@WAVE_MetaHandler@@0QBUChunkIdentifier@IFF_RIFF@@B 00000001800c1a90     WAVE_Handler.obj
 0002:00009aa0       ?kRF64iXML@WAVE_MetaHandler@@0QBUChunkIdentifier@IFF_RIFF@@B 00000001800c1aa0     WAVE_Handler.obj
 0002:00009ab0       ?kRIFFXMP@WAVE_MetaHandler@@0QBUChunkIdentifier@IFF_RIFF@@B 00000001800c1ab0     WAVE_Handler.obj
 0002:00009ac0       ?kRF64Info@WAVE_MetaHandler@@0QBUChunkIdentifier@IFF_RIFF@@B 00000001800c1ac0     WAVE_Handler.obj
 0002:00009ad0       ?kRIFFiXML@WAVE_MetaHandler@@0QBUChunkIdentifier@IFF_RIFF@@B 00000001800c1ad0     WAVE_Handler.obj
 0002:00009ae0       ?kRIFFDisp@WAVE_MetaHandler@@0QBUChunkIdentifier@IFF_RIFF@@B 00000001800c1ae0     WAVE_Handler.obj
 0002:00009af0       ?kRF64XMP@WAVE_MetaHandler@@0QBUChunkIdentifier@IFF_RIFF@@B 00000001800c1af0     WAVE_Handler.obj
 0002:0000b310       ?kIntellectualGenreMappings@@3QBUIntellectualGenreMapping@@B 00000001800c3310     IPTC_Support.obj
 0002:0000b710       ?kKnownDataSets@@3QBUDataSetCharacteristics@@B 00000001800c3710     IPTC_Support.obj
 0002:0000c658       ?CR8R_SIZE@RIFF@@3JA       00000001800c4658     RIFF_Support.obj
 0002:0000c65c       ?IDIT_SIZE@RIFF@@3JA       00000001800c465c     RIFF_Support.obj
 0002:0000c660       ?MIN_BEXT_SIZE@RIFF@@3JA   00000001800c4660     RIFF_Support.obj
 0002:0000c664       ?MAX_BEXT_SIZE@RIFF@@3JA   00000001800c4664     RIFF_Support.obj
 0002:0000c668       ?PRML_SIZE@RIFF@@3JA       00000001800c4668     RIFF_Support.obj
 0002:0000e128       ?kResourceName_UIDs@XMP_PLUGIN@@3PEBDEB 00000001800c6128     PluginManager.obj
 0002:0000e130       ?kLibraryExtensions@XMP_PLUGIN@@3PAPEBDA 00000001800c6130     PluginManager.obj
 0002:0000ff98       ??_C@_0BD@PJCBIDD@invalid?5block?5type@ 00000001800c7f98     infback.obj
 0002:0000ffb0       ??_C@_0BN@LGAADGOK@invalid?5stored?5block?5lengths@ 00000001800c7fb0     infback.obj
 0002:0000ffd0       ??_C@_0CE@GMIGFPBB@too?5many?5length?5or?5distance?5sym@ 00000001800c7fd0     infback.obj
 0002:0000fff8       ??_C@_0BJ@HDEPPGOH@invalid?5code?5lengths?5set@ 00000001800c7ff8     infback.obj
 0002:00010018       ??_C@_0BK@BMMPFBBH@invalid?5bit?5length?5repeat@ 00000001800c8018     infback.obj
 0002:00010038       ??_C@_0CF@DGDMADCD@invalid?5code?5?9?9?5missing?5end?9of?9@ 00000001800c8038     infback.obj
 0002:00010060       ??_C@_0BM@IIMGAINC@invalid?5literal?1lengths?5set@ 00000001800c8060     infback.obj
 0002:00010080       ??_C@_0BG@GMDFCBGP@invalid?5distances?5set@ 00000001800c8080     infback.obj
 0002:00010098       ??_C@_0BM@FFFLPBBC@invalid?5literal?1length?5code@ 00000001800c8098     infback.obj
 0002:000100b8       ??_C@_0BG@LBKINIKP@invalid?5distance?5code@ 00000001800c80b8     infback.obj
 0002:000100d0       ??_C@_0BO@ECPMAOGG@invalid?5distance?5too?5far?5back@ 00000001800c80d0     infback.obj
 0002:000100f0       ??_C@_0BH@LIBMMIGA@incorrect?5header?5check@ 00000001800c80f0     inflate.obj
 0002:00010108       ??_C@_0BL@IHKGDAEE@unknown?5compression?5method@ 00000001800c8108     inflate.obj
 0002:00010128       ??_C@_0BE@EMOGCLGO@invalid?5window?5size@ 00000001800c8128     inflate.obj
 0002:00010140       ??_C@_0BJ@BLBBCOMO@unknown?5header?5flags?5set@ 00000001800c8140     inflate.obj
 0002:00010160       ??_C@_0BE@GONKLEPM@header?5crc?5mismatch@ 00000001800c8160     inflate.obj
 0002:00010178       ??_C@_0BF@MEIGEHBE@incorrect?5data?5check@ 00000001800c8178     inflate.obj
 0002:00010190       ??_C@_0BH@FGKKJGOC@incorrect?5length?5check@ 00000001800c8190     inflate.obj
 0002:000101a8       ??_C@_0BA@MOKMMFOD@need?5dictionary@ 00000001800c81a8     zutil.obj
 0002:000101b8       ??_C@_0L@FNAOCBOG@stream?5end@ 00000001800c81b8     zutil.obj
 0002:000101c3       ??_C@_00CNPNBAHC@@         00000001800c81c3     zutil.obj
 0002:000101c8       ??_C@_0L@KIJFAKBJ@file?5error@ 00000001800c81c8     zutil.obj
 0002:000101d8       ??_C@_0N@MKKNPMJD@stream?5error@ 00000001800c81d8     zutil.obj
 0002:000101e8       ??_C@_0L@HAHMBNLP@data?5error@ 00000001800c81e8     zutil.obj
 0002:000101f8       ??_C@_0BE@OGGJBMCE@insufficient?5memory@ 00000001800c81f8     zutil.obj
 0002:00010210       ??_C@_0N@DFPGLBGC@buffer?5error@ 00000001800c8210     zutil.obj
 0002:00010220       ??_C@_0BF@CJFPCCEG@incompatible?5version@ 00000001800c8220     zutil.obj
 0002:00010238       ??_C@_0BC@EOODALEL@Unknown?5exception@ 00000001800c8238     IReconcile.obj
 0002:00010250       ??_C@_0BF@KINCDENJ@bad?5array?5new?5length@ 00000001800c8250     IReconcile.obj
 0002:00010268       ??_C@_0BA@JFNIOLAK@string?5too?5long@ 00000001800c8268     IReconcile.obj
 0002:00010278       ??_C@_0BB@GCADKGJO@map?1set?5too?5long@ 00000001800c8278     IReconcile.obj
 0002:00010290       ??_C@_0L@CCBFPMDD@?5?5?5?5?5?5?5?5?5?5@ 00000001800c8290     IReconcile.obj
 0002:000102a0       ??_C@_0BB@FLJEKHKC@?$DM?$DPxpacket?5begin?$DN@ 00000001800c82a0     IReconcile.obj
 0002:000102b8       ??_C@_0BJ@IPGHFDDK@W5M0MpCehiHzreSzNTczkc9d@ 00000001800c82b8     IReconcile.obj
 0002:000102e0       ??_C@_0BB@JGGOGLEG@0123456789ABCDEF@ 00000001800c82e0     IReconcile.obj
 0002:000102f8       ??_C@_09CLPKJGLA@x?9default@ 00000001800c82f8     IReconcile.obj
 0002:00010308       ??_C@_0BG@HKHKILFD@Unknown?5XMP?5data?5type@ 00000001800c8308     IReconcile.obj
 0002:00010320       ??_C@_04FCIJFPNK@?$CFllu@  00000001800c8320     IReconcile.obj
 0002:00010328       ??_C@_03FKNCMABI@?$CFlu@   00000001800c8328     IReconcile.obj
 0002:00010330       ??_C@_0BJ@KKFJIIMH@Unknown?5native?5data?5type@ 00000001800c8330     IReconcile.obj
 0002:00010350       ??_C@_0BD@PLFNPHCL@Invalid?5identifier@ 00000001800c8350     IReconcile.obj
 0002:00010368       ??_C@_0BI@CFPLBAOH@invalid?5string?5position@ 00000001800c8368     IReconcile.obj
 0002:00010380       ??_C@_0BA@FOIKENOD@vector?5too?5long@ 00000001800c8380     IReconcile.obj
 0002:00010398       ??_7?$TValueObject@K@@6B@  00000001800c8398     IReconcile.obj
 0002:000103a8       ??_7?$TValueObject@V?$basic_string@DU?$char_traits@D@std@@V?$allocator@D@2@@std@@@@6B@ 00000001800c83a8     IReconcile.obj
 0002:000103b8       ??_7?$TValueObject@_K@@6B@ 00000001800c83b8     IReconcile.obj
 0002:000103c8       ??_7ValueObject@@6B@       00000001800c83c8     IReconcile.obj
 0002:000103d8       ??_7?$TValueObject@G@@6B@  00000001800c83d8     IReconcile.obj
 0002:000103e8       ??_7?$TValueObject@_N@@6B@ 00000001800c83e8     IReconcile.obj
 0002:000103f8       ??_7?$TValueObject@J@@6B@  00000001800c83f8     IReconcile.obj
 0002:00010408       ??_7LittleEndian@@6B@      00000001800c8408     IReconcile.obj
 0002:00010468       ??_7IEndian@@6B@           00000001800c8468     IReconcile.obj
 0002:000104c0       ??_C@_0BJ@DHFDPMIM@invalid?5vector?5subscript@ 00000001800c84c0     MetadataSet.obj
 0002:000104e0       ??_C@_0CE@PLJALPCM@Incomplete?5Unicode?5at?5end?5of?5st@ 00000001800c84e0     UnicodeConversions.obj
 0002:00010508       ??_C@_0BK@MBBLNICM@Bad?5UTF?932?5?9?5out?5of?5range@ 00000001800c8508     UnicodeConversions.obj
 0002:00010528       ??_C@_0CC@GJKPIFKH@Bad?5UTF?932?5?9?5surrogate?5code?5poi@ 00000001800c8528     UnicodeConversions.obj
 0002:00010550       ??_C@_0BO@HJPPCLJN@Invalid?5UTF?98?5sequence?5length@ 00000001800c8550     UnicodeConversions.obj
 0002:00010570       ??_C@_0BI@GNCOKLLJ@Invalid?5UTF?98?5data?5byte@ 00000001800c8570     UnicodeConversions.obj
 0002:00010588       ??_C@_0CB@CGOIBEBG@Bad?5UTF?98?5?9?5surrogate?5code?5poin@ 00000001800c8588     UnicodeConversions.obj
 0002:000105b0       ??_C@_0BJ@OPHKDNOD@Bad?5UTF?98?5?9?5out?5of?5range@ 00000001800c85b0     UnicodeConversions.obj
 0002:000105d0       ??_C@_0CD@BAGDPDLH@Bad?5UTF?916?5?9?5leading?5low?5surrog@ 00000001800c85d0     UnicodeConversions.obj
 0002:000105f8       ??_C@_0CD@EDDEPHFC@Bad?5UTF?916?5?9?5missing?5low?5surrog@ 00000001800c85f8     UnicodeConversions.obj
 0002:00010620       ??_C@_0M@EGHAPGKC@?$CF?$CBPS?9Adobe?9@ 00000001800c8620     HandlerRegistry.obj
 0002:00010630       ??_C@_0BC@LDBBDOGH@?$CFADO_ContainsXMP?3@ 00000001800c8630     HandlerRegistry.obj
 0002:00010648       ??_C@_0P@CDILBPNM@?$CF?$CFBoundingBox?3@ 00000001800c8648     HandlerRegistry.obj
 0002:00010658       ??_C@_0BB@JDAOKBFB@?$CF?$CFBeginDocument?3@ 00000001800c8658     HandlerRegistry.obj
 0002:00010670       ??_C@_0O@LEPIHFLM@?$CF?$CFEndDocument@ 00000001800c8670     HandlerRegistry.obj
 0002:00010680       ??_C@_09KCJDDHAI@?$CF?$CFTrailer@ 00000001800c8680     HandlerRegistry.obj
 0002:00010690       ??_C@_0L@MEEAHAJN@?$CF?$CFCreator?3@ 00000001800c8690     HandlerRegistry.obj
 0002:000106a0       ??_C@_0BA@GBOILKJN@?$CF?$CFCreationDate?3@ 00000001800c86a0     HandlerRegistry.obj
 0002:000106b0       ??_C@_06GOFNIKME@?$CF?$CFFor?3@ 00000001800c86b0     HandlerRegistry.obj
 0002:000106b8       ??_C@_08IOHAAKLP@?$CF?$CFTitle?3@ 00000001800c86b8     HandlerRegistry.obj
 0002:000106c8       ??_C@_07IMIPNFOJ@?$CIatend?$CJ@ 00000001800c86c8     HandlerRegistry.obj
 0002:000106d0       ??_C@_0O@NGKCJPHP@?$CF?$CFEndComments@ 00000001800c86d0     HandlerRegistry.obj
 0002:000106e0       ??_C@_08PPDIKAOI@?1DOCINFO@ 00000001800c86e0     HandlerRegistry.obj
 0002:000106f0       ??_C@_07KEJNBIHP@pdfmark@  00000001800c86f0     HandlerRegistry.obj
 0002:000106f8       ??_C@_0BN@LJNBFJGE@?$CFADO_ContainsXMP?3?5MainFirst?6@ 00000001800c86f8     HandlerRegistry.obj
 0002:00010718       ??_C@_0BM@MKPMMJFH@?$CFADO_ContainsXMP?3?5MainLast?6@ 00000001800c8718     HandlerRegistry.obj
 0002:00010740       ??_C@_0CME@NKMADCJ@?6?1currentdistillerparams?5where?6@ 00000001800c8740     HandlerRegistry.obj
 0002:00010a10       ??_C@_0CLI@BCEKFK@?6?1currentdistillerparams?5where?6@ 00000001800c8a10     HandlerRegistry.obj
 0002:00010cd0       ??_C@_0KK@HCKDKKGA@?6?$CF?5?$CG?$CGend?5EPS?5XMP?5packet?5marker?$CG@ 00000001800c8cd0     HandlerRegistry.obj
 0002:00010d80       ??_C@_0IA@FMBLIMBD@?6?$CF?5?$CG?$CGend?5PS?5XMP?5packet?5marker?$CG?$CG@ 00000001800c8d80     HandlerRegistry.obj
 0002:00010e00       ??_C@_0PC@PKPPMEOD@?6?1currentdistillerparams?5where?6@ 00000001800c8e00     HandlerRegistry.obj
 0002:00010ef4       ??_C@_04DCLMCGOF@CLIP@     00000001800c8ef4     HandlerRegistry.obj
 0002:00010efc       ??_C@_05NEMPFMAF@VIDEO@    00000001800c8efc     HandlerRegistry.obj
 0002:00010f04       ??_C@_05GGBGONMB@AUDIO@    00000001800c8f04     HandlerRegistry.obj
 0002:00010f0c       ??_C@_04PAKDGNHP@ICON@     00000001800c8f0c     HandlerRegistry.obj
 0002:00010f14       ??_C@_05FHIHOFEA@VOICE@    00000001800c8f14     HandlerRegistry.obj
 0002:00010f1c       ??_C@_05MKMBBLHO@PROXY@    00000001800c8f1c     HandlerRegistry.obj
 0002:00010f28       ??_C@_0CN@LLPHMGKC@Failure?5initializing?5linked?9in?5@ 00000001800c8f28     HandlerRegistry.obj
 0002:00010f58       ??_C@_04BMCEDOKO@EDIT@     00000001800c8f58     HandlerRegistry.obj
 0002:00010f60       ??_C@_03KPDLEBHD@SUB@      00000001800c8f60     HandlerRegistry.obj
 0002:00010f68       ??_C@_08JMIEDANL@CONTENTS@ 00000001800c8f68     HandlerRegistry.obj
 0002:00010f74       ??_C@_04DPEHOLJJ@Clip@     00000001800c8f74     HandlerRegistry.obj
 0002:00010f80       ??_C@_0N@CEJJMCFI@MEDIAPRO?4XML@ 00000001800c8f80     HandlerRegistry.obj
 0002:00010f90       ??_C@_05FOKOJPEO@PROAV@    00000001800c8f90     HandlerRegistry.obj
 0002:00010f98       ??_C@_04BDHNNMJI@CLPR@     00000001800c8f98     HandlerRegistry.obj
 0002:00010fa0       ??_C@_04ENFKBBEM@BPAV@     00000001800c8fa0     HandlerRegistry.obj
 0002:00010fa8       ??_C@_03GAKHDNOF@HVR@      00000001800c8fa8     HandlerRegistry.obj
 0002:00010fac       ??_C@_04FOIAKJAL@EDTR@     00000001800c8fac     HandlerRegistry.obj
 0002:00010fb8       ??_C@_0CH@PGNMDDFN@Failure?5from?5QueryPerformanceFr@ 00000001800c8fb8     PerfUtils.obj
 0002:00010fe0       ??_C@_0CF@IACAOIFJ@Failure?5from?5QueryPerformanceCo@ 00000001800c8fe0     PerfUtils.obj
 0002:00011008       ??_C@_03BCPLEEGJ@XMP@      00000001800c9008     WXMPFiles.obj
 0002:00011010       ??_C@_0BJ@BBJEMODG@Caught?5unknown?5exception@ 00000001800c9010     WXMPFiles.obj
 0002:00011030       ??_C@_0DA@NJNFKPPB@An?5result?5resource?5list?5vector?5@ 00000001800c9030     WXMPFiles.obj
 0002:00011060       ??_C@_0ID@NHCCKGHH@XMP_Enforce?5failed?3?5?$CInewContent@ 00000001800c9060     XIO.obj
 0002:000110e8       ??_C@_0BG@JDNILOBD@XIO?3?3Copy?0?5user?5abort@ 00000001800c90e8     XIO.obj
 0002:00011100       ??_C@_04NBFCGMPH@root@     00000001800c9100     XML_Node.obj
 0002:00011108       ??_C@_04IHLAKEEF@elem@     00000001800c9108     XML_Node.obj
 0002:00011110       ??_C@_04DHCDLKCM@attr@     00000001800c9110     XML_Node.obj
 0002:00011118       ??_C@_05GLPICJ@cdata@      00000001800c9118     XML_Node.obj
 0002:00011120       ??_C@_02OAHAJOFD@pi@       00000001800c9120     XML_Node.obj
 0002:00011124       ??_C@_02KNHHEEKP@?5?5@     00000001800c9124     XML_Node.obj
 0002:00011128       ??_C@_02DPKJAMEF@?$CFd@    00000001800c9128     XML_Node.obj
 0002:0001112c       ??_C@_01EEMJAFIK@?6@       00000001800c912c     XML_Node.obj
 0002:00011130       ??_C@_07ENFJFPDO@_dflt_?3@ 00000001800c9130     XML_Node.obj
 0002:00011138       ??_C@_02HCGKDMEN@?1?$DO@   00000001800c9138     XML_Node.obj
 0002:0001113c       ??_C@_02DPNDACHE@?$DM?1@   00000001800c913c     XML_Node.obj
 0002:00011140       ??_C@_02ILLPBGAO@?$DN?$CC@ 00000001800c9140     XML_Node.obj
 0002:00011148       ??_C@_0CI@FMJEECLD@?$DM?$DPxml?5version?$DN?$CC1?40?$CC?5encoding?$DN?$CCU@ 00000001800c9148     XML_Node.obj
 0002:00011170       ??_C@_06BMFGKBOJ@?5xmlns@  00000001800c9170     XML_Node.obj
 0002:00011178       ??_C@_06CNDCLPNC@_dflt_@   00000001800c9178     XML_Node.obj
 0002:00011188       ??_7XML_Node@@6B@          00000001800c9188     XML_Node.obj
 0002:00011190       ??_C@_0P@LPPFNPIH@Empty?5XML?5name@ 00000001800c9190     XMP_LibUtils.obj
 0002:000111a0       ??_C@_0N@DDPFOLCC@Bad?5XML?5name@ 00000001800c91a0     XMP_LibUtils.obj
 0002:000111b0       ??_C@_0HH@CJDPAHFM@XMP_Enforce?5failed?3?5?$CIthis?9?$DOqueu@ 00000001800c91b0     XMP_LibUtils.obj
 0002:00011228       ??_C@_0CB@EBGGKKNC@Failure?5from?5WaitForSingleObjec@ 00000001800c9228     XMP_LibUtils.obj
 0002:00011250       ??_C@_0BG@NONKFMIC@Failure?5from?5SetEvent@ 00000001800c9250     XMP_LibUtils.obj
 0002:00011268       ??_C@_01PPODPGHN@?$DO@     00000001800c9268     XMP_LibUtils.obj
 0002:0001126c       ??_C@_01CLKCMJKC@?5@       00000001800c926c     XMP_LibUtils.obj
 0002:00011270       ??_C@_05EMMJJDKK@_?$CFd_?3@ 00000001800c9270     XMP_LibUtils.obj
 0002:00011280       ??_7XMP_NamespaceTable@@6B@ 00000001800c9280     XMP_LibUtils.obj
 0002:00011288       ??_C@_0CO@KLGKHGDO@Abort?5signaled?5by?5progress?5repo@ 00000001800c9288     XMP_ProgressTracker.obj
 0002:000112b8       ??_C@_0BA@HPGIIPKC@XMP?5Files?56?40?40@ 00000001800c92b8     XMPFiles.obj
 0002:000112c8       ??_C@_0BN@DACMOLDO@XMP?5Files?5Copyright?5?$CIc?$CJ?52022@ 00000001800c92c8     XMPFiles.obj
 0002:000112e8       ??_C@_0DJ@LAEPELMO@XMPFiles?3?5Unable?5to?5allocate?5me@ 00000001800c92e8     XMPFiles.obj
 0002:00011328       ??_C@_0BO@KPOBKMDO@XMPFiles?3?5file?5does?5not?5exist@ 00000001800c9328     XMPFiles.obj
 0002:00011348       ??_C@_0CH@EGJOIHPC@XMPFiles?3?5path?5specified?5is?5not@ 00000001800c9348     XMPFiles.obj
 0002:00011370       ??_C@_0CM@MFOPBONA@XMPFiles?3?5rejected?5file?5extensi@ 00000001800c9370     XMPFiles.obj
 0002:000113a0       ??_C@_0DJ@BEAOBCAH@XMPFiles?3?5No?5smart?5file?5handler@ 00000001800c93a0     XMPFiles.obj
 0002:000113e0       ??_C@_0DM@HKMBKEAB@Boolean?5parameter?5is?5required?5f@ 00000001800c93e0     XMPFiles.obj
 0002:00011420       ??_C@_0CK@OAFKLMCO@OptimizeFileLayout?5requires?5Ope@ 00000001800c9420     XMPFiles.obj
 0002:00011450       ??_C@_0BC@NHJPFAKF@File?5already?5open@ 00000001800c9450     XMPFiles.obj
 0002:00011468       ??_C@_0BM@CEBOPBOB@Open?0?5file?5permission?5error@ 00000001800c9468     XMPFiles.obj
 0002:00011488       ??_C@_0DA@CDEFPGCO@XMPFiles?3?3CloseFile?5?9?5Safe?5upda@ 00000001800c9488     XMPFiles.obj
 0002:000114b8       ??_C@_0CI@NJAFAAME@XMPFiles?3?3CloseFile?0?5cannot?5cre@ 00000001800c94b8     XMPFiles.obj
 0002:000114e0       ??_C@_0CA@PNNDNBKM@XMPFiles?3?3GetXMP?5?9?5No?5open?5file@ 00000001800c94e0     XMPFiles.obj
 0002:00011500       ??_C@_0CA@HKBJLHEB@XMPFiles?3?3PutXMP?5?9?5No?5open?5file@ 00000001800c9500     XMPFiles.obj
 0002:00011520       ??_C@_0CH@BIJGGHDB@XMPFiles?3?3PutXMP?5?9?5Not?5open?5for@ 00000001800c9520     XMPFiles.obj
 0002:00011548       ??_C@_0CE@OMNELNGF@XMPFiles?3?3PutXMP?5?9?5Can?8t?5inject@ 00000001800c9548     XMPFiles.obj
 0002:00011570       ??_C@_0CO@KEEIABFC@XMPFiles?3?3PutXMP?5?9?5No?5standard?5@ 00000001800c9570     XMPFiles.obj
 0002:000115a0       ??_C@_0CD@PFMPFKDD@XMPFiles?3?3CanPutXMP?5?9?5No?5open?5f@ 00000001800c95a0     XMPFiles.obj
 0002:000115d0       ??_7ErrorCallbackInfo@XMPFiles@@6B@ 00000001800c95d0     XMPFiles.obj
 0002:000115f0       ??_7GenericErrorCallback@@6B@ 00000001800c95f0     XMPFiles.obj
 0002:00011610       ??_7XMPFiles@@6B@          00000001800c9610     XMPFiles.obj
 0002:00011618       ??_C@_03MJPNCPKC@pdf@      00000001800c9618     XMPFiles_Impl.obj
 0002:0001161c       ??_C@_02FAFNGEII@ps@       00000001800c961c     XMPFiles_Impl.obj
 0002:00011620       ??_C@_03ICKAGFLH@eps@      00000001800c9620     XMPFiles_Impl.obj
 0002:00011624       ??_C@_03PEGNKCLE@jpg@      00000001800c9624     XMPFiles_Impl.obj
 0002:00011628       ??_C@_04OFMADDDJ@jpeg@     00000001800c9628     XMPFiles_Impl.obj
 0002:00011630       ??_C@_03DJDHKMCK@jpx@      00000001800c9630     XMPFiles_Impl.obj
 0002:00011634       ??_C@_03EOEHCLKG@tif@      00000001800c9634     XMPFiles_Impl.obj
 0002:00011638       ??_C@_04MFMINNH@tiff@      00000001800c9638     XMPFiles_Impl.obj
 0002:00011640       ??_C@_03CAKFLPN@dng@       00000001800c9640     XMPFiles_Impl.obj
 0002:00011644       ??_C@_03MOLNDNH@gif@       00000001800c9644     XMPFiles_Impl.obj
 0002:00011648       ??_C@_04CLBMGAIF@giff@     00000001800c9648     XMPFiles_Impl.obj
 0002:00011650       ??_C@_03NNHBJLDF@png@      00000001800c9650     XMPFiles_Impl.obj
 0002:00011654       ??_C@_03MFCIJNGF@swf@      00000001800c9654     XMPFiles_Impl.obj
 0002:00011658       ??_C@_03PIFOGEAI@flv@      00000001800c9658     XMPFiles_Impl.obj
 0002:0001165c       ??_C@_03CJIAIMAL@aif@      00000001800c965c     XMPFiles_Impl.obj
 0002:00011660       ??_C@_03CNBJFNFA@mov@      00000001800c9660     XMPFiles_Impl.obj
 0002:00011664       ??_C@_03LJGCHEIJ@avi@      00000001800c9664     XMPFiles_Impl.obj
 0002:00011668       ??_C@_03ELFAMOII@cin@      00000001800c9668     XMPFiles_Impl.obj
 0002:0001166c       ??_C@_03BICDMHKB@wav@      00000001800c966c     XMPFiles_Impl.obj
 0002:00011670       ??_C@_03LHGNACFN@mp3@      00000001800c9670     XMPFiles_Impl.obj
 0002:00011674       ??_C@_03PICMJEJK@mp4@      00000001800c9674     XMPFiles_Impl.obj
 0002:00011678       ??_C@_03ENPAJMAB@m4v@      00000001800c9678     XMPFiles_Impl.obj
 0002:0001167c       ??_C@_03EIHDBIJH@m4a@      00000001800c967c     XMPFiles_Impl.obj
 0002:00011680       ??_C@_03JKPBBLAA@f4v@      00000001800c9680     XMPFiles_Impl.obj
 0002:00011684       ??_C@_03FOICNDPP@3gp@      00000001800c9684     XMPFiles_Impl.obj
 0002:00011688       ??_C@_03JMMNPOHI@3g2@      00000001800c9688     XMPFiles_Impl.obj
 0002:0001168c       ??_C@_03HAAONBNK@crm@      00000001800c968c     XMPFiles_Impl.obj
 0002:00011690       ??_C@_03ONDPAMGP@ses@      00000001800c9690     XMPFiles_Impl.obj
 0002:00011694       ??_C@_03HAHMFFGO@cel@      00000001800c9694     XMPFiles_Impl.obj
 0002:00011698       ??_C@_03BELKLKFD@wma@      00000001800c9698     XMPFiles_Impl.obj
 0002:0001169c       ??_C@_03BBDJDOMF@wmv@      00000001800c969c     XMPFiles_Impl.obj
 0002:000116a0       ??_C@_03HOLCPKPE@mxf@      00000001800c96a0     XMPFiles_Impl.obj
 0002:000116a4       ??_C@_03DIDBLNJO@r3d@      00000001800c96a4     XMPFiles_Impl.obj
 0002:000116a8       ??_C@_03GJLKJKAN@mpg@      00000001800c96a8     XMPFiles_Impl.obj
 0002:000116ac       ??_C@_04FHOAOPCJ@mpeg@     00000001800c96ac     XMPFiles_Impl.obj
 0002:000116b4       ??_C@_03KOHGDDBM@mp2@      00000001800c96b4     XMPFiles_Impl.obj
 0002:000116b8       ??_C@_03FFONCNID@mod@      00000001800c96b8     XMPFiles_Impl.obj
 0002:000116bc       ??_C@_03EJHNOALD@m2v@      00000001800c96bc     XMPFiles_Impl.obj
 0002:000116c0       ??_C@_03DPOADNIL@mpa@      00000001800c96c0     XMPFiles_Impl.obj
 0002:000116c4       ??_C@_03DKGDLJBN@mpv@      00000001800c96c4     XMPFiles_Impl.obj
 0002:000116c8       ??_C@_03BPCHEHDF@m2p@      00000001800c96c8     XMPFiles_Impl.obj
 0002:000116cc       ??_C@_03EMPOGECF@m2a@      00000001800c96cc     XMPFiles_Impl.obj
 0002:000116d0       ??_C@_03HLELICDB@m2t@      00000001800c96d0     XMPFiles_Impl.obj
 0002:000116d4       ??_C@_03FLIMPIIP@mpe@      00000001800c96d4     XMPFiles_Impl.obj
 0002:000116d8       ??_C@_03IEKPFKJL@vob@      00000001800c96d8     XMPFiles_Impl.obj
 0002:000116dc       ??_C@_06BKFPDGHE@ms?9pvr@  00000001800c96dc     XMPFiles_Impl.obj
 0002:000116e4       ??_C@_06FFEGBAKB@dvr?9ms@  00000001800c96e4     XMPFiles_Impl.obj
 0002:000116ec       ??_C@_04JFLBPLJE@heic@     00000001800c96ec     XMPFiles_Impl.obj
 0002:000116f4       ??_C@_04OIMGAPNB@heif@     00000001800c96f4     XMPFiles_Impl.obj
 0002:000116fc       ??_C@_04FPBHNLJE@avc1@     00000001800c96fc     XMPFiles_Impl.obj
 0002:00011704       ??_C@_04PNIFHPHN@html@     00000001800c9704     XMPFiles_Impl.obj
 0002:0001170c       ??_C@_03PJHHNEEI@xml@      00000001800c970c     XMPFiles_Impl.obj
 0002:00011710       ??_C@_03CLFHJCDC@txt@      00000001800c9710     XMPFiles_Impl.obj
 0002:00011714       ??_C@_04CIMGMMMG@text@     00000001800c9714     XMPFiles_Impl.obj
 0002:0001171c       ??_C@_03NNPBMGBD@svg@      00000001800c971c     XMPFiles_Impl.obj
 0002:00011720       ??_C@_03OCKCPINF@psd@      00000001800c9720     XMPFiles_Impl.obj
 0002:00011724       ??_C@_02PNJEFHBE@ai@       00000001800c9724     XMPFiles_Impl.obj
 0002:00011728       ??_C@_04DIEJFALB@indd@     00000001800c9728     XMPFiles_Impl.obj
 0002:00011730       ??_C@_04HCILECOA@indt@     00000001800c9730     XMPFiles_Impl.obj
 0002:00011738       ??_C@_03DMACMALI@aep@      00000001800c9738     XMPFiles_Impl.obj
 0002:0001173c       ??_C@_04CCGAMKIA@aepx@     00000001800c973c     XMPFiles_Impl.obj
 0002:00011744       ??_C@_03FIGOAFLM@aet@      00000001800c9744     XMPFiles_Impl.obj
 0002:00011748       ??_C@_03GLEKMMFA@ffx@      00000001800c9748     XMPFiles_Impl.obj
 0002:0001174c       ??_C@_04GIMOAOEK@ncor@     00000001800c974c     XMPFiles_Impl.obj
 0002:00011754       ??_C@_06CMGMNLII@prproj@   00000001800c9754     XMPFiles_Impl.obj
 0002:0001175c       ??_C@_04JLIJGEBN@prtl@     00000001800c975c     XMPFiles_Impl.obj
 0002:00011764       ??_C@_03PLGMMJBF@ucf@      00000001800c9764     XMPFiles_Impl.obj
 0002:00011768       ??_C@_03PFCCDLKJ@xfl@      00000001800c9768     XMPFiles_Impl.obj
 0002:0001176c       ??_C@_06CMCAMLKA@pdfxml@   00000001800c976c     XMPFiles_Impl.obj
 0002:00011774       ??_C@_04IIICLNHD@mars@     00000001800c9774     XMPFiles_Impl.obj
 0002:0001177c       ??_C@_04JAPMABFC@idml@     00000001800c977c     XMPFiles_Impl.obj
 0002:00011784       ??_C@_04HPJBKFGL@idap@     00000001800c9784     XMPFiles_Impl.obj
 0002:0001178c       ??_C@_04OCEGJNNC@icap@     00000001800c978c     XMPFiles_Impl.obj
 0002:00011794       ??_C@_03FBHEPMNI@ait@      00000001800c9794     XMPFiles_Impl.obj
 0002:00011798       ??_C@_03DNDKINLO@inx@      00000001800c9798     XMPFiles_Impl.obj
 0002:0001179c       ??_C@_04DNMKNECH@inds@     00000001800c979c     XMPFiles_Impl.obj
 0002:000117a4       ??_C@_04KEPOEHNC@inpk@     00000001800c97a4     XMPFiles_Impl.obj
 0002:000117ac       ??_C@_04DNAGEGDE@incd@     00000001800c97ac     XMPFiles_Impl.obj
 0002:000117b4       ??_C@_04HHMEFEGF@inct@     00000001800c97b4     XMPFiles_Impl.obj
 0002:000117bc       ??_C@_04NLHBBLGJ@incx@     00000001800c97bc     XMPFiles_Impl.obj
 0002:000117c4       ??_C@_02JMLHIEJF@fm@       00000001800c97c4     XMPFiles_Impl.obj
 0002:000117c8       ??_C@_04HMOIPFOL@book@     00000001800c97c8     XMPFiles_Impl.obj
 0002:000117d0       ??_C@_04NCLDJOL@icml@      00000001800c97d0     XMPFiles_Impl.obj
 0002:000117d8       ??_C@_04IPDAKBLC@icmt@     00000001800c97d8     XMPFiles_Impl.obj
 0002:000117e0       ??_C@_04FNKGAPMM@idms@     00000001800c97e0     XMPFiles_Impl.obj
 0002:000117e8       ??_C@_03ENCNJAEB@cr2@      00000001800c97e8     XMPFiles_Impl.obj
 0002:000117ec       ??_C@_03LGJBFHMN@erf@      00000001800c97ec     XMPFiles_Impl.obj
 0002:000117f0       ??_C@_03LPALPDIP@fff@      00000001800c97f0     XMPFiles_Impl.obj
 0002:000117f4       ??_C@_03DNGHCOLK@dcr@      00000001800c97f4     XMPFiles_Impl.obj
 0002:000117f8       ??_C@_03DDJCALHJ@kdc@      00000001800c97f8     XMPFiles_Impl.obj
 0002:000117fc       ??_C@_03FAGOKJBF@mos@      00000001800c97fc     XMPFiles_Impl.obj
 0002:00011800       ??_C@_03DLNDFHJO@mfw@      00000001800c9800     XMPFiles_Impl.obj
 0002:00011804       ??_C@_03GKEMMKNH@mef@      00000001800c9804     XMPFiles_Impl.obj
 0002:00011808       ??_C@_03DGOGAGNC@raw@      00000001800c9808     XMPFiles_Impl.obj
 0002:0001180c       ??_C@_03HIPJGFDJ@nef@      00000001800c980c     XMPFiles_Impl.obj
 0002:00011810       ??_C@_03NJCMLHKJ@orf@      00000001800c9810     XMPFiles_Impl.obj
 0002:00011814       ??_C@_03MIDPEFJF@pef@      00000001800c9814     XMPFiles_Impl.obj
 0002:00011818       ??_C@_03GKCKODIK@arw@      00000001800c9818     XMPFiles_Impl.obj
 0002:0001181c       ??_C@_03BNDEMHNO@sr2@      00000001800c981c     XMPFiles_Impl.obj
 0002:00011820       ??_C@_03MDODFPIO@srf@      00000001800c9820     XMPFiles_Impl.obj
 0002:00011824       ??_C@_03EAPGDPPD@sti@      00000001800c9824     XMPFiles_Impl.obj
 0002:00011828       ??_C@_03GNHGNLEK@3fr@      00000001800c9828     XMPFiles_Impl.obj
 0002:0001182c       ??_C@_03IHHLBCIK@rwl@      00000001800c982c     XMPFiles_Impl.obj
 0002:00011830       ??_C@_03MACDCLAB@crw@      00000001800c9830     XMPFiles_Impl.obj
 0002:00011834       ??_C@_04GPPCLEMM@sraw@     00000001800c9834     XMPFiles_Impl.obj
 0002:0001183c       ??_C@_03CAPMFMDC@mrw@      00000001800c983c     XMPFiles_Impl.obj
 0002:00011840       ??_C@_03DCEJPDNM@nrw@      00000001800c9840     XMPFiles_Impl.obj
 0002:00011844       ??_C@_03KDEDGCFA@rw2@      00000001800c9844     XMPFiles_Impl.obj
 0002:00011848       ??_C@_03OCKCOPOG@c3f@      00000001800c9848     XMPFiles_Impl.obj
 0002:0001184c       ??_C@_03HCOFLFO@air@       00000001800c984c     XMPFiles_Impl.obj
 0002:00011850       ??_C@_02CMMAIFEF@?$PO?$PP@ 00000001800c9850     XMPFiles_Impl.obj
 0002:00011854       ??_C@_02DEBJNODD@?$PP?$PO@ 00000001800c9854     XMPFiles_Impl.obj
 0002:00011858       ??_C@_0P@MFKAMPBO@?$DM?$DPxpacket?5end?$DN@ 00000001800c9858     XMPFiles_Impl.obj
 0002:00011868       ??_C@_0BN@CEOLBBIJ@?$DM?$AA?$DP?$AAx?$AAp?$AAa?$AAc?$AAk?$AAe?$AAt?$AA?5?$AAe?$AAn?$AAd?$AA?$DN?$AA@ 00000001800c9868     XMPFiles_Impl.obj
 0002:00011888       ??_C@_0DJ@JACMDNGK@?$DM?$AA?$AA?$AA?$DP?$AA?$AA?$AAx?$AA?$AA?$AAp?$AA?$AA?$AAa?$AA?$AA?$AAc?$AA?$AA?$AAk?$AA?$AA?$AAe?$AA?$AA@ 00000001800c9888     XMPFiles_Impl.obj
 0002:000118c8       ??_C@_0BO@PDFBGPF@ReadXMPPacket?5?9?5No?5XMP?5packet@ 00000001800c98c8     XMPFiles_Impl.obj
 0002:000118f0       ??_C@_0EK@MPAEDNGK@Base?5implementation?5of?5GetFileM@ 00000001800c98f0     XMPFiles_Impl.obj
 0002:00011940       ??_C@_0DH@GGHLFGDJ@GetFileModDate?5cannot?5be?5used?5w@ 00000001800c9940     XMPFiles_Impl.obj
 0002:00011980       ??_C@_0EN@BMAEDCHO@Base?5implementation?5of?5FillMeta@ 00000001800c9980     XMPFiles_Impl.obj
 0002:000119d0       ??_C@_0DK@PEJPJLEH@FillMetadataFiles?5cannot?5be?5use@ 00000001800c99d0     XMPFiles_Impl.obj
 0002:00011a10       ??_C@_0DP@HMPBNOCO@GetAssociatedResources?5is?5not?5i@ 00000001800c9a10     XMPFiles_Impl.obj
 0002:00011a50       ??_C@_0DP@LLOGFKKC@GetAssociatedResources?5cannot?5b@ 00000001800c9a50     XMPFiles_Impl.obj
 0002:00011a90       ??_C@_0DL@GHNFLJJC@IsMetadataWritable?5is?5not?5imple@ 00000001800c9a90     XMPFiles_Impl.obj
 0002:00011ad0       ??_C@_0DL@KAMCDNBO@IsMetadataWritable?5cannot?5be?5us@ 00000001800c9ad0     XMPFiles_Impl.obj
 0002:00011b10       ??_C@_0DE@JDIFLEML@Reconciling?5file?5handlers?5must?5@ 00000001800c9b10     XMPFiles_Impl.obj
 0002:00011b48       ??_C@_0BN@LGJJBOBL@Null?5output?5SXMPMeta?5pointer@ 00000001800c9b48     XMPFiles_Impl.obj
 0002:00011b68       ??_C@_0BO@FODAPPHO@Null?5working?5SXMPMeta?5pointer@ 00000001800c9b68     XMPFiles_Impl.obj
 0002:00011b90       ??_7?$TXMPMeta@V?$basic_string@DU?$char_traits@D@std@@V?$allocator@D@2@@std@@@@6B@ 00000001800c9b90     XMPFiles_Impl.obj
 0002:00011b98       ??_C@_0DC@HOPFHPIM@New_XMPFiles_IO?0?5path?5must?5be?5a@ 00000001800c9b98     XMPFiles_IO.obj
 0002:00011bd0       ??_C@_0CF@ODOBBAGE@New_XMPFiles_IO?0?5file?5does?5not?5@ 00000001800c9bd0     XMPFiles_IO.obj
 0002:00011bf8       ??_C@_0CD@IKBLLFNM@XMPFiles_IO?3?3Read?0?5not?5enough?5d@ 00000001800c9bf8     XMPFiles_IO.obj
 0002:00011c20       ??_C@_0HE@PDOABCGB@XMP_Enforce?5failed?3?5?$CIamountRead@ 00000001800c9c20     XMPFiles_IO.obj
 0002:00011c98       ??_C@_0DH@BBKFCJEP@New_XMPFiles_IO?0?5write?5not?5perm@ 00000001800c9c98     XMPFiles_IO.obj
 0002:00011cd0       ??_C@_0GP@LEKHNPAM@XMP_Enforce?5failed?3?5?$CInewOffset?5@ 00000001800c9cd0     XMPFiles_IO.obj
 0002:00011d40       ??_C@_0CN@MOHHHJKE@XMPFiles_IO?3?3Seek?0?5read?9only?5se@ 00000001800c9d40     XMPFiles_IO.obj
 0002:00011d70       ??_C@_0DK@PDKBFJMN@New_XMPFiles_IO?0?5truncate?5not?5p@ 00000001800c9d70     XMPFiles_IO.obj
 0002:00011db0       ??_C@_0HL@NDIPMFKM@XMP_Enforce?5failed?3?5?$CIlength?5?$DM?$DN?5@ 00000001800c9db0     XMPFiles_IO.obj
 0002:00011e30       ??_C@_0DF@NEFFKGFM@XMPFiles_IO?3?3DeriveTemp?0?5can?8t?5@ 00000001800c9e30     XMPFiles_IO.obj
 0002:00011e68       ??_C@_0CO@EFODNKFI@XMPFiles_IO?3?3DeriveTemp?0?5can?8t?5@ 00000001800c9e68     XMPFiles_IO.obj
 0002:00011e98       ??_C@_0CL@PBLMPKEO@XMPFiles_IO?3?3AbsorbTemp?0?5no?5tem@ 00000001800c9e98     XMPFiles_IO.obj
 0002:00011ed0       ??_7XMP_IO@@6B@            00000001800c9ed0     XMPFiles_IO.obj
 0002:00011f20       ??_7XMPFiles_IO@@6B@       00000001800c9f20     XMPFiles_IO.obj
 0002:00011f68       ??_C@_0CH@DPCAADFN@Host_IO?3?3Writable?0?5cannot?5conve@ 00000001800c9f68     Host_IO-Win.obj
 0002:00011f90       ??_C@_0CF@LKPIDMBM@Host_IO?3?3Create?0?5cannot?5convert@ 00000001800c9f90     Host_IO-Win.obj
 0002:00011fb8       ??_C@_0CP@JKNFNIGG@Host_IO?3?3Create?0?5path?5exists?5bu@ 00000001800c9fb8     Host_IO-Win.obj
 0002:00011fe8       ??_C@_0CE@BKJEHBLG@Host_IO?3?3Create?0?5cannot?5create?5@ 00000001800c9fe8     Host_IO-Win.obj
 0002:0001200c       ??_C@_05GNELEFIB@?4_nn_@   00000001800ca00c     Host_IO-Win.obj
 0002:00012018       ??_C@_0DC@OAIAGDHI@Host_IO?3?3CreateTemp?0?5cannot?5cre@ 00000001800ca018     Host_IO-Win.obj
 0002:00012050       ??_C@_0CD@JDFKBOON@Host_IO?3?3Open?0?5GetWidePath?5fail@ 00000001800ca050     Host_IO-Win.obj
 0002:00012078       ??_C@_0CE@NPAGCMIO@Host_IO?3?3Close?0?5CloseHandle?5fai@ 00000001800ca078     Host_IO-Win.obj
 0002:000120a0       ??_C@_0BN@NKLMIBJM@Cannot?5create?5temp?5file?5path@ 00000001800ca0a0     Host_IO-Win.obj
 0002:000120c0       ??_C@_0CF@DAMNCCKD@Host_IO?3?3Rename?0?5GetWidePath?5fa@ 00000001800ca0c0     Host_IO-Win.obj
 0002:000120e8       ??_C@_0CB@KBJPKOFO@Host_IO?3?3Rename?0?5new?5path?5exist@ 00000001800ca0e8     Host_IO-Win.obj
 0002:00012110       ??_C@_0CD@ENDOIPMF@Host_IO?3?3Rename?0?5MoveFileW?5fail@ 00000001800ca110     Host_IO-Win.obj
 0002:00012138       ??_C@_0CF@OMJKNKAN@Host_IO?3?3Delete?0?5GetWidePath?5fa@ 00000001800ca138     Host_IO-Win.obj
 0002:00012160       ??_C@_0CF@JIFPIACI@Host_IO?3?3Delete?0?5DeleteFileW?5fa@ 00000001800ca160     Host_IO-Win.obj
 0002:00012188       ??_C@_0BC@FFDAEEHC@Invalid?5seek?5mode@ 00000001800ca188     Host_IO-Win.obj
 0002:000121a0       ??_C@_0CI@EBBPCFHG@Host_IO?3?3Seek?0?5SetFilePointerEx@ 00000001800ca1a0     Host_IO-Win.obj
 0002:000121c8       ??_C@_0CB@GMLPMHDE@Host_IO?3?3Read?0?5request?5too?5larg@ 00000001800ca1c8     Host_IO-Win.obj
 0002:000121f0       ??_C@_0CA@DEBPHOAC@Host_IO?3?3Read?0?5ReadFile?5failure@ 00000001800ca1f0     Host_IO-Win.obj
 0002:00012210       ??_C@_0CC@ELADNJCE@Host_IO?3?3Write?0?5request?5too?5lar@ 00000001800ca210     Host_IO-Win.obj
 0002:00012238       ??_C@_0BK@HLFHJEGK@Host_IO?3?3Write?0?5disk?5full@ 00000001800ca238     Host_IO-Win.obj
 0002:00012258       ??_C@_0CC@KGBDOJDM@Host_IO?3?3Write?0?5WriteFile?5failu@ 00000001800ca258     Host_IO-Win.obj
 0002:00012280       ??_C@_0CH@POJFMPHC@Host_IO?3?3Length?0?5GetFileSizeEx?5@ 00000001800ca280     Host_IO-Win.obj
 0002:000122a8       ??_C@_0CK@PPENIDOO@Host_IO?3?3SetEOF?0?5SetFilePointer@ 00000001800ca2a8     Host_IO-Win.obj
 0002:000122d8       ??_C@_0CG@BLKPAHM@Host_IO?3?3SetEOF?0?5SetEndOfFile?5f@ 00000001800ca2d8     Host_IO-Win.obj
 0002:00012300       ??_C@_0CK@DGBPIDBJ@Host_IO?3?3GetFileMode?0?5GetWidePa@ 00000001800ca300     Host_IO-Win.obj
 0002:0001232c       ??_C@_01NBENCBCI@?$CK@     00000001800ca32c     Host_IO-Win.obj
 0002:00012330       ??_C@_02KHDDNBB@?2?$CK@    00000001800ca330     Host_IO-Win.obj
 0002:00012338       ??_C@_0CJ@DPLPMOBC@Host_IO?3?3OpenFolder?0?5GetWidePat@ 00000001800ca338     Host_IO-Win.obj
 0002:00012368       ??_C@_0CM@OEKLFEAH@Host_IO?3?3OpenFolder?5?9?5FindFirst@ 00000001800ca368     Host_IO-Win.obj
 0002:00012398       ??_C@_0CK@DOGAAOIJ@Host_IO?3?3OpenFolder?0?5path?5is?5no@ 00000001800ca398     Host_IO-Win.obj
 0002:000123c8       ??_C@_0CI@PEMDCOGK@Host_IO?3?3CloseFolder?0?5FindClose@ 00000001800ca3c8     Host_IO-Win.obj
 0002:000123f0       ??_C@_04HMNMCKMH@?2?2?$DP?2@ 00000001800ca3f0     Host_IO-Win.obj
 0002:000123f8       ??_C@_02HDBGODGB@?2?2@     00000001800ca3f8     Host_IO-Win.obj
 0002:000123fc       ??_C@_02CEGDFPFP@?4?2@     00000001800ca3fc     Host_IO-Win.obj
 0002:00012400       ??_C@_08EFJEOMPJ@?2?2?$DP?2UNC?2@ 00000001800ca400     Host_IO-Win.obj
 0002:0001240c       ??_C@_01KICIPPFI@?2@       00000001800ca40c     Host_IO-Win.obj
 0002:00012410       ??_C@_0BE@EMFNAGPB@Open?0?5other?5failure@ 00000001800ca410     Host_IO-Win.obj
 0002:00012424       ??_C@_01LFCBOECM@?4@       00000001800ca424     Host_IO-Win.obj
 0002:00012428       ??_C@_0DI@ELGCAOME@AIFF_MetaHandler?3?3UpdateFile?3?5S@ 00000001800ca428     AIFF_Handler.obj
 0002:00012460       ??_C@_0DE@HFGOOON@AIFF_MetaHandler?3?3WriteTempFile@ 00000001800ca460     AIFF_Handler.obj
 0002:000124a0       ??_7AIFF_MetaHandler@@6B@  00000001800ca4a0     AIFF_Handler.obj
 0002:00012508       ??_7IChunkBehavior@IFF_RIFF@@6B@ 00000001800ca508     AIFF_Handler.obj
 0002:00012560       ??_7XMPFileHandler@@6B@    00000001800ca560     AIFF_Handler.obj
 0002:000125c8       ??_7IReconcile@@6B@        00000001800ca5c8     AIFF_Handler.obj
 0002:000125e8       ??_7AIFFBehavior@IFF_RIFF@@6B@ 00000001800ca5e8     AIFF_Handler.obj
 0002:00012640       ??_7BigEndian@@6B@         00000001800ca640     AIFF_Handler.obj
 0002:000126a0       ??_7AIFFReconcile@IFF_RIFF@@6B@ 00000001800ca6a0     AIFF_Handler.obj
 0002:000126b8       ??_C@_0CC@FCHMBOIG@Failure?5writing?5ASF?5header?5obje@ 00000001800ca6b8     ASF_Handler.obj
 0002:000126e0       ??_C@_0BL@GNHAIGAL@Failure?5copyinh?5ASF?5object@ 00000001800ca6e0     ASF_Handler.obj
 0002:00012700       ??_C@_0BP@FMHLDPKB@Failure?5writing?5ASF?5XMP?5object@ 00000001800ca700     ASF_Handler.obj
 0002:00012720       ??_C@_0BP@BHBMKOHO@Failure?5updating?5ASF?5file?5size@ 00000001800ca720     ASF_Handler.obj
 0002:00012740       ??_C@_0BP@MGKGMGFA@Failure?5creating?5ASF?5temp?5file@ 00000001800ca740     ASF_Handler.obj
 0002:00012768       ??_7ASF_MetaHandler@@6B@   00000001800ca768     ASF_Handler.obj
 0002:000127d0       ??_7ObjectData@ASF_Support@@6B@ 00000001800ca7d0     ASF_Handler.obj
 0002:000127e0       ??_7ObjectState@ASF_Support@@6B@ 00000001800ca7e0     ASF_Handler.obj
 0002:000127e8       ??_C@_0O@ILLCCJEF@23976Timecode@ 00000001800ca7e8     AVCHD_Handler.obj
 0002:000127f8       ??_C@_0L@DNKHJAHM@24Timecode@ 00000001800ca7f8     AVCHD_Handler.obj
 0002:00012804       ??_C@_02JMHLOEOE@24@       00000001800ca804     AVCHD_Handler.obj
 0002:00012808       ??_C@_01HIHLOKLC@1@        00000001800ca808     AVCHD_Handler.obj
 0002:00012810       ??_C@_0L@NCGFPLEC@25Timecode@ 00000001800ca810     AVCHD_Handler.obj
 0002:0001281c       ??_C@_02IFGANFKF@25@       00000001800ca81c     AVCHD_Handler.obj
 0002:00012820       ??_C@_0BB@LLJCCLDF@2997DropTimecode@ 00000001800ca820     AVCHD_Handler.obj
 0002:00012838       ??_C@_0BE@NODAEDFM@2997NonDropTimecode@ 00000001800ca838     AVCHD_Handler.obj
 0002:00012850       ??_C@_0P@MFCLMALD@startTimeScale@ 00000001800ca850     AVCHD_Handler.obj
 0002:00012860       ??_C@_0CK@HABIIPLB@http?3?1?1ns?4adobe?4com?1xmp?11?40?1Dyn@ 00000001800ca860     AVCHD_Handler.obj
 0002:00012890       ??_C@_0BE@NPLKLFEJ@startTimeSampleSize@ 00000001800ca890     AVCHD_Handler.obj
 0002:000128a8       ??_C@_09MELCJLEJ@timeValue@ 00000001800ca8a8     AVCHD_Handler.obj
 0002:000128b8       ??_C@_0O@JANNOGPD@startTimecode@ 00000001800ca8b8     AVCHD_Handler.obj
 0002:000128c8       ??_C@_0L@FEDHPEKM@timeFormat@ 00000001800ca8c8     AVCHD_Handler.obj
 0002:000128d4       ??_C@_04JJJPHODJ@Sony@     00000001800ca8d4     AVCHD_Handler.obj
 0002:000128dc       ??_C@_04EGCMLPFP@Make@     00000001800ca8dc     AVCHD_Handler.obj
 0002:000128e8       ??_C@_0BO@NAABNKKI@http?3?1?1ns?4adobe?4com?1tiff?11?40?1@ 00000001800ca8e8     AVCHD_Handler.obj
 0002:00012908       ??_C@_05NFIJOKEG@Model@    00000001800ca908     AVCHD_Handler.obj
 0002:00012910       ??_C@_08CEHGNEL@shotName@  00000001800ca910     AVCHD_Handler.obj
 0002:00012920       ??_C@_0CB@MKFHMHAG@http?3?1?1purl?4org?1dc?1elements?11?41@ 00000001800ca920     AVCHD_Handler.obj
 0002:00012944       ??_C@_04IGJHDAHB@?4xmp@    00000001800ca944     AVCHD_Handler.obj
 0002:0001294c       ??_C@_04ILGMPNAN@?4XMP@    00000001800ca94c     AVCHD_Handler.obj
 0002:00012954       ??_C@_03ELOOOHPG@720@      00000001800ca954     AVCHD_Handler.obj
 0002:00012958       ??_C@_04KIACLCF@1280@      00000001800ca958     AVCHD_Handler.obj
 0002:00012960       ??_C@_04NABGCJPC@1920@     00000001800ca960     AVCHD_Handler.obj
 0002:00012968       ??_C@_03FEMMMNMO@480@      00000001800ca968     AVCHD_Handler.obj
 0002:0001296c       ??_C@_03LBHGEKBA@576@      00000001800ca96c     AVCHD_Handler.obj
 0002:00012970       ??_C@_04KAIJODKO@1080@     00000001800ca970     AVCHD_Handler.obj
 0002:00012978       ??_C@_01NOFIACDB@w@        00000001800ca978     AVCHD_Handler.obj
 0002:00012980       ??_C@_0CO@HJOPNOBN@http?3?1?1ns?4adobe?4com?1xap?11?40?1sTy@ 00000001800ca980     AVCHD_Handler.obj
 0002:000129b0       ??_C@_0P@IAPLLKK@videoFrameSize@ 00000001800ca9b0     AVCHD_Handler.obj
 0002:000129c0       ??_C@_01BDACAMKP@h@        00000001800ca9c0     AVCHD_Handler.obj
 0002:000129c4       ??_C@_06CBIFBKHG@pixels@   00000001800ca9c4     AVCHD_Handler.obj
 0002:000129cc       ??_C@_04NPEDKLDA@unit@     00000001800ca9cc     AVCHD_Handler.obj
 0002:000129d4       ??_C@_06CJBEAKGJ@23?498p@  00000001800ca9d4     AVCHD_Handler.obj
 0002:000129dc       ??_C@_03IJAGEOEE@25p@      00000001800ca9dc     AVCHD_Handler.obj
 0002:000129e0       ??_C@_06IDNDGODC@29?497p@  00000001800ca9e0     AVCHD_Handler.obj
 0002:000129e8       ??_C@_06EEDCOOOF@59?494p@  00000001800ca9e8     AVCHD_Handler.obj
 0002:000129f0       ??_C@_03BCBKLEBG@50p@      00000001800ca9f0     AVCHD_Handler.obj
 0002:000129f4       ??_C@_03IJBKBNAO@50i@      00000001800ca9f4     AVCHD_Handler.obj
 0002:000129f8       ??_C@_06NPDCEHPN@59?494i@  00000001800ca9f8     AVCHD_Handler.obj
 0002:00012a00       ??_C@_0P@PKEFJHPP@videoFrameRate@ 00000001800caa00     AVCHD_Handler.obj
 0002:00012a10       ??_C@_0BA@LHHGCHLF@audioSampleRate@ 00000001800caa10     AVCHD_Handler.obj
 0002:00012a20       ??_C@_05PHLGJONK@title@    00000001800caa20     AVCHD_Handler.obj
 0002:00012a28       ??_C@_0L@IAONLGLH@identifier@ 00000001800caa28     AVCHD_Handler.obj
 0002:00012a34       ??_C@_04DDJAGGFE@good@     00000001800caa34     AVCHD_Handler.obj
 0002:00012a40       ??_C@_07PJPKCGHK@creator@  00000001800caa40     AVCHD_Handler.obj
 0002:00012a48       ??_C@_0N@FPJJBBNM@SerialNumber@ 00000001800caa48     AVCHD_Handler.obj
 0002:00012a58       ??_C@_0CC@MHPMFAHL@http?3?1?1ns?4adobe?4com?1exif?11?40?1au@ 00000001800caa58     AVCHD_Handler.obj
 0002:00012a80       ??_C@_0N@FPHHAIOM@shotLocation@ 00000001800caa80     AVCHD_Handler.obj
 0002:00012a90       ??_C@_0BN@NPNNJGID@http?3?1?1ns?4adobe?4com?1xap?11?40?1@ 00000001800caa90     AVCHD_Handler.obj
 0002:00012ab0       ??_C@_0O@EPMPODKF@NativeDigests@ 00000001800caab0     AVCHD_Handler.obj
 0002:00012ac0       ??_C@_0CL@KBFIJDKL@Basic_MetaHandler?3?3UpdateFile?5?9@ 00000001800caac0     Basic_Handler.obj
 0002:00012af0       ??_C@_0CK@BGHCPIMO@Basic_MetaHandler?3?3WriteFile?5?9?5@ 00000001800caaf0     Basic_Handler.obj
 0002:00012b20       ??_C@_0DH@CHIPMNEG@Basic_MetaHandler?3?3ShuffleTrail@ 00000001800cab20     Basic_Handler.obj
 0002:00012b58       ??_C@_0CO@DOAJMCGN@FLV_MetaHandler?3?3LookForMetadat@ 00000001800cab58     FLV_Handler.obj
 0002:00012b88       ??_C@_09GFOJCPK@onXMPData@ 00000001800cab88     FLV_Handler.obj
 0002:00012b98       ??_C@_0L@PFNEIOOD@onMetaData@ 00000001800cab98     FLV_Handler.obj
 0002:00012ba8       ??_C@_07KFCJLDGC@liveXML@  00000001800caba8     FLV_Handler.obj
 0002:00012bb0       ??_C@_03PFKFKJHE@FLV@      00000001800cabb0     FLV_Handler.obj
 0002:00012bb8       ??_C@_0BP@DMAEPCID@Failure?5creating?5FLV?5temp?5file@ 00000001800cabb8     FLV_Handler.obj
 0002:00012bd8       ??_C@_0CD@EBNMBOHH@FLV?5tags?5can?8t?5be?5larger?5than?51@ 00000001800cabd8     FLV_Handler.obj
 0002:00012c08       ??_7FLV_MetaHandler@@6B@   00000001800cac08     FLV_Handler.obj
 0002:00012c68       ??_C@_06HOBIMJIM@GIF89a@   00000001800cac68     GIF_Handler.obj
 0002:00012c70       ??_C@_0KL@EHLLDJDC@XMP_Enforce?5failed?3?5?$CImemcmp?$CI?5bu@ 00000001800cac70     GIF_Handler.obj
 0002:00012d20       ??_C@_0M@OANDLLIH@XMP?5DataXMP@ 00000001800cad20     GIF_Handler.obj
 0002:00012d30       ??_C@_0BC@PEOKMHIO@corrupt?5GIF?5File?4@ 00000001800cad30     GIF_Handler.obj
 0002:00012d48       ??_C@_0BC@BLAEDCCF@Invaild?5GIF?5Block@ 00000001800cad48     GIF_Handler.obj
 0002:00012d60       ??_C@_0BP@GPHAGHK@No?5trailer?5exists?5for?5GIF?5file@ 00000001800cad60     GIF_Handler.obj
 0002:00012d80       ??_C@_0BM@EIGAAGML@Out?5of?5range?5seek?5operation@ 00000001800cad80     GIF_Handler.obj
 0002:00012da0       ??_C@_0BP@LADMENBK@Failure?5creating?5GIF?5temp?5file@ 00000001800cada0     GIF_Handler.obj
 0002:00012dc0       ??_C@_0CJ@ONFDPCPN@Not?5able?5to?5write?5XMP?5packet?5in@ 00000001800cadc0     GIF_Handler.obj
 0002:00012df8       ??_7GIF_MetaHandler@@6B@   00000001800cadf8     GIF_Handler.obj
 0002:00012e58       ??_C@_0BB@HDBOMJCD@?$AG?$AG?m?u?X?$BNF?e?$LN1?o?g?$POt?$LH?$BN@ 00000001800cae58     InDesign_Handler.obj
 0002:00012e70       ??_C@_0BB@IEOLNGA@?$NO99yQ?$IIKl?$IOc?n?x?$KO?$OA?$NN8@ 00000001800cae70     InDesign_Handler.obj
 0002:00012e88       ??_C@_0BB@IKOEHPCN@?$PN?N?$NLp?w?$IGKO?$KE?S?G?$CI?$LDAq?$AG@ 00000001800cae88     InDesign_Handler.obj
 0002:00012ea0       ??_C@_0CN@NDCJMKPH@InDesign_MetaHandler?3?3LocateXMP@ 00000001800caea0     InDesign_Handler.obj
 0002:00012ed0       ??_C@_03PKPBNCAL@?o?$LL?$LP@ 00000001800caed0     InDesign_Handler.obj
 0002:00012ed4       ??_C@_04JLAELECN@?5id?$DN@ 00000001800caed4     InDesign_Handler.obj
 0002:00012ee8       ??_7InDesign_MetaHandler@@6B@ 00000001800caee8     InDesign_Handler.obj
 0002:00012f80       ??_7JPEG_MetaHandler@@6B@  00000001800caf80     JPEG_Handler.obj
 0002:00012fe8       ??_7PSIR_Manager@@6B@      00000001800cafe8     JPEG_Handler.obj
 0002:00013040       ??_7TIFF_Manager@@6B@      00000001800cb040     JPEG_Handler.obj
 0002:00013150       ??_7PSIR_FileWriter@@6B@   00000001800cb150     JPEG_Handler.obj
 0002:000131a8       ??_7IPTC_Manager@@6B@      00000001800cb1a8     JPEG_Handler.obj
 0002:000131d8       ??_7PSIR_MemoryReader@@6B@ 00000001800cb1d8     JPEG_Handler.obj
 0002:00013230       ??_7IPTC_Writer@@6B@       00000001800cb230     JPEG_Handler.obj
 0002:00013260       ??_7IPTC_Reader@@6B@       00000001800cb260     JPEG_Handler.obj
 0002:00013290       ??_7TIFF_MemoryReader@@6B@ 00000001800cb290     JPEG_Handler.obj
 0002:00013398       ??_C@_0CA@GEHMPBBC@Not?5appropriate?5for?5TIFF_Reader@ 00000001800cb398     JPEG_Handler.obj
 0002:000133b8       ??_C@_0CA@CLAEBONC@Not?5appropriate?5for?5PSIR_Reader@ 00000001800cb3b8     JPEG_Handler.obj
 0002:000133d8       ??_C@_0CA@EKLMPDNE@Not?5appropriate?5for?5IPTC_Reader@ 00000001800cb3d8     JPEG_Handler.obj
 0002:000133f8       ??_C@_06BJLOEIBA@Exif?$AA?$AA@ 00000001800cb3f8     JPEG_Handler.obj
 0002:00013400       ??_C@_06IKJKLFGC@Exif?$AA?$PP@ 00000001800cb400     JPEG_Handler.obj
 0002:00013408       ??_C@_0P@EOBPNLMN@Photoshop?53?40?$AA@ 00000001800cb408     JPEG_Handler.obj
 0002:00013418       ??_C@_0BO@HEGOAPAM@http?3?1?1ns?4adobe?4com?1xap?11?40?1?$AA@ 00000001800cb418     JPEG_Handler.obj
 0002:00013438       ??_C@_0CE@IPGNKBHJ@http?3?1?1ns?4adobe?4com?1xmp?1extensi@ 00000001800cb438     JPEG_Handler.obj
 0002:00013460       ??_C@_0CN@DGMDDKPD@JPEG_MetaHandler?3?3CacheFileData@ 00000001800cb460     JPEG_Handler.obj
 0002:00013490       ??_C@_0BM@HKKBIAEM@Invalid?5JPEG?5segment?5length@ 00000001800cb490     JPEG_Handler.obj
 0002:000134ac       ??_C@_05HHKFHIDC@NIKON@    00000001800cb4ac     JPEG_Handler.obj
 0002:000134b8       ??_C@_0P@HMJGFGDJ@HasExtendedXMP@ 00000001800cb4b8     JPEG_Handler.obj
 0002:000134c8       ??_C@_0BO@HBHGMINC@http?3?1?1ns?4adobe?4com?1xmp?1note?1@ 00000001800cb4c8     JPEG_Handler.obj
 0002:000134e8       ??_C@_0CM@CBDNBKMI@JPEG?5must?5have?5at?5least?5SOI?5and@ 00000001800cb4e8     JPEG_Handler.obj
 0002:00013518       ??_C@_0BD@IJGEJHDH@Missing?5SOI?5marker@ 00000001800cb518     JPEG_Handler.obj
 0002:00013530       ??_C@_0CJ@FONMCMID@JPEG_MetaHandler?3?3WriteFile?5?9?5U@ 00000001800cb530     JPEG_Handler.obj
 0002:00013560       ??_C@_0BO@KNEINFAD@Unexpected?5TEM?5or?5RSTn?5marker@ 00000001800cb560     JPEG_Handler.obj
 0002:00013580       ??_C@_0EP@GMFEHHCN@kXMPErr_InternalFailure?5?$CCinput?5@ 00000001800cb580     MP3_Handler.obj
 0002:000135d0       ??_C@_05LAPONLG@false@     00000001800cb5d0     MP3_Handler.obj
 0002:000135d8       ??_C@_04LOAJBDKD@true@     00000001800cb5d8     MP3_Handler.obj
 0002:000135e0       ??_C@_04IPEPCGNC@TPE1@     00000001800cb5e0     MP3_Handler.obj
 0002:000135e8       ??_C@_03DADFJBBE@TP1@      00000001800cb5e8     MP3_Handler.obj
 0002:000135ec       ??_C@_06FOCAFPGH@artist@   00000001800cb5ec     MP3_Handler.obj
 0002:000135f4       ??_C@_04GMCJAHJC@TALB@     00000001800cb5f4     MP3_Handler.obj
 0002:000135fc       ??_C@_03LHEAFPOI@TAL@      00000001800cb5fc     MP3_Handler.obj
 0002:00013600       ??_C@_05MCBBJIDG@album@    00000001800cb600     MP3_Handler.obj
 0002:00013608       ??_C@_04PEBLADJH@TRCK@     00000001800cb608     MP3_Handler.obj
 0002:00013610       ??_C@_03OGGBNEAG@TRK@      00000001800cb610     MP3_Handler.obj
 0002:00013618       ??_C@_0M@DPCBAKHG@trackNumber@ 00000001800cb618     MP3_Handler.obj
 0002:00013624       ??_C@_04GINDDOEM@TCON@     00000001800cb624     MP3_Handler.obj
 0002:0001362c       ??_C@_03JPOJNIEF@TCO@      00000001800cb62c     MP3_Handler.obj
 0002:00013630       ??_C@_05JOBIDKGP@genre@    00000001800cb630     MP3_Handler.obj
 0002:00013638       ??_C@_04JEJHKEED@TIT2@     00000001800cb638     MP3_Handler.obj
 0002:00013640       ??_C@_03BMBBGKAL@TT2@      00000001800cb640     MP3_Handler.obj
 0002:00013644       ??_C@_04NIGMENML@COMM@     00000001800cb644     MP3_Handler.obj
 0002:0001364c       ??_C@_03GJALCMIF@COM@      00000001800cb64c     MP3_Handler.obj
 0002:00013650       ??_C@_0L@NMJOPCOP@logComment@ 00000001800cb650     MP3_Handler.obj
 0002:0001365c       ??_C@_04LMJHFBDM@TYER@     00000001800cb65c     MP3_Handler.obj
 0002:00013664       ??_C@_03HELHBGGJ@TYE@      00000001800cb664     MP3_Handler.obj
 0002:00013668       ??_C@_0L@GFOFLMG@CreateDate@ 00000001800cb668     MP3_Handler.obj
 0002:00013674       ??_C@_04EPLHNBCE@TDAT@     00000001800cb674     MP3_Handler.obj
 0002:0001367c       ??_C@_03ECFODEO@TDA@       00000001800cb67c     MP3_Handler.obj
 0002:00013680       ??_C@_04OHBONDIN@TIME@     00000001800cb680     MP3_Handler.obj
 0002:00013688       ??_C@_03KAEIDPBB@TIM@      00000001800cb688     MP3_Handler.obj
 0002:0001368c       ??_C@_04FEFEEIJL@TDRC@     00000001800cb68c     MP3_Handler.obj
 0002:00013694       ??_C@_04LPBGNFPN@TCMP@     00000001800cb694     MP3_Handler.obj
 0002:0001369c       ??_C@_03FCLDNGNL@TCP@      00000001800cb69c     MP3_Handler.obj
 0002:000136a0       ??_C@_0BC@CKOKGJCB@partOfCompilation@ 00000001800cb6a0     MP3_Handler.obj
 0002:000136b4       ??_C@_04LHMBAEOB@USLT@     00000001800cb6b4     MP3_Handler.obj
 0002:000136bc       ??_C@_03IFDPDDIH@ULT@      00000001800cb6bc     MP3_Handler.obj
 0002:000136c0       ??_C@_06IJBHAOHD@lyrics@   00000001800cb6c0     MP3_Handler.obj
 0002:000136c8       ??_C@_04EDPOGNIP@TCOM@     00000001800cb6c8     MP3_Handler.obj
 0002:000136d0       ??_C@_03KNNPLKMH@TCM@      00000001800cb6d0     MP3_Handler.obj
 0002:000136d8       ??_C@_08KFGNDJJC@composer@ 00000001800cb6d8     MP3_Handler.obj
 0002:000136e4       ??_C@_04NFBDKKCB@TPOS@     00000001800cb6e4     MP3_Handler.obj
 0002:000136ec       ??_C@_03BPAKOIOC@TPA@      00000001800cb6ec     MP3_Handler.obj
 0002:000136f0       ??_C@_0L@CCIONAMG@discNumber@ 00000001800cb6f0     MP3_Handler.obj
 0002:000136fc       ??_C@_04LMJCABJD@TCOP@     00000001800cb6fc     MP3_Handler.obj
 0002:00013704       ??_C@_03GAIFLEFJ@TCR@      00000001800cb704     MP3_Handler.obj
 0002:00013708       ??_C@_06LEPFCBBJ@rights@   00000001800cb708     MP3_Handler.obj
 0002:00013710       ??_C@_04PCDINCJH@TPE4@     00000001800cb710     MP3_Handler.obj
 0002:00013718       ??_C@_03ENECGFFB@TP4@      00000001800cb718     MP3_Handler.obj
 0002:00013720       ??_C@_08NCGGGNGI@engineer@ 00000001800cb720     MP3_Handler.obj
 0002:0001372c       ??_C@_04PLDCHLED@WCOP@     00000001800cb72c     MP3_Handler.obj
 0002:00013734       ??_C@_03EAAGHJDF@WCP@      00000001800cb734     MP3_Handler.obj
 0002:00013738       ??_C@_0CE@JBINFCAM@http?3?1?1ns?4adobe?4com?1xap?11?40?1rig@ 00000001800cb738     MP3_Handler.obj
 0002:00013760       ??_C@_0N@PLEIDHMG@WebStatement@ 00000001800cb760     MP3_Handler.obj
 0002:00013770       ??_C@_03LLFPHHHI@ID3@      00000001800cb770     MP3_Handler.obj
 0002:00013778       ??_C@_0BP@KJEFHNAF@no?5support?5for?5MP3?5with?5footer@ 00000001800cb778     MP3_Handler.obj
 0002:00013798       ??_C@_0BK@JBAKMNBO@illegal?5header?5lower?5bits@ 00000001800cb798     MP3_Handler.obj
 0002:000137c0       ??_C@_0EL@FHIJOBOP@kXMPErr_BadFileFormat?5?$CCextHeade@ 00000001800cb7c0     MP3_Handler.obj
 0002:0001380c       ??_C@_04DEHMCCLI@XMP?$AA@  00000001800cb80c     MP3_Handler.obj
 0002:00013820       ??_C@_0FB@FBPGFOPA@kXMPErr_BadFileFormat?5?$CCtwo?5XMP?5@ 00000001800cb820     MP3_Handler.obj
 0002:00013880       ??_C@_0FF@IIADEDNK@kXMPErr_BadFileFormat?5?$CCillegal?5@ 00000001800cb880     MP3_Handler.obj
 0002:000138d8       ??_C@_0BH@IAMAIFO@padding?5not?5nulled?5out@ 00000001800cb8d8     MP3_Handler.obj
 0002:000138f0       ??_C@_0BK@PDDECBAH@padding?$CI2?$CJ?5not?5nulled?5out@ 00000001800cb8f0     MP3_Handler.obj
 0002:00013910       ??_C@_0DH@GCMJBMKB@MP3_MetaHandler?3?3UpdateFile?3?5Sa@ 00000001800cb910     MP3_Handler.obj
 0002:00013950       ??_C@_0FE@LFLOJJLF@kXMPErr_BadParam?5?$CCYear?5is?5out?5o@ 00000001800cb950     MP3_Handler.obj
 0002:000139a4       ??_C@_01GBGANLPD@0@        00000001800cb9a4     MP3_Handler.obj
 0002:000139a8       ??_C@_0CO@IEPDFNGK@MP3_MetaHandler?3?3WriteTempFile?3@ 00000001800cb9a8     MP3_Handler.obj
 0002:000139e0       ??_7MP3_MetaHandler@@6B@   00000001800cb9e0     MP3_Handler.obj
 0002:00013a40       ??_C@_0CN@KJOLAIDG@MPEG2?5cannot?5be?5used?5with?5clien@ 00000001800cba40     MPEG2_Handler.obj
 0002:00013a70       ??_C@_0CA@FDDMCMOA@Failure?5opening?5MPEG?92?5XMP?5file@ 00000001800cba70     MPEG2_Handler.obj
 0002:00013a90       ??_C@_0DJ@LILGNIGB@MPEG2_MetaHandler?3?3WriteTempFil@ 00000001800cba90     MPEG2_Handler.obj
 0002:00013ad8       ??_7MPEG2_MetaHandler@@6B@ 00000001800cbad8     MPEG2_Handler.obj
 0002:00013b38       ??_C@_03JDNAKOG@aar@       00000001800cbb38     MPEG4_Handler.obj
 0002:00013b3c       ??_C@_02DFENNNBM@aa@       00000001800cbb3c     MPEG4_Handler.obj
 0002:00013b40       ??_C@_03JAHLBNKH@abk@      00000001800cbb40     MPEG4_Handler.obj
 0002:00013b44       ??_C@_02BOGAIONP@ab@       00000001800cbb44     MPEG4_Handler.obj
 0002:00013b48       ??_C@_03MHCBMGD@afr@       00000001800cbb48     MPEG4_Handler.obj
 0002:00013b4c       ??_C@_02HKAMELNL@af@       00000001800cbb4c     MPEG4_Handler.obj
 0002:00013b50       ??_C@_03GFEFMOKC@aka@      00000001800cbb50     MPEG4_Handler.obj
 0002:00013b54       ??_C@_02MPKCDFJG@ak@       00000001800cbb54     MPEG4_Handler.obj
 0002:00013b58       ??_C@_03ELCHILOE@alb@      00000001800cbb58     MPEG4_Handler.obj
 0002:00013b5c       ??_C@_02GACNLIFD@sq@       00000001800cbb5c     MPEG4_Handler.obj
 0002:00013b60       ??_C@_03EGDNPNBI@sqi@      00000001800cbb60     MPEG4_Handler.obj
 0002:00013b64       ??_C@_03LAAKAJFJ@amh@      00000001800cbb64     MPEG4_Handler.obj
 0002:00013b68       ??_C@_02JJPIJCBA@am@       00000001800cbb68     MPEG4_Handler.obj
 0002:00013b6c       ??_C@_03HGLCFGFN@ara@      00000001800cbb6c     MPEG4_Handler.obj
 0002:00013b70       ??_C@_02FEKCJMIO@ar@       00000001800cbb70     MPEG4_Handler.obj
 0002:00013b74       ??_C@_03CAOIPBNL@arg@      00000001800cbb74     MPEG4_Handler.obj
 0002:00013b78       ??_C@_02LCNFMBND@an@       00000001800cbb78     MPEG4_Handler.obj
 0002:00013b7c       ??_C@_03NKAHBJFB@arm@      00000001800cbb7c     MPEG4_Handler.obj
 0002:00013b80       ??_C@_02LIIHHOMK@hy@       00000001800cbb80     MPEG4_Handler.obj
 0002:00013b84       ??_C@_03GDIDDDDC@hye@      00000001800cbb84     MPEG4_Handler.obj
 0002:00013b88       ??_C@_03NLMFHDGG@asm@      00000001800cbb88     MPEG4_Handler.obj
 0002:00013b8c       ??_C@_02ENLJKNMP@as@       00000001800cbb8c     MPEG4_Handler.obj
 0002:00013b90       ??_C@_03HBLLPOIB@ava@      00000001800cbb90     MPEG4_Handler.obj
 0002:00013b94       ??_C@_02DAMOFJIK@av@       00000001800cbb94     MPEG4_Handler.obj
 0002:00013b98       ??_C@_03BFNHDLIF@ave@      00000001800cbb98     MPEG4_Handler.obj
 0002:00013b9c       ??_C@_02FBCBBIBI@ae@       00000001800cbb9c     MPEG4_Handler.obj
 0002:00013ba0       ??_C@_03NGFCPGLA@aym@      00000001800cbba0     MPEG4_Handler.obj
 0002:00013ba4       ??_C@_02LHFGEFEF@ay@       00000001800cbba4     MPEG4_Handler.obj
 0002:00013ba8       ??_C@_03BMMNMCOB@aze@      00000001800cbba8     MPEG4_Handler.obj
 0002:00013bac       ??_C@_02JMHLBGIG@az@       00000001800cbbac     MPEG4_Handler.obj
 0002:00013bb0       ??_C@_03IAIIAMBA@bak@      00000001800cbbb0     MPEG4_Handler.obj
 0002:00013bb4       ??_C@_02DHALGDEF@ba@       00000001800cbbb4     MPEG4_Handler.obj
 0002:00013bb8       ??_C@_03NGNCKLJG@bam@      00000001800cbbb8     MPEG4_Handler.obj
 0002:00013bbc       ??_C@_02JLLOCMEJ@bm@       00000001800cbbbc     MPEG4_Handler.obj
 0002:00013bc0       ??_C@_03DAKFPGML@baq@      00000001800cbbc0     MPEG4_Handler.obj
 0002:00013bc4       ??_C@_02BMOKKCJF@eu@       00000001800cbbc4     MPEG4_Handler.obj
 0002:00013bc8       ??_C@_03IEGLKHFM@eus@      00000001800cbbc8     MPEG4_Handler.obj
 0002:00013bcc       ??_C@_03MIMADCAL@bel@      00000001800cbbcc     MPEG4_Handler.obj
 0002:00013bd0       ??_C@_02FDGHKGEB@be@       00000001800cbbd0     MPEG4_Handler.obj
 0002:00013bd4       ??_C@_03PKPGFAIJ@ben@      00000001800cbbd4     MPEG4_Handler.obj
 0002:00013bd8       ??_C@_02LAJDHPIK@bn@       00000001800cbbd8     MPEG4_Handler.obj
 0002:00013bdc       ??_C@_03KFLGAOGL@bih@      00000001800cbbdc     MPEG4_Handler.obj
 0002:00013be0       ??_C@_02OGMJNIAM@bh@       00000001800cbbe0     MPEG4_Handler.obj
 0002:00013be4       ??_C@_03MIAMFPB@bis@       00000001800cbbe4     MPEG4_Handler.obj
 0002:00013be8       ??_C@_02PPNCOJEN@bi@       00000001800cbbe8     MPEG4_Handler.obj
 0002:00013bec       ??_C@_03NIODNNF@bod@       00000001800cbbec     MPEG4_Handler.obj
 0002:00013bf0       ??_C@_02KJIIEOML@bo@       00000001800cbbf0     MPEG4_Handler.obj
 0002:00013bf4       ??_C@_03CKCLOOKC@tib@      00000001800cbbf4     MPEG4_Handler.obj
 0002:00013bf8       ??_C@_03IANLJED@bos@       00000001800cbbf8     MPEG4_Handler.obj
 0002:00013bfc       ??_C@_02EPPPBDJG@bs@       00000001800cbbfc     MPEG4_Handler.obj
 0002:00013c00       ??_C@_03GLDMLH@bre@        00000001800cbc00     MPEG4_Handler.obj
 0002:00013c04       ??_C@_02FGOECCNH@br@       00000001800cbc04     MPEG4_Handler.obj
 0002:00013c08       ??_C@_03NEOGJBHL@bul@      00000001800cbc08     MPEG4_Handler.obj
 0002:00013c0c       ??_C@_02GBFBMEMD@bg@       00000001800cbc0c     MPEG4_Handler.obj
 0002:00013c10       ??_C@_03KHKOKE@bur@        00000001800cbc10     MPEG4_Handler.obj
 0002:00013c14       ??_C@_02LOEMLMCB@my@       00000001800cbc14     MPEG4_Handler.obj
 0002:00013c18       ??_C@_03DADBAGAE@mya@      00000001800cbc18     MPEG4_Handler.obj
 0002:00013c1c       ??_C@_03PFGOGFOL@cat@      00000001800cbc1c     MPEG4_Handler.obj
 0002:00013c20       ??_C@_02DGMJAJHC@ca@       00000001800cbc20     MPEG4_Handler.obj
 0002:00013c24       ??_C@_03LNCGFLPA@ces@      00000001800cbc24     MPEG4_Handler.obj
 0002:00013c28       ??_C@_02EODNHJKB@cs@       00000001800cbc28     MPEG4_Handler.obj
 0002:00013c2c       ??_C@_03LGMEAKGK@cze@      00000001800cbc2c     MPEG4_Handler.obj
 0002:00013c30       ??_C@_03MNAKLIHA@cha@      00000001800cbc30     MPEG4_Handler.obj
 0002:00013c34       ??_C@_02OHALLCDL@ch@       00000001800cbc34     MPEG4_Handler.obj
 0002:00013c38       ??_C@_03KJGGHNHE@che@      00000001800cbc38     MPEG4_Handler.obj
 0002:00013c3c       ??_C@_02FCKFMMHG@ce@       00000001800cbc3c     MPEG4_Handler.obj
 0002:00013c40       ??_C@_03FNDDCHI@chi@       00000001800cbc40     MPEG4_Handler.obj
 0002:00013c44       ??_C@_02PEPMCKME@zh@       00000001800cbc44     MPEG4_Handler.obj
 0002:00013c48       ??_C@_03HOJIINOL@zho@      00000001800cbc48     MPEG4_Handler.obj
 0002:00013c4c       ??_C@_03ODKEGPCF@chu@      00000001800cbc4c     MPEG4_Handler.obj
 0002:00013c50       ??_C@_02BIGHNOCH@cu@       00000001800cbc50     MPEG4_Handler.obj
 0002:00013c54       ??_C@_03MIIJDMOG@chv@      00000001800cbc54     MPEG4_Handler.obj
 0002:00013c58       ??_C@_02DDEKINOE@cv@       00000001800cbc58     MPEG4_Handler.obj
 0002:00013c5c       ??_C@_03KJKKOPGH@cor@      00000001800cbc5c     MPEG4_Handler.obj
 0002:00013c60       ??_C@_02CEECONBN@kw@       00000001800cbc60     MPEG4_Handler.obj
 0002:00013c64       ??_C@_03LALBNOCG@cos@      00000001800cbc64     MPEG4_Handler.obj
 0002:00013c68       ??_C@_02KIEKCEPM@co@       00000001800cbc68     MPEG4_Handler.obj
 0002:00013c6c       ??_C@_03LINHFLNC@cre@      00000001800cbc6c     MPEG4_Handler.obj
 0002:00013c70       ??_C@_02FHCGEIOA@cr@       00000001800cbc70     MPEG4_Handler.obj
 0002:00013c74       ??_C@_03HMFLDODL@cym@      00000001800cbc74     MPEG4_Handler.obj
 0002:00013c78       ??_C@_02LENCJBCL@cy@       00000001800cbc78     MPEG4_Handler.obj
 0002:00013c7c       ??_C@_03KPAHJFKG@wel@      00000001800cbc7c     MPEG4_Handler.obj
 0002:00013c80       ??_C@_03NIJEKHIJ@dan@      00000001800cbc80     MPEG4_Handler.obj
 0002:00013c84       ??_C@_02DDIGBPPH@da@       00000001800cbc84     MPEG4_Handler.obj
 0002:00013c88       ??_C@_03HGKLMEMP@deu@      00000001800cbc88     MPEG4_Handler.obj
 0002:00013c8c       ??_C@_02FHOKNKPD@de@       00000001800cbc8c     MPEG4_Handler.obj
 0002:00013c90       ??_C@_03CLFPPNOG@ger@      00000001800cbc90     MPEG4_Handler.obj
 0002:00013c94       ??_C@_03FEJMGOGI@div@      00000001800cbc94     MPEG4_Handler.obj
 0002:00013c98       ??_C@_02DGAFJLGB@dv@       00000001800cbc98     MPEG4_Handler.obj
 0002:00013c9c       ??_C@_03HDJGFGPO@dut@      00000001800cbc9c     MPEG4_Handler.obj
 0002:00013ca0       ??_C@_02ILLPOEGM@nl@       00000001800cbca0     MPEG4_Handler.obj
 0002:00013ca4       ??_C@_03EFBODMDE@nld@      00000001800cbca4     MPEG4_Handler.obj
 0002:00013ca8       ??_C@_03NBPMNKFJ@dzo@      00000001800cbca8     MPEG4_Handler.obj
 0002:00013cac       ??_C@_02JKLANEGN@dz@       00000001800cbcac     MPEG4_Handler.obj
 0002:00013cb0       ??_C@_03FKMGDBDN@ell@      00000001800cbcb0     MPEG4_Handler.obj
 0002:00013cb4       ??_C@_02IHOKALIN@el@       00000001800cbcb4     MPEG4_Handler.obj
 0002:00013cb8       ??_C@_03DHLFMMIF@gre@      00000001800cbcb8     MPEG4_Handler.obj
 0002:00013cbc       ??_C@_03LKLGDMJI@eng@      00000001800cbcbc     MPEG4_Handler.obj
 0002:00013cc0       ??_C@_02LFNMGJAP@en@       00000001800cbcc0     MPEG4_Handler.obj
 0002:00013cc4       ??_C@_03GENHDIOK@epo@      00000001800cbcc4     MPEG4_Handler.obj
 0002:00013cc8       ??_C@_02KMMHFIEO@eo@       00000001800cbcc8     MPEG4_Handler.obj
 0002:00013ccc       ??_C@_03MPKHENCJ@est@      00000001800cbccc     MPEG4_Handler.obj
 0002:00013cd0       ??_C@_02FPBJDNE@et@        00000001800cbcd0     MPEG4_Handler.obj
 0002:00013cd4       ??_C@_03JLHHMGOF@ewe@      00000001800cbcd4     MPEG4_Handler.obj
 0002:00013cd8       ??_C@_02FGCILAME@ee@       00000001800cbcd8     MPEG4_Handler.obj
 0002:00013cdc       ??_C@_03GLIGFOED@fao@      00000001800cbcdc     MPEG4_Handler.obj
 0002:00013ce0       ??_C@_02KOIBOGBH@fo@       00000001800cbce0     MPEG4_Handler.obj
 0002:00013ce4       ??_C@_03INPBADBO@fas@      00000001800cbce4     MPEG4_Handler.obj
 0002:00013ce8       ??_C@_02DAACMLJJ@fa@       00000001800cbce8     MPEG4_Handler.obj
 0002:00013cec       ??_C@_03OGJBJCMA@per@      00000001800cbcec     MPEG4_Handler.obj
 0002:00013cf0       ??_C@_03BIOCPLLO@fij@      00000001800cbcf0     MPEG4_Handler.obj
 0002:00013cf4       ??_C@_02NDPGBCFC@fj@       00000001800cbcf4     MPEG4_Handler.obj
 0002:00013cf8       ??_C@_03HMIODOLK@fin@      00000001800cbcf8     MPEG4_Handler.obj
 0002:00013cfc       ??_C@_02PINLEBJB@fi@       00000001800cbcfc     MPEG4_Handler.obj
 0002:00013d00       ??_C@_03OLGFGOOE@fra@      00000001800cbd00     MPEG4_Handler.obj
 0002:00013d04       ??_C@_02FBONIKAL@fr@       00000001800cbd04     MPEG4_Handler.obj
 0002:00013d08       ??_C@_03IPAJKLOA@fre@      00000001800cbd08     MPEG4_Handler.obj
 0002:00013d0c       ??_C@_03GJHOPGLN@fry@      00000001800cbd0c     MPEG4_Handler.obj
 0002:00013d10       ??_C@_02LCBJFDMA@fy@       00000001800cbd10     MPEG4_Handler.obj
 0002:00013d14       ??_C@_03FLIEAGCM@ful@      00000001800cbd14     MPEG4_Handler.obj
 0002:00013d18       ??_C@_02HPEDFNFO@ff@       00000001800cbd18     MPEG4_Handler.obj
 0002:00013d1c       ??_C@_03NEDDJBPK@geo@      00000001800cbd1c     MPEG4_Handler.obj
 0002:00013d20       ??_C@_02DINKFIMK@ka@       00000001800cbd20     MPEG4_Handler.obj
 0002:00013d24       ??_C@_03DANKENAE@kat@      00000001800cbd24     MPEG4_Handler.obj
 0002:00013d28       ??_C@_03EFGBIHPL@gla@      00000001800cbd28     MPEG4_Handler.obj
 0002:00013d2c       ??_C@_02EMLHFFOL@gd@       00000001800cbd2c     MPEG4_Handler.obj
 0002:00013d30       ??_C@_03CBANECPP@gle@      00000001800cbd30     MPEG4_Handler.obj
 0002:00013d34       ??_C@_02DBMAKBKO@ga@       00000001800cbd34     MPEG4_Handler.obj
 0002:00013d38       ??_C@_03BDDLCAHN@glg@      00000001800cbd38     MPEG4_Handler.obj
 0002:00013d3c       ??_C@_02IEGONPOD@gl@       00000001800cbd3c     MPEG4_Handler.obj
 0002:00013d40       ??_C@_03EAOCADGN@glv@      00000001800cbd40     MPEG4_Handler.obj
 0002:00013d44       ??_C@_02DEEDCFDI@gv@       00000001800cbd44     MPEG4_Handler.obj
 0002:00013d48       ??_C@_03NEEBBFEO@grn@      00000001800cbd48     MPEG4_Handler.obj
 0002:00013d4c       ??_C@_02LGFILNGB@gn@       00000001800cbd4c     MPEG4_Handler.obj
 0002:00013d50       ??_C@_03LFGCMGMP@guj@      00000001800cbd50     MPEG4_Handler.obj
 0002:00013d54       ??_C@_02BPGOHGPL@gu@       00000001800cbd54     MPEG4_Handler.obj
 0002:00013d58       ??_C@_03CCGPOCOK@hat@      00000001800cbd58     MPEG4_Handler.obj
 0002:00013d5c       ??_C@_02NCJAAIH@ht@        00000001800cbd5c     MPEG4_Handler.obj
 0002:00013d60       ??_C@_03DLHENDKL@hau@      00000001800cbd60     MPEG4_Handler.obj
 0002:00013d64       ??_C@_02DKJMOGJD@ha@       00000001800cbd64     MPEG4_Handler.obj
 0002:00013d68       ??_C@_03DJPOPPOB@heb@      00000001800cbd68     MPEG4_Handler.obj
 0002:00013d6c       ??_C@_02FOPACDJH@he@       00000001800cbd6c     MPEG4_Handler.obj
 0002:00013d70       ??_C@_03HDDMONLA@her@      00000001800cbd70     MPEG4_Handler.obj
 0002:00013d74       ??_C@_02JDKKCNAJ@hz@       00000001800cbd74     MPEG4_Handler.obj
 0002:00013d78       ??_C@_03JMFBEJIJ@hin@      00000001800cbd78     MPEG4_Handler.obj
 0002:00013d7c       ??_C@_02PCEFGMJL@hi@       00000001800cbd7c     MPEG4_Handler.obj
 0002:00013d80       ??_C@_03ICEDNABE@hmo@      00000001800cbd80     MPEG4_Handler.obj
 0002:00013d84       ??_C@_02KEBPMLBN@ho@       00000001800cbd84     MPEG4_Handler.obj
 0002:00013d88       ??_C@_03ODJJNEB@hrv@       00000001800cbd88     MPEG4_Handler.obj
 0002:00013d8c       ??_C@_02FLHDKHAB@hr@       00000001800cbd8c     MPEG4_Handler.obj
 0002:00013d90       ??_C@_03PAKJEBJM@scr@      00000001800cbd90     MPEG4_Handler.obj
 0002:00013d94       ??_C@_03IJGNBDJN@hun@      00000001800cbd94     MPEG4_Handler.obj
 0002:00013d98       ??_C@_02BEDCDBMG@hu@       00000001800cbd98     MPEG4_Handler.obj
 0002:00013d9c       ??_C@_03DBKDPAEM@ibo@      00000001800cbd9c     MPEG4_Handler.obj
 0002:00013da0       ??_C@_02GNAECLCC@ig@       00000001800cbda0     MPEG4_Handler.obj
 0002:00013da4       ??_C@_03MKIOHCPB@ice@      00000001800cbda4     MPEG4_Handler.obj
 0002:00013da8       ??_C@_02EDKKPMHH@is@       00000001800cbda8     MPEG4_Handler.obj
 0002:00013dac       ??_C@_03HGKGKMI@isl@       00000001800cbdac     MPEG4_Handler.obj
 0002:00013db0       ??_C@_03DFCOIMPO@ido@      00000001800cbdb0     MPEG4_Handler.obj
 0002:00013db4       ??_C@_02KFNNKBCK@io@       00000001800cbdb4     MPEG4_Handler.obj
 0002:00013db8       ??_C@_03GLKMLICL@iii@      00000001800cbdb8     MPEG4_Handler.obj
 0002:00013dbc       ??_C@_02PDIHAGKM@ii@       00000001800cbdbc     MPEG4_Handler.obj
 0002:00013dc0       ??_C@_03IOFPDBBI@iku@      00000001800cbdc0     MPEG4_Handler.obj
 0002:00013dc4       ??_C@_02BFPAFLPB@iu@       00000001800cbdc4     MPEG4_Handler.obj
 0002:00013dc8       ??_C@_03MBNCDFMM@ile@      00000001800cbdc8     MPEG4_Handler.obj
 0002:00013dcc       ??_C@_02FPDCEJKA@ie@       00000001800cbdcc     MPEG4_Handler.obj
 0002:00013dd0       ??_C@_03KGDKCEKG@ina@      00000001800cbdd0     MPEG4_Handler.obj
 0002:00013dd4       ??_C@_02DLFOIMKE@ia@       00000001800cbdd4     MPEG4_Handler.obj
 0002:00013dd8       ??_C@_03NLENNAOD@ind@      00000001800cbdd8     MPEG4_Handler.obj
 0002:00013ddc       ??_C@_02EGCJHIOB@id@       00000001800cbddc     MPEG4_Handler.obj
 0002:00013de0       ??_C@_03EKGNECFG@ipk@      00000001800cbde0     MPEG4_Handler.obj
 0002:00013de4       ??_C@_02MBLBGECO@ik@       00000001800cbde4     MPEG4_Handler.obj
 0002:00013de8       ??_C@_03LHILACAA@ita@      00000001800cbde8     MPEG4_Handler.obj
 0002:00013dec       ??_C@_02MOLGKLA@it@        00000001800cbdec     MPEG4_Handler.obj
 0002:00013df0       ??_C@_03LKFAEIOD@jav@      00000001800cbdf0     MPEG4_Handler.obj
 0002:00013df4       ??_C@_02DMJLLGGL@jv@       00000001800cbdf4     MPEG4_Handler.obj
 0002:00013df8       ??_C@_03CFKPBJPN@jpn@      00000001800cbdf8     MPEG4_Handler.obj
 0002:00013dfc       ??_C@_02DJBIDCPN@ja@       00000001800cbdfc     MPEG4_Handler.obj
 0002:00013e00       ??_C@_03LCMBNFFN@kal@      00000001800cbe00     MPEG4_Handler.obj
 0002:00013e04       ??_C@_02INHECGIH@kl@       00000001800cbe04     MPEG4_Handler.obj
 0002:00013e08       ??_C@_03IAPHLHNP@kan@      00000001800cbe08     MPEG4_Handler.obj
 0002:00013e0c       ??_C@_02LPECEEAF@kn@       00000001800cbe0c     MPEG4_Handler.obj
 0002:00013e10       ??_C@_03HPJLNLMD@kas@      00000001800cbe10     MPEG4_Handler.obj
 0002:00013e14       ??_C@_02EACOCIBJ@ks@       00000001800cbe14     MPEG4_Handler.obj
 0002:00013e18       ??_C@_03CJMBHMEF@kau@      00000001800cbe18     MPEG4_Handler.obj
 0002:00013e1c       ??_C@_02FJDFBJFI@kr@       00000001800cbe1c     MPEG4_Handler.obj
 0002:00013e20       ??_C@_03KOFJGAIK@kaz@      00000001800cbe20     MPEG4_Handler.obj
 0002:00013e24       ??_C@_02MCDFLAEA@kk@       00000001800cbe24     MPEG4_Handler.obj
 0002:00013e28       ??_C@_03KEALNPJD@khm@      00000001800cbe28     MPEG4_Handler.obj
 0002:00013e2c       ??_C@_02JEGPBHMG@km@       00000001800cbe2c     MPEG4_Handler.obj
 0002:00013e30       ??_C@_03PDJDBCCC@kik@      00000001800cbe30     MPEG4_Handler.obj
 0002:00013e34       ??_C@_02PAADNCMC@ki@       00000001800cbe34     MPEG4_Handler.obj
 0002:00013e38       ??_C@_03IOOEOGGH@kin@      00000001800cbe38     MPEG4_Handler.obj
 0002:00013e3c       ??_C@_02DHLFHFOC@rw@       00000001800cbe3c     MPEG4_Handler.obj
 0002:00013e40       ??_C@_03GIJDLLDK@kir@      00000001800cbe40     MPEG4_Handler.obj
 0002:00013e44       ??_C@_02LKMBMAJD@ky@       00000001800cbe44     MPEG4_Handler.obj
 0002:00013e48       ??_C@_03KBEEMJBG@kom@      00000001800cbe48     MPEG4_Handler.obj
 0002:00013e4c       ??_C@_02DNFJNMFM@kv@       00000001800cbe4c     MPEG4_Handler.obj
 0002:00013e50       ??_C@_03IKGJJKNF@kon@      00000001800cbe50     MPEG4_Handler.obj
 0002:00013e54       ??_C@_02GOIAPPEM@kg@       00000001800cbe54     MPEG4_Handler.obj
 0002:00013e58       ??_C@_03GMBOMHII@kor@      00000001800cbe58     MPEG4_Handler.obj
 0002:00013e5c       ??_C@_02KGFJHFEE@ko@       00000001800cbe5c     MPEG4_Handler.obj
 0002:00013e60       ??_C@_03BMEAKALM@kua@      00000001800cbe60     MPEG4_Handler.obj
 0002:00013e64       ??_C@_02NLCOIBAB@kj@       00000001800cbe64     MPEG4_Handler.obj
 0002:00013e68       ??_C@_03HNKPOBCO@kur@      00000001800cbe68     MPEG4_Handler.obj
 0002:00013e6c       ??_C@_02BGHEIPJP@ku@       00000001800cbe6c     MPEG4_Handler.obj
 0002:00013e70       ??_C@_03EDLLOCH@lao@       00000001800cbe70     MPEG4_Handler.obj
 0002:00013e74       ??_C@_02KDBGGDMB@lo@       00000001800cbe74     MPEG4_Handler.obj
 0002:00013e78       ??_C@_03KNANHFLN@lat@      00000001800cbe78     MPEG4_Handler.obj
 0002:00013e7c       ??_C@_02DNJFEOEP@la@       00000001800cbe7c     MPEG4_Handler.obj
 0002:00013e80       ??_C@_03JPDLBHDP@lav@      00000001800cbe80     MPEG4_Handler.obj
 0002:00013e84       ??_C@_02DIBGMKNJ@lv@       00000001800cbe84     MPEG4_Handler.obj
 0002:00013e88       ??_C@_03DIBOINBN@lim@      00000001800cbe88     MPEG4_Handler.obj
 0002:00013e8c       ??_C@_02PFEMMEEH@li@       00000001800cbe8c     MPEG4_Handler.obj
 0002:00013e90       ??_C@_03BDDDNONO@lin@      00000001800cbe90     MPEG4_Handler.obj
 0002:00013e94       ??_C@_02LKANFCIA@ln@       00000001800cbe94     MPEG4_Handler.obj
 0002:00013e98       ??_C@_03KDBOCEAF@lit@      00000001800cbe98     MPEG4_Handler.obj
 0002:00013e9c       ??_C@_02KCAKIFL@lt@        00000001800cbe9c     MPEG4_Handler.obj
 0002:00013ea0       ??_C@_03CJGDDJKI@ltz@      00000001800cbea0     MPEG4_Handler.obj
 0002:00013ea4       ??_C@_02BGLIBNIM@lb@       00000001800cbea4     MPEG4_Handler.obj
 0002:00013ea8       ??_C@_03KKLKMLMG@lub@      00000001800cbea8     MPEG4_Handler.obj
 0002:00013eac       ??_C@_02BDDLJJBK@lu@       00000001800cbeac     MPEG4_Handler.obj
 0002:00013eb0       ??_C@_03NHMNDPID@lug@      00000001800cbeb0     MPEG4_Handler.obj
 0002:00013eb4       ??_C@_02GLMPOJMJ@lg@       00000001800cbeb4     MPEG4_Handler.obj
 0002:00013eb8       ??_C@_03BADCJGEO@mac@      00000001800cbeb8     MPEG4_Handler.obj
 0002:00013ebc       ??_C@_02MGLIMMPC@mk@       00000001800cbebc     MPEG4_Handler.obj
 0002:00013ec0       ??_C@_03FCOEIFFP@mkd@      00000001800cbec0     MPEG4_Handler.obj
 0002:00013ec4       ??_C@_03PDMGEPIF@mah@      00000001800cbec4     MPEG4_Handler.obj
 0002:00013ec8       ??_C@_02ONJFJPDB@mh@       00000001800cbec8     MPEG4_Handler.obj
 0002:00013ecc       ??_C@_03JHKKIKIB@mal@      00000001800cbecc     MPEG4_Handler.obj
 0002:00013ed0       ??_C@_02IJPJFKDF@ml@       00000001800cbed0     MPEG4_Handler.obj
 0002:00013ed4       ??_C@_03LMIHNJEC@mao@      00000001800cbed4     MPEG4_Handler.obj
 0002:00013ed8       ??_C@_02PEIOKOHA@mi@       00000001800cbed8     MPEG4_Handler.obj
 0002:00013edc       ??_C@_03PELNGDON@mri@      00000001800cbedc     MPEG4_Handler.obj
 0002:00013ee0       ??_C@_03EDOLLFFO@mar@      00000001800cbee0     MPEG4_Handler.obj
 0002:00013ee4       ??_C@_02FNLIGFOK@mr@       00000001800cbee4     MPEG4_Handler.obj
 0002:00013ee8       ??_C@_03KABPGMJF@may@      00000001800cbee8     MPEG4_Handler.obj
 0002:00013eec       ??_C@_02EEKDFEKL@ms@       00000001800cbeec     MPEG4_Handler.obj
 0002:00013ef0       ??_C@_03DNKGIDNC@msa@      00000001800cbef0     MPEG4_Handler.obj
 0002:00013ef4       ??_C@_03HMIGMABJ@mlg@      00000001800cbef4     MPEG4_Handler.obj
 0002:00013ef8       ??_C@_02GKANIDPO@mg@       00000001800cbef8     MPEG4_Handler.obj
 0002:00013efc       ??_C@_03BNGJIBIL@mlt@      00000001800cbefc     MPEG4_Handler.obj
 0002:00013f00       ??_C@_02LOCMCGM@mt@        00000001800cbf00     MPEG4_Handler.obj
 0002:00013f04       ??_C@_03JNDEKHIL@mol@      00000001800cbf04     MPEG4_Handler.obj
 0002:00013f08       ??_C@_02KCNEAJPG@mo@       00000001800cbf08     MPEG4_Handler.obj
 0002:00013f0c       ??_C@_03KPACMFAJ@mon@      00000001800cbf0c     MPEG4_Handler.obj
 0002:00013f10       ??_C@_02LLMPDILH@mn@       00000001800cbf10     MPEG4_Handler.obj
 0002:00013f14       ??_C@_03BOBPIMHH@nau@      00000001800cbf14     MPEG4_Handler.obj
 0002:00013f18       ??_C@_02DOBBJKCB@na@       00000001800cbf18     MPEG4_Handler.obj
 0002:00013f1c       ??_C@_03DFDCNPLE@nav@      00000001800cbf1c     MPEG4_Handler.obj
 0002:00013f20       ??_C@_02DLJCBOLH@nv@       00000001800cbf20     MPEG4_Handler.obj
 0002:00013f24       ??_C@_03IHFJJLDG@nbl@      00000001800cbf24     MPEG4_Handler.obj
 0002:00013f28       ??_C@_02FPPONLLD@nr@       00000001800cbf28     MPEG4_Handler.obj
 0002:00013f2c       ??_C@_03FCBGFMMN@nde@      00000001800cbf2c     MPEG4_Handler.obj
 0002:00013f30       ??_C@_02EDGGGOGE@nd@       00000001800cbf30     MPEG4_Handler.obj
 0002:00013f34       ??_C@_03KIPJLEEH@ndo@      00000001800cbf34     MPEG4_Handler.obj
 0002:00013f38       ??_C@_02GIELDNKH@ng@       00000001800cbf38     MPEG4_Handler.obj
 0002:00013f3c       ??_C@_03GEGBNAOO@nep@      00000001800cbf3c     MPEG4_Handler.obj
 0002:00013f40       ??_C@_02FKHNFPCF@ne@       00000001800cbf40     MPEG4_Handler.obj
 0002:00013f44       ??_C@_03KFGODBJB@nno@      00000001800cbf44     MPEG4_Handler.obj
 0002:00013f48       ??_C@_02LJIJIGOO@nn@       00000001800cbf48     MPEG4_Handler.obj
 0002:00013f4c       ??_C@_03BBACCFOL@nob@      00000001800cbf4c     MPEG4_Handler.obj
 0002:00013f50       ??_C@_02BFDMMJOC@nb@       00000001800cbf50     MPEG4_Handler.obj
 0002:00013f54       ??_C@_03FLMADHLK@nor@      00000001800cbf54     MPEG4_Handler.obj
 0002:00013f58       ??_C@_02KAJCLHKP@no@       00000001800cbf58     MPEG4_Handler.obj
 0002:00013f5c       ??_C@_03CCIEKJOK@nya@      00000001800cbf5c     MPEG4_Handler.obj
 0002:00013f60       ??_C@_02LMAKACHI@ny@       00000001800cbf60     MPEG4_Handler.obj
 0002:00013f64       ??_C@_03EDFAGCCB@oci@      00000001800cbf64     MPEG4_Handler.obj
 0002:00013f68       ??_C@_02NOFJCJE@oc@        00000001800cbf68     MPEG4_Handler.obj
 0002:00013f6c       ??_C@_03EMIBFJKO@oji@      00000001800cbf6c     MPEG4_Handler.obj
 0002:00013f70       ??_C@_02NMCHCJNN@oj@       00000001800cbf70     MPEG4_Handler.obj
 0002:00013f74       ??_C@_03FOLEKLGG@ori@      00000001800cbf74     MPEG4_Handler.obj
 0002:00013f78       ??_C@_02FODMLBIE@or@       00000001800cbf78     MPEG4_Handler.obj
 0002:00013f7c       ??_C@_03DKNIGOGC@orm@      00000001800cbf7c     MPEG4_Handler.obj
 0002:00013f80       ??_C@_02JDGGLPBK@om@       00000001800cbf80     MPEG4_Handler.obj
 0002:00013f84       ??_C@_03OPFLDLIK@oss@      00000001800cbf84     MPEG4_Handler.obj
 0002:00013f88       ??_C@_02EHCHIAMF@os@       00000001800cbf88     MPEG4_Handler.obj
 0002:00013f8c       ??_C@_03HOPGHEB@pan@       00000001800cbf8c     MPEG4_Handler.obj
 0002:00013f90       ??_C@_02CIKJBEFL@pa@       00000001800cbf90     MPEG4_Handler.obj
 0002:00013f94       ??_C@_03EAHGGCNF@pli@      00000001800cbf94     MPEG4_Handler.obj
 0002:00013f98       ??_C@_03DPEHCIMJ@pol@      00000001800cbf98     MPEG4_Handler.obj
 0002:00013f9c       ??_C@_02JNAHGKBG@pl@       00000001800cbf9c     MPEG4_Handler.obj
 0002:00013fa0       ??_C@_03OLAGBHBG@por@      00000001800cbfa0     MPEG4_Handler.obj
 0002:00013fa4       ??_C@_02BPBMPCEP@pt@       00000001800cbfa4     MPEG4_Handler.obj
 0002:00013fa8       ??_C@_03ODKMAAPB@pus@      00000001800cbfa8     MPEG4_Handler.obj
 0002:00013fac       ??_C@_03EHIINCED@que@      00000001800cbfac     MPEG4_Handler.obj
 0002:00013fb0       ??_C@_02HMFKJDJ@qu@        00000001800cbfb0     MPEG4_Handler.obj
 0002:00013fb4       ??_C@_03PBCCCFEG@roh@      00000001800cbfb4     MPEG4_Handler.obj
 0002:00013fb8       ??_C@_02IHJIIPDJ@rm@       00000001800cbfb8     MPEG4_Handler.obj
 0002:00013fbc       ??_C@_03KHHIICMA@ron@      00000001800cbfbc     MPEG4_Handler.obj
 0002:00013fc0       ??_C@_02LFKOONLL@ro@       00000001800cbfc0     MPEG4_Handler.obj
 0002:00013fc4       ??_C@_03JNOEPHKF@rum@      00000001800cbfc4     MPEG4_Handler.obj
 0002:00013fc8       ??_C@_03LGMJKEGG@run@      00000001800cbfc8     MPEG4_Handler.obj
 0002:00013fcc       ??_C@_02KMLFNMPK@rn@       00000001800cbfcc     MPEG4_Handler.obj
 0002:00013fd0       ??_C@_03EJKFMIHK@rus@      00000001800cbfd0     MPEG4_Handler.obj
 0002:00013fd4       ??_C@_02FIDBHGA@ru@        00000001800cbfd4     MPEG4_Handler.obj
 0002:00013fd8       ??_C@_03MEJIHDOG@sag@      00000001800cbfd8     MPEG4_Handler.obj
 0002:00013fdc       ??_C@_02HMLFANIE@sg@       00000001800cbfdc     MPEG4_Handler.obj
 0002:00013fe0       ??_C@_03BFFKMIKP@san@      00000001800cbfe0     MPEG4_Handler.obj
 0002:00013fe4       ??_C@_02CKOPKKAC@sa@       00000001800cbfe4     MPEG4_Handler.obj
 0002:00013fe8       ??_C@_03KDHAGCIM@scc@      00000001800cbfe8     MPEG4_Handler.obj
 0002:00013fec       ??_C@_02ELAAOLJA@sr@       00000001800cbfec     MPEG4_Handler.obj
 0002:00013ff0       ??_C@_03NPHLOKFJ@srp@      00000001800cbff0     MPEG4_Handler.obj
 0002:00013ff4       ??_C@_03BLEJJJBH@sin@      00000001800cbff4     MPEG4_Handler.obj
 0002:00013ff8       ??_C@_02OCDGCAAK@si@       00000001800cbff8     MPEG4_Handler.obj
 0002:00013ffc       ??_C@_03GAPFKPLJ@slk@      00000001800cbffc     MPEG4_Handler.obj
 0002:00014000       ??_C@_02NAAAECII@sk@       00000001800cc000     MPEG4_Handler.obj
 0002:00014004       ??_C@_03EJJGKLN@slo@       00000001800cc004     MPEG4_Handler.obj
 0002:00014008       ??_C@_03JPJJMDKF@slv@      00000001800cc008     MPEG4_Handler.obj
 0002:0001400c       ??_C@_02JPEBNEEP@sl@       00000001800cc00c     MPEG4_Handler.obj
 0002:00014010       ??_C@_03PPLEOIAA@sme@      00000001800cc010     MPEG4_Handler.obj
 0002:00014014       ??_C@_02EOIDGPAG@se@       00000001800cc014     MPEG4_Handler.obj
 0002:00014018       ??_C@_03FFLAAIK@smo@       00000001800cc018     MPEG4_Handler.obj
 0002:0001401c       ??_C@_02IGFKOFAO@sm@       00000001800cc01c     MPEG4_Handler.obj
 0002:00014020       ??_C@_03JJJOJDFN@sna@      00000001800cc020     MPEG4_Handler.obj
 0002:00014024       ??_C@_02KNHHLGMN@sn@       00000001800cc024     MPEG4_Handler.obj
 0002:00014028       ??_C@_03OEOJGHBI@snd@      00000001800cc028     MPEG4_Handler.obj
 0002:0001402c       ??_C@_02FHJIFOEH@sd@       00000001800cc02c     MPEG4_Handler.obj
 0002:00014030       ??_C@_03DEOJLGGG@som@      00000001800cc030     MPEG4_Handler.obj
 0002:00014034       ??_C@_02LEGMIHIM@so@       00000001800cc034     MPEG4_Handler.obj
 0002:00014038       ??_C@_03KPOJBPHO@sot@      00000001800cc038     MPEG4_Handler.obj
 0002:0001403c       ??_C@_02BNFKEMBG@st@       00000001800cc03c     MPEG4_Handler.obj
 0002:00014040       ??_C@_03IPCGBNCH@spa@      00000001800cc040     MPEG4_Handler.obj
 0002:00014044       ??_C@_02EKLAAFBD@es@       00000001800cc044     MPEG4_Handler.obj
 0002:00014048       ??_C@_03PBNFDNAM@srd@      00000001800cc048     MPEG4_Handler.obj
 0002:0001404c       ??_C@_02BINJMIIA@sc@       00000001800cc04c     MPEG4_Handler.obj
 0002:00014050       ??_C@_03JBPIBGKJ@ssw@      00000001800cc050     MPEG4_Handler.obj
 0002:00014054       ??_C@_02FCBLNKNB@ss@       00000001800cc054     MPEG4_Handler.obj
 0002:00014058       ??_C@_03OHFMDAD@sun@       00000001800cc058     MPEG4_Handler.obj
 0002:0001405c       ??_C@_02EEBHNFH@su@        00000001800cc05c     MPEG4_Handler.obj
 0002:00014060       ??_C@_03IKGJALKC@swa@      00000001800cc060     MPEG4_Handler.obj
 0002:00014064       ??_C@_02DGHHBPNF@sw@       00000001800cc064     MPEG4_Handler.obj
 0002:00014068       ??_C@_03OOAFMOKG@swe@      00000001800cc068     MPEG4_Handler.obj
 0002:0001406c       ??_C@_02CPGMCOJE@sv@       00000001800cc06c     MPEG4_Handler.obj
 0002:00014070       ??_C@_03NONHFHJA@tah@      00000001800cc070     MPEG4_Handler.obj
 0002:00014074       ??_C@_02KNLLCENO@ty@       00000001800cc074     MPEG4_Handler.obj
 0002:00014078       ??_C@_03KDKAKDNF@tam@      00000001800cc078     MPEG4_Handler.obj
 0002:0001407c       ??_C@_02CPKALMIH@ta@       00000001800cc07c     MPEG4_Handler.obj
 0002:00014080       ??_C@_03DIKAAKMN@tat@      00000001800cc080     MPEG4_Handler.obj
 0002:00014084       ??_C@_02BIBFFKJD@tt@       00000001800cc084     MPEG4_Handler.obj
 0002:00014088       ??_C@_03LNLCDKEI@tel@      00000001800cc088     MPEG4_Handler.obj
 0002:0001408c       ??_C@_02ELMMHJID@te@       00000001800cc08c     MPEG4_Handler.obj
 0002:00014090       ??_C@_03PBHHHIOB@tgk@      00000001800cc090     MPEG4_Handler.obj
 0002:00014094       ??_C@_02HJPKBLAB@tg@       00000001800cc094     MPEG4_Handler.obj
 0002:00014098       ??_C@_03LODGOOCG@tgl@      00000001800cc098     MPEG4_Handler.obj
 0002:0001409c       ??_C@_02JKAOMCMK@tl@       00000001800cc09c     MPEG4_Handler.obj
 0002:000140a0       ??_C@_03MENHFG@tha@        00000001800cc0a0     MPEG4_Handler.obj
 0002:000140a4       ??_C@_02POGCAHMO@th@       00000001800cc0a4     MPEG4_Handler.obj
 0002:000140a8       ??_C@_03GAOJPMPD@tir@      00000001800cc0a8     MPEG4_Handler.obj
 0002:000140ac       ??_C@_02OHHJDGIP@ti@       00000001800cc0ac     MPEG4_Handler.obj
 0002:000140b0       ??_C@_03ICBDNNBM@ton@      00000001800cc0b0     MPEG4_Handler.obj
 0002:000140b4       ??_C@_02LBCDJBAJ@to@       00000001800cc0b4     MPEG4_Handler.obj
 0002:000140b8       ??_C@_03JHCPIHAI@tsn@      00000001800cc0b8     MPEG4_Handler.obj
 0002:000140bc       ??_C@_02KIDIKAEI@tn@       00000001800cc0bc     MPEG4_Handler.obj
 0002:000140c0       ??_C@_03IODELGEJ@tso@      00000001800cc0c0     MPEG4_Handler.obj
 0002:000140c4       ??_C@_02FHFEMMFE@ts@       00000001800cc0c4     MPEG4_Handler.obj
 0002:000140c8       ??_C@_03OONFAPPP@tuk@      00000001800cc0c8     MPEG4_Handler.obj
 0002:000140cc       ??_C@_02NFEPFEAN@tk@       00000001800cc0cc     MPEG4_Handler.obj
 0002:000140d0       ??_C@_03HFNFKGOH@tur@      00000001800cc0d0     MPEG4_Handler.obj
 0002:000140d4       ??_C@_02EOEPPNBF@tr@       00000001800cc0d4     MPEG4_Handler.obj
 0002:000140d8       ??_C@_03NPGHLJBD@twi@      00000001800cc0d8     MPEG4_Handler.obj
 0002:000140dc       ??_C@_02DDDIAJFA@tw@       00000001800cc0dc     MPEG4_Handler.obj
 0002:000140e0       ??_C@_03OPOAHNIC@uig@      00000001800cc0e0     MPEG4_Handler.obj
 0002:000140e4       ??_C@_02HIDIHBDG@ug@       00000001800cc0e4     MPEG4_Handler.obj
 0002:000140e8       ??_C@_03NLNBEPPI@ukr@      00000001800cc0e8     MPEG4_Handler.obj
 0002:000140ec       ??_C@_02NEINDODK@uk@       00000001800cc0ec     MPEG4_Handler.obj
 0002:000140f0       ??_C@_03NELOGCNA@urd@      00000001800cc0f0     MPEG4_Handler.obj
 0002:000140f4       ??_C@_02EPINJHCC@ur@       00000001800cc0f4     MPEG4_Handler.obj
 0002:000140f8       ??_C@_03IMPHJEOO@uzb@      00000001800cc0f8     MPEG4_Handler.obj
 0002:000140fc       ??_C@_02IHFEBNCK@uz@       00000001800cc0fc     MPEG4_Handler.obj
 0002:00014100       ??_C@_03CFINJAEB@ven@      00000001800cc100     MPEG4_Handler.obj
 0002:00014104       ??_C@_02EIEIKNON@ve@       00000001800cc104     MPEG4_Handler.obj
 0002:00014108       ??_C@_03MPGDLAOO@vie@      00000001800cc108     MPEG4_Handler.obj
 0002:0001410c       ??_C@_02OEPNOCOB@vi@       00000001800cc10c     MPEG4_Handler.obj
 0002:00014110       ??_C@_03BKCMHHBF@vol@      00000001800cc110     MPEG4_Handler.obj
 0002:00014114       ??_C@_02LCKHEFGH@vo@       00000001800cc114     MPEG4_Handler.obj
 0002:00014118       ??_C@_03JCOAMMKL@wln@      00000001800cc118     MPEG4_Handler.obj
 0002:0001411c       ??_C@_02CNOGACNO@wa@       00000001800cc11c     MPEG4_Handler.obj
 0002:00014120       ??_C@_03KCJABAHA@wol@      00000001800cc120     MPEG4_Handler.obj
 0002:00014124       ??_C@_02LDGFCPFA@wo@       00000001800cc124     MPEG4_Handler.obj
 0002:00014128       ??_C@_03NEJBEFGA@xho@      00000001800cc128     MPEG4_Handler.obj
 0002:0001412c       ??_C@_02PHHIPOKK@xh@       00000001800cc12c     MPEG4_Handler.obj
 0002:00014130       ??_C@_03IOBLJBPJ@yid@      00000001800cc130     MPEG4_Handler.obj
 0002:00014134       ??_C@_02OPKBKFNM@yi@       00000001800cc134     MPEG4_Handler.obj
 0002:00014138       ??_C@_03JGAOFIJM@yor@      00000001800cc138     MPEG4_Handler.obj
 0002:0001413c       ??_C@_02LJPLACFK@yo@       00000001800cc13c     MPEG4_Handler.obj
 0002:00014140       ??_C@_03OABLKAGF@zha@      00000001800cc140     MPEG4_Handler.obj
 0002:00014144       ??_C@_02CFDOJBIN@za@       00000001800cc144     MPEG4_Handler.obj
 0002:00014148       ??_C@_03EBELOOAL@zul@      00000001800cc148     MPEG4_Handler.obj
 0002:0001414c       ??_C@_02LJAEGNI@zu@        00000001800cc14c     MPEG4_Handler.obj
 0002:00014150       ??_C@_0BP@NEIMPPOF@MPEG4_CheckFormat?5?9?5User?5abort@ 00000001800cc150     MPEG4_Handler.obj
 0002:00014170       ??_C@_0L@MGLDDKGJ@ModifyDate@ 00000001800cc170     MPEG4_Handler.obj
 0002:00014180       ??_C@_08LGBPINEC@duration@ 00000001800cc180     MPEG4_Handler.obj
 0002:0001418c       ??_C@_05MFEJDJP@value@     00000001800cc18c     MPEG4_Handler.obj
 0002:00014194       ??_C@_04DBADCPAE@1?1?$CFu@ 00000001800cc194     MPEG4_Handler.obj
 0002:0001419c       ??_C@_05MHMEBBGO@scale@    00000001800cc19c     MPEG4_Handler.obj
 0002:000141a8       ??_C@_09KDJMMOFO@moov?1mvhd@ 00000001800cc1a8     MPEG4_Handler.obj
 0002:000141b8       ??_C@_09GBFHCDFI@moov?1udta@ 00000001800cc1b8     MPEG4_Handler.obj
 0002:000141c4       ??_C@_06LDDMBFAK@vfffll@   00000001800cc1c4     MPEG4_Handler.obj
 0002:000141cc       ??_C@_04IOHABJIC@lang@     00000001800cc1cc     MPEG4_Handler.obj
 0002:000141d8       ??_C@_0CF@GLDAAHFK@http?3?1?1www?4w3?4org?1XML?11998?1name@ 00000001800cc1d8     MPEG4_Handler.obj
 0002:00014200       ??_C@_08CAHFCGLA@tapeName@ 00000001800cc200     MPEG4_Handler.obj
 0002:00014210       ??_C@_0BO@FCAOKHPE@startTimecode?1xmpDM?3timeValue@ 00000001800cc210     MPEG4_Handler.obj
 0002:00014230       ??_C@_0L@PFMCOPMG@30Timecode@ 00000001800cc230     MPEG4_Handler.obj
 0002:00014240       ??_C@_0L@BNHHCFIF@50Timecode@ 00000001800cc240     MPEG4_Handler.obj
 0002:00014250       ??_C@_0L@IEJFEDIE@60Timecode@ 00000001800cc250     MPEG4_Handler.obj
 0002:00014260       ??_C@_0BB@OHGBHCKF@5994DropTimecode@ 00000001800cc260     MPEG4_Handler.obj
 0002:00014278       ??_C@_0BE@GMOOLOEL@5994NonDropTimecode@ 00000001800cc278     MPEG4_Handler.obj
 0002:00014290       ??_C@_0L@FPFMPDDA@0123456789@ 00000001800cc290     MPEG4_Handler.obj
 0002:000142a0       ??_C@_0M@PHMFOOIG@hh?$DLmm?$DLss?$DLff@ 00000001800cc2a0     MPEG4_Handler.obj
 0002:000142b0       ??_C@_0M@GMMOJGJ@hh?3mm?3ss?3ff@ 00000001800cc2b0     MPEG4_Handler.obj
 0002:000142c0       ??_C@_0M@JAOCIGOH@?$CFd?3?$CFd?3?$CFd?3?$CFd@ 00000001800cc2c0     MPEG4_Handler.obj
 0002:000142d0       ??_C@_0M@GBOLIBAI@?$CFd?$DL?$CFd?$DL?$CFd?$DL?$CFd@ 00000001800cc2d0     MPEG4_Handler.obj
 0002:000142dc       ??_C@_04BNEAOCG@moov@      00000001800cc2dc     MPEG4_Handler.obj
 0002:000142e8       ??_C@_0M@CJMDHHKI@altTapeName@ 00000001800cc2e8     MPEG4_Handler.obj
 0002:000142f8       ??_C@_0BP@OBHBIHKB@startTimecode?1xmpDM?3timeFormat@ 00000001800cc2f8     MPEG4_Handler.obj
 0002:00014318       ??_C@_0BM@EOHGJEKP@altTimecode?1xmpDM?3timeValue@ 00000001800cc318     MPEG4_Handler.obj
 0002:00014338       ??_C@_0BN@BNNEHHOO@altTimecode?1xmpDM?3timeFormat@ 00000001800cc338     MPEG4_Handler.obj
 0002:00014358       ??_C@_0P@LMONKOEM@moov?1udta?1PrmL@ 00000001800cc358     MPEG4_Handler.obj
 0002:00014368       ??_C@_0P@LABPLEDI@moov?1udta?1Cr8r@ 00000001800cc368     MPEG4_Handler.obj
 0002:00014378       ??_C@_0BB@LEHFGJNO@posixProjectPath@ 00000001800cc378     MPEG4_Handler.obj
 0002:00014390       ??_C@_0CF@HMPAMBPM@http?3?1?1ns?4adobe?4com?1creatorAtom@ 00000001800cc390     MPEG4_Handler.obj
 0002:000143b8       ??_C@_07GAIEHAJM@macAtom@  00000001800cc3b8     MPEG4_Handler.obj
 0002:000143c0       ??_C@_0P@GNKPNIAB@uncProjectPath@ 00000001800cc3c0     MPEG4_Handler.obj
 0002:000143d0       ??_C@_0M@IOGEOBCF@windowsAtom@ 00000001800cc3d0     MPEG4_Handler.obj
 0002:000143dc       ??_C@_05PAONDCEJ@movie@    00000001800cc3dc     MPEG4_Handler.obj
 0002:000143e4       ??_C@_05BHCMJFK@still@     00000001800cc3e4     MPEG4_Handler.obj
 0002:000143ec       ??_C@_05KNIAAKIP@audio@    00000001800cc3ec     MPEG4_Handler.obj
 0002:000143f4       ??_C@_06EKNFNOKI@custom@   00000001800cc3f4     MPEG4_Handler.obj
 0002:000143fc       ??_C@_04GPMDFGEJ@type@     00000001800cc3fc     MPEG4_Handler.obj
 0002:00014408       ??_C@_0L@BNBEOBDJ@projectRef@ 00000001800cc408     MPEG4_Handler.obj
 0002:00014418       ??_C@_0BA@LIFGCJKD@applicationCode@ 00000001800cc418     MPEG4_Handler.obj
 0002:00014428       ??_C@_0BF@DHLOEPBI@invocationAppleEvent@ 00000001800cc428     MPEG4_Handler.obj
 0002:00014440       ??_C@_09ODADEDNA@extension@ 00000001800cc440     MPEG4_Handler.obj
 0002:00014450       ??_C@_0BA@DPHIOJIE@invocationFlags@ 00000001800cc450     MPEG4_Handler.obj
 0002:00014460       ??_C@_0M@COFEMEDF@CreatorTool@ 00000001800cc460     MPEG4_Handler.obj
 0002:00014470       ??_C@_0BM@DDFKPDGB@Can?8t?5repair?5QuickTime?5file@ 00000001800cc470     MPEG4_Handler.obj
 0002:00014490       ??_C@_0BN@BLMBNAPC@Invalid?5QuickTime?5error?5mode@ 00000001800cc490     MPEG4_Handler.obj
 0002:000144b0       ??_C@_0BL@MFACOKKI@Truncate?5outer?5EOF?5Garbage@ 00000001800cc4b0     MPEG4_Handler.obj
 0002:000144d0       ??_C@_0BI@HNNLAJJD@Missing?5box?5Data?5at?5EOF@ 00000001800cc4d0     MPEG4_Handler.obj
 0002:000144e8       ??_C@_0BK@HCHHECJF@Ill?9formed?5QuickTime?5file@ 00000001800cc4e8     MPEG4_Handler.obj
 0002:00014508       ??_C@_0CO@NHHCFPPF@MPEG4_MetaHandler?3?3CheckFinalBo@ 00000001800cc508     MPEG4_Handler.obj
 0002:00014538       ??_C@_0BM@LFCMNNCM@MPEG?94?5final?5box?5is?5invalid@ 00000001800cc538     MPEG4_Handler.obj
 0002:00014558       ??_C@_0BO@NFLFCPBL@Can?8t?5expand?5final?5box?5header@ 00000001800cc558     MPEG4_Handler.obj
 0002:00014578       ??_C@_0CO@PDJJIFJN@MPEG4_MetaHandler?3?3CacheFileDat@ 00000001800cc578     MPEG4_Handler.obj
 0002:000145a8       ??_C@_0BE@HOIMDBGJ@Oversize?5?8moov?8?5box@ 00000001800cc5a8     MPEG4_Handler.obj
 0002:000145c0       ??_C@_0BI@NEGAAAGJ@Oversize?5XMP?5?8uuid?8?5box@ 00000001800cc5c0     MPEG4_Handler.obj
 0002:000145d8       ??_C@_0O@PFOJKGNM@No?5?8moov?8?5box@ 00000001800cc5d8     MPEG4_Handler.obj
 0002:000145e8       ??_C@_0P@GJIJDKCL@moov?1udta?1XMP_@ 00000001800cc5e8     MPEG4_Handler.obj
 0002:00014600       ??_C@_0II@IKAPIMAG@XMP_Enforce?5failed?3?5?$CIlocalFile?5@ 00000001800cc600     MPEG4_Handler.obj
 0002:00014688       ??_C@_0DC@ELCKBOMK@Offset?5from?5?8stco?8?5or?5?8co64?8?5is@ 00000001800cc688     MPEG4_Handler.obj
 0002:000146c0       ??_C@_0IG@OEGKGBJH@XMP_Enforce?5failed?3?5?$CImoovRef?5?$CB?$DN@ 00000001800cc6c0     MPEG4_Handler.obj
 0002:00014748       ??_C@_0CI@MPGAPJGC@Large?5MPEG?94?5file?5must?5use?5?8co6@ 00000001800cc748     MPEG4_Handler.obj
 0002:00014770       ??_C@_0IH@LIPHKPNO@XMP_Enforce?5failed?3?5?$CItempFile?5?$CB@ 00000001800cc770     MPEG4_Handler.obj
 0002:00014800       ??_C@_0IG@EBEAELAB@XMP_Enforce?5failed?3?5?$CImoovRef?5?$CB?$DN@ 00000001800cc800     MPEG4_Handler.obj
 0002:00014888       ??_C@_0BJ@ODFDLOBA@Bad?5?8stco?8?5size?5or?5count@ 00000001800cc888     MPEG4_Handler.obj
 0002:000148b0       ??_7MOOV_Manager@@6B@      00000001800cc8b0     MPEG4_Handler.obj
 0002:000148c8       ??_7MPEG4_MetaHandler@@6B@ 00000001800cc8c8     MPEG4_Handler.obj
 0002:00014930       ??_7ISOBaseMedia_Manager@@6B@ 00000001800cc930     MPEG4_Handler.obj
 0002:00014974       ??_C@_04GNBLKAFA@?4XML@    00000001800cc974     P2_Handler.obj
 0002:00014980       ??_C@_0BL@HEBAKCN@No?5memory?5for?5P2?5clip?5path@ 00000001800cc980     P2_Handler.obj
 0002:000149a0       ??_C@_0BL@GCDBAOFB@No?5memory?5for?5P2?5clip?5info@ 00000001800cc9a0     P2_Handler.obj
 0002:000149c0       ??_C@_08CCJPGAAB@relation@ 00000001800cc9c0     P2_Handler.obj
 0002:000149d0       ??_C@_0O@KHDHOAPP@globalShotID?3@ 00000001800cc9d0     P2_Handler.obj
 0002:000149e0       ??_C@_0BB@HPGBJJBF@topGlobalClipID?3@ 00000001800cc9e0     P2_Handler.obj
 0002:000149f8       ??_C@_0BG@GGOOGAID@previousGlobalClipID?3@ 00000001800cc9f8     P2_Handler.obj
 0002:00014a10       ??_C@_0BC@COCGIMIK@nextGlobalClipID?3@ 00000001800cca10     P2_Handler.obj
 0002:00014a24       ??_C@_05KKCMAPLJ@Audio@    00000001800cca24     P2_Handler.obj
 0002:00014a30       ??_C@_0N@KLIFAONL@SamplingRate@ 00000001800cca30     P2_Handler.obj
 0002:00014a40       ??_C@_0BA@KKJCAFLJ@audioSampleType@ 00000001800cca40     P2_Handler.obj
 0002:00014a50       ??_C@_0O@IEKDKOPG@BitsPerSample@ 00000001800cca50     P2_Handler.obj
 0002:00014a60       ??_C@_02KMALDIDP@16@       00000001800cca60     P2_Handler.obj
 0002:00014a64       ??_C@_05EAHMIKBN@16Int@    00000001800cca64     P2_Handler.obj
 0002:00014a6c       ??_C@_05PIDEINNG@32Int@    00000001800cca6c     P2_Handler.obj
 0002:00014a74       ??_C@_05BIPFLOHN@Video@    00000001800cca74     P2_Handler.obj
 0002:00014a80       ??_C@_09HFKGELHH@FrameRate@ 00000001800cca80     P2_Handler.obj
 0002:00014a8c       ??_C@_05GIBLJHPJ@Codec@    00000001800cca8c     P2_Handler.obj
 0002:00014a98       ??_C@_0L@JHPIEDAM@DV25?54?31?31@ 00000001800cca98     P2_Handler.obj
 0002:00014aa8       ??_C@_0L@JMFGNNKD@DV25?54?32?30@ 00000001800ccaa8     P2_Handler.obj
 0002:00014ab8       ??_C@_0L@ICOBNMIM@DV50?54?32?32@ 00000001800ccab8     P2_Handler.obj
 0002:00014ac4       ??_C@_05NOBNGAOK@DV100@    00000001800ccac4     P2_Handler.obj
 0002:00014acc       ??_C@_03OCEECCAA@3?12@     00000001800ccacc     P2_Handler.obj
 0002:00014ad0       ??_C@_04CGPBINJN@1440@     00000001800ccad0     P2_Handler.obj
 0002:00014ad8       ??_C@_09JPILMLMI@1920?11440@ 00000001800ccad8     P2_Handler.obj
 0002:00014ae4       ??_C@_03KMDIDIBJ@960@      00000001800ccae4     P2_Handler.obj
 0002:00014ae8       ??_C@_06FFFLBHAI@AVC?9I_@  00000001800ccae8     P2_Handler.obj
 0002:00014af0       ??_C@_05EKAMNAII@Class@    00000001800ccaf0     P2_Handler.obj
 0002:00014af8       ??_C@_09KEKGBNCC@AVC?9Intra@ 00000001800ccaf8     P2_Handler.obj
 0002:00014b04       ??_C@_03GNABGMEE@100@      00000001800ccb04     P2_Handler.obj
 0002:00014b08       ??_C@_0O@EFFIEIKL@AVC?9Intra?5100@ 00000001800ccb08     P2_Handler.obj
 0002:00014b18       ??_C@_03GDGALJEI@1?11@     00000001800ccb18     P2_Handler.obj
 0002:00014b1c       ??_C@_02PNFIDHGF@50@       00000001800ccb1c     P2_Handler.obj
 0002:00014b20       ??_C@_0N@KGMEEGFN@AVC?9Intra?550@ 00000001800ccb20     P2_Handler.obj
 0002:00014b30       ??_C@_0M@EKPIKDOD@AspectRatio@ 00000001800ccb30     P2_Handler.obj
 0002:00014b40       ??_C@_07NBDJKGHG@768?1702@ 00000001800ccb40     P2_Handler.obj
 0002:00014b48       ??_C@_08OCBAFEFB@1024?1702@ 00000001800ccb48     P2_Handler.obj
 0002:00014b54       ??_C@_05DLJPAFKP@10?111@   00000001800ccb54     P2_Handler.obj
 0002:00014b5c       ??_C@_05FKOACCPA@40?133@   00000001800ccb5c     P2_Handler.obj
 0002:00014b68       ??_C@_0BG@HEGBMII@videoPixelAspectRatio@ 00000001800ccb68     P2_Handler.obj
 0002:00014b80       ??_C@_0BA@KDBKCMEC@videoCompressor@ 00000001800ccb80     P2_Handler.obj
 0002:00014b90       ??_C@_05PIOCODLC@pixel@    00000001800ccb90     P2_Handler.obj
 0002:00014b98       ??_C@_0O@FNLJJOCL@StartTimecode@ 00000001800ccb98     P2_Handler.obj
 0002:00014ba8       ??_C@_0O@COBPKAOP@DropFrameFlag@ 00000001800ccba8     P2_Handler.obj
 0002:00014bb8       ??_C@_0BF@CEHHDBBA@P2?5Invalid?5Timecode?4@ 00000001800ccbb8     P2_Handler.obj
 0002:00014bd0       ??_C@_0BO@HKPGHEOA@http?3?1?1ns?4adobe?4com?1exif?11?40?1@ 00000001800ccbd0     P2_Handler.obj
 0002:00014bf0       ??_C@_05CCEIGGCN@?$CFc?$CFlf@ 00000001800ccbf0     P2_Handler.obj
 0002:00014bf8       ??_C@_0L@JHAAIOCK@?$CFd?0?$CF?45lf?$CFc@ 00000001800ccbf8     P2_Handler.obj
 0002:00014c08       ??_C@_0M@JENKGFCF@GPSAltitude@ 00000001800ccc08     P2_Handler.obj
 0002:00014c18       ??_C@_08GHGAAJPE@Altitude@ 00000001800ccc18     P2_Handler.obj
 0002:00014c28       ??_C@_0P@FMLFCCHE@GPSAltitudeRef@ 00000001800ccc28     P2_Handler.obj
 0002:00014c38       ??_C@_04HBPEMOKN@?$CFd?11@ 00000001800ccc38     P2_Handler.obj
 0002:00014c40       ??_C@_04OKNOIOOM@?4MXF@    00000001800ccc40     P2_Handler.obj
 0002:00014c48       ??_C@_09NFCBGALP@?2d?2d?4MXF$@ 00000001800ccc48     P2_Handler.obj
 0002:00014c54       ??_C@_01JKBOJNNK@?$FO@     00000001800ccc54     P2_Handler.obj
 0002:00014c58       ??_C@_04LEMIEKPG@?4BMP@    00000001800ccc58     P2_Handler.obj
 0002:00014c60       ??_C@_09MOEGFEPJ@?2d?2d?4WAV$@ 00000001800ccc60     P2_Handler.obj
 0002:00014c6c       ??_C@_04PJMEMECA@?4MP4@    00000001800ccc6c     P2_Handler.obj
 0002:00014c74       ??_C@_04GHIANNPF@?4BIN@    00000001800ccc74     P2_Handler.obj
 0002:00014c80       ??_C@_0CK@PCJOGJIP@P2?5cannot?5be?5used?5with?5client?9m@ 00000001800ccc80     P2_Handler.obj
 0002:00014cb0       ??_C@_0BJ@DJLENMIJ@P2?5XMP?5file?5open?5failure@ 00000001800cccb0     P2_Handler.obj
 0002:00014cd0       ??_C@_0BN@JAEMFLDC@P2?5XMP?5is?5outrageously?5large@ 00000001800cccd0     P2_Handler.obj
 0002:00014cf0       ??_C@_02IBHCFMCM@P2@       00000001800cccf0     P2_Handler.obj
 0002:00014cf8       ??_C@_0N@CNEODONK@UserClipName@ 00000001800cccf8     P2_Handler.obj
 0002:00014d08       ??_C@_06IOEANFCI@Access@   00000001800ccd08     P2_Handler.obj
 0002:00014d10       ??_C@_07IMEECM@Creator@    00000001800ccd10     P2_Handler.obj
 0002:00014d18       ??_C@_0N@GPGLEEKJ@CreationDate@ 00000001800ccd18     P2_Handler.obj
 0002:00014d28       ??_C@_0P@FBGJDFDM@LastUpdateDate@ 00000001800ccd28     P2_Handler.obj
 0002:00014d38       ??_C@_08EOOPFMPL@ShotMark@ 00000001800ccd38     P2_Handler.obj
 0002:00014d44       ??_C@_05GPIMPDD@Shoot@     00000001800ccd44     P2_Handler.obj
 0002:00014d50       ??_C@_07KMKFKOFG@Shooter@  00000001800ccd50     P2_Handler.obj
 0002:00014d58       ??_C@_06JBJNGGPL@Artist@   00000001800ccd58     P2_Handler.obj
 0002:00014d60       ??_C@_08KDOEBHGA@Location@ 00000001800ccd60     P2_Handler.obj
 0002:00014d70       ??_C@_09NNMMLKBK@PlaceName@ 00000001800ccd70     P2_Handler.obj
 0002:00014d80       ??_C@_09LIEFEKBN@Longitude@ 00000001800ccd80     P2_Handler.obj
 0002:00014d90       ??_C@_0N@EJGCBCDD@GPSLongitude@ 00000001800ccd90     P2_Handler.obj
 0002:00014da0       ??_C@_08NCKPLHC@Latitude@  00000001800ccda0     P2_Handler.obj
 0002:00014db0       ??_C@_0M@POJAJHKD@GPSLatitude@ 00000001800ccdb0     P2_Handler.obj
 0002:00014dbc       ??_C@_06OIEJKIHP@Device@   00000001800ccdbc     P2_Handler.obj
 0002:00014dc8       ??_C@_0N@BBNLMPJO@Manufacturer@ 00000001800ccdc8     P2_Handler.obj
 0002:00014dd8       ??_C@_09ENEBNHO@SerialNo?4@ 00000001800ccdd8     P2_Handler.obj
 0002:00014de8       ??_C@_09DKCOOGBB@ModelName@ 00000001800ccde8     P2_Handler.obj
 0002:00014df8       ??_C@_08CHDKINPP@Scenario@ 00000001800ccdf8     P2_Handler.obj
 0002:00014e08       ??_C@_08IFKIGONA@SceneNo?4@ 00000001800cce08     P2_Handler.obj
 0002:00014e14       ??_C@_05ELCCFCFH@scene@    00000001800cce14     P2_Handler.obj
 0002:00014e20       ??_C@_07GGNGDHGA@TakeNo?4@ 00000001800cce20     P2_Handler.obj
 0002:00014e28       ??_C@_0L@EONILNBH@takeNumber@ 00000001800cce28     P2_Handler.obj
 0002:00014e34       ??_C@_04OLFKICEI@xsi?3@    00000001800cce34     P2_Handler.obj
 0002:00014e40       ??_C@_0CK@FAJBIKFJ@http?3?1?1www?4w3?4org?12001?1XMLSchem@ 00000001800cce40     P2_Handler.obj
 0002:00014e70       ??_C@_08FAHNNEEP@ClipName@ 00000001800cce70     P2_Handler.obj
 0002:00014e80       ??_C@_0BM@CGPBKHEL@Failure?5opening?5P2?5XMP?5file@ 00000001800cce80     P2_Handler.obj
 0002:00014ea0       ??_C@_0CD@CMFEPNEI@Failure?5opening?5P2?5legacy?5XML?5f@ 00000001800ccea0     P2_Handler.obj
 0002:00014ec8       ??_C@_0DD@CFCPJBAF@P2_MetaHandler?3?3WriteTempFile?5s@ 00000001800ccec8     P2_Handler.obj
 0002:00014f08       ??_7?$basic_ostringstream@DU?$char_traits@D@std@@V?$allocator@D@2@@std@@6B@ 00000001800ccf08     P2_Handler.obj
 0002:00014f18       ??_7P2_MetaHandler@@6B@    00000001800ccf18     P2_Handler.obj
 0002:00014f78       ??_8?$basic_ostringstream@DU?$char_traits@D@std@@V?$allocator@D@2@@std@@7B@ 00000001800ccf78     P2_Handler.obj
 0002:00014f78       ??_8?$basic_stringstream@DU?$char_traits@D@std@@V?$allocator@D@2@@std@@7B?$basic_ostream@DU?$char_traits@D@std@@@1@@ 00000001800ccf78     P2_Handler.obj
 0002:00014f88       ??_7?$basic_stringbuf@DU?$char_traits@D@std@@V?$allocator@D@2@@std@@6B@ 00000001800ccf88     P2_Handler.obj
 0002:00015008       ??_7?$basic_stringstream@DU?$char_traits@D@std@@V?$allocator@D@2@@std@@6B@ 00000001800cd008     P2_Handler.obj
 0002:00015010       ??_8?$basic_stringstream@DU?$char_traits@D@std@@V?$allocator@D@2@@std@@7B?$basic_istream@DU?$char_traits@D@std@@@1@@ 00000001800cd010     P2_Handler.obj
 0002:00015018       ??_C@_08PMDMHAIK@?$IJPNG?$AN?6?$BK?6@ 00000001800cd018     PNG_Handler.obj
 0002:00015028       ??_C@_0DH@ELLGHNDM@PNG_MetaHandler?3?3UpdateFile?3?5Sa@ 00000001800cd028     PNG_Handler.obj
 0002:00015060       ??_C@_0BH@HAPLEEEE@PNG?5chunk?5copy?5failed?4@ 00000001800cd060     PNG_Handler.obj
 0002:00015078       ??_C@_0BP@FFJFJBIB@Failure?5creating?5PNG?5temp?5file@ 00000001800cd078     PNG_Handler.obj
 0002:000150a0       ??_7ChunkState@PNG_Support@@6B@ 00000001800cd0a0     PNG_Handler.obj
 0002:000150b0       ??_7ChunkData@PNG_Support@@6B@ 00000001800cd0b0     PNG_Handler.obj
 0002:000150c0       ??_7PNG_MetaHandler@@6B@   00000001800cd0c0     PNG_Handler.obj
 0002:00015120       ??_C@_04GELLELDE@8BPS@     00000001800cd120     PSD_Handler.obj
 0002:00015128       ??_C@_0CM@MPNFIABD@PSD_MetaHandler?3?3CacheFileData?5@ 00000001800cd128     PSD_Handler.obj
 0002:00015158       ??_C@_0BJ@MKOIACIH@Invalid?5PSD?5chunk?5length@ 00000001800cd158     PSD_Handler.obj
 0002:00015180       ??_7PSD_MetaHandler@@6B@   00000001800cd180     PSD_Handler.obj
 0002:000151e0       ??_C@_0BL@NMICCBBC@Seek?5failure?5in?5FillBuffer@ 00000001800cd1e0     PostScript_Handler.obj
 0002:00015200       ??_C@_0DI@OFBBDBC@PostScript_MetaHandler?3?3FindPos@ 00000001800cd200     PostScript_Handler.obj
 0002:00015238       ??_C@_06BAIECJDC@NoMain@   00000001800cd238     PostScript_Handler.obj
 0002:00015240       ??_C@_06LBEFMFH@MainFi@    00000001800cd240     PostScript_Handler.obj
 0002:00015248       ??_C@_03CGJCCAP@rst@       00000001800cd248     PostScript_Handler.obj
 0002:0001524c       ??_C@_06MOFKFDIJ@MainLa@   00000001800cd24c     PostScript_Handler.obj
 0002:00015258       ??_C@_0DF@EAEKNIPL@PostScript_MetaHandler?3?3FindFir@ 00000001800cd258     PostScript_Handler.obj
 0002:00015290       ??_C@_0DJ@HHHEKGID@PostScript_MetaHandler?3?3FindFir@ 00000001800cd290     PostScript_Handler.obj
 0002:000152d0       ??_C@_0DE@DLIHCGMD@PostScript_MetaHandler?3?3FindLas@ 00000001800cd2d0     PostScript_Handler.obj
 0002:00015308       ??_C@_0DF@FOPJJMLB@PostScript_MetaHandler?3?3FindLas@ 00000001800cd308     PostScript_Handler.obj
 0002:00015340       ??_C@_0DI@EEDCCJKA@PostScript_MetaHandler?3?3FindLas@ 00000001800cd340     PostScript_Handler.obj
 0002:00015378       ??_C@_05IFKEJIII@?1DOCI@   00000001800cd378     PostScript_Handler.obj
 0002:00015380       ??_C@_05EFMAAOLA@?$CF?$CFBeg@ 00000001800cd380     PostScript_Handler.obj
 0002:00015388       ??_C@_06DNKFEIPH@inProl@   00000001800cd388     PostScript_Handler.obj
 0002:00015390       ??_C@_02GJIJFHJA@og@       00000001800cd390     PostScript_Handler.obj
 0002:00015394       ??_C@_06DMLILIII@inSetu@   00000001800cd394     PostScript_Handler.obj
 0002:0001539c       ??_C@_01JBBJJEPG@p@        00000001800cd39c     PostScript_Handler.obj
 0002:000153a0       ??_C@_06BEPBEIPB@inBina@   00000001800cd3a0     PostScript_Handler.obj
 0002:000153a8       ??_C@_02KJDGFIGM@ry@       00000001800cd3a8     PostScript_Handler.obj
 0002:000153b0       ??_C@_0M@LLJPJDHH@?$CF?$CFEndBinary@ 00000001800cd3b0     PostScript_Handler.obj
 0002:000153bc       ??_C@_06EPLELDBI@inData@   00000001800cd3bc     PostScript_Handler.obj
 0002:000153c4       ??_C@_01JLIPDDHJ@?3@       00000001800cd3c4     PostScript_Handler.obj
 0002:000153c8       ??_C@_09FFABNKAJ@?$CF?$CFEndData@ 00000001800cd3c8     PostScript_Handler.obj
 0002:000153d4       ??_C@_06JIKMKGIL@inDocu@   00000001800cd3d4     PostScript_Handler.obj
 0002:000153dc       ??_C@_05GCNCECA@ment?3@    00000001800cd3dc     PostScript_Handler.obj
 0002:000153e4       ??_C@_06KANIFKHH@inPage@   00000001800cd3e4     PostScript_Handler.obj
 0002:000153ec       ??_C@_05MKNDILO@Setup@     00000001800cd3ec     PostScript_Handler.obj
 0002:000153f4       ??_C@_05PPGPIKCL@?$CF?$CFEnd@ 00000001800cd3f4     PostScript_Handler.obj
 0002:000153fc       ??_C@_05BEMEHHN@Prolo@     00000001800cd3fc     PostScript_Handler.obj
 0002:00015404       ??_C@_01JEJKBAGA@g@        00000001800cd404     PostScript_Handler.obj
 0002:00015408       ??_C@_05JPJKMALA@PageS@    00000001800cd408     PostScript_Handler.obj
 0002:00015410       ??_C@_04PBFHBEFJ@etup@     00000001800cd410     PostScript_Handler.obj
 0002:00015418       ??_C@_05NFFINCOB@PageC@    00000001800cd418     PostScript_Handler.obj
 0002:00015420       ??_C@_07BANMDBJE@omments@  00000001800cd420     PostScript_Handler.obj
 0002:00015428       ??_C@_05LINJDJHI@?$CF?$CFPag@ 00000001800cd428     PostScript_Handler.obj
 0002:00015430       ??_C@_05HPIBBEIA@?$CF?$CFTra@ 00000001800cd430     PostScript_Handler.obj
 0002:00015438       ??_C@_04IPBKEHNK@iler@     00000001800cd438     PostScript_Handler.obj
 0002:00015440       ??_C@_05GBFCOANM@?$CF?$CFEOF@ 00000001800cd440     PostScript_Handler.obj
 0002:00015448       ??_C@_06HHECMMLE@Author@   00000001800cd448     PostScript_Handler.obj
 0002:00015450       ??_C@_05PABKJLOM@Title@    00000001800cd450     PostScript_Handler.obj
 0002:00015458       ??_C@_07GEKACEDI@Subject@  00000001800cd458     PostScript_Handler.obj
 0002:00015460       ??_C@_08CDHFLBJH@Keywords@ 00000001800cd460     PostScript_Handler.obj
 0002:00015470       ??_C@_07KDEFLHGL@ModDate@  00000001800cd470     PostScript_Handler.obj
 0002:00015478       ??_C@_0M@PPJNHBMP@description@ 00000001800cd478     PostScript_Handler.obj
 0002:00015488       ??_C@_07JNNGEGGO@subject@  00000001800cd488     PostScript_Handler.obj
 0002:00015490       ??_C@_0BF@FLOMLON@?$CF?$CFEndComment?5Missing@ 00000001800cd490     PostScript_Handler.obj
 0002:000154a8       ??_C@_0CI@JAOAKMGP@Invalid?5File?5Refernce?5Cannot?5up@ 00000001800cd4a8     PostScript_Handler.obj
 0002:000154d0       ??_C@_0BC@KFAGBILN@XMP?5Write?5Failed?5@ 00000001800cd4d0     PostScript_Handler.obj
 0002:000154f0       ??_7PostScript_MetaHandler@@6B@ 00000001800cd4f0     PostScript_Handler.obj
 0002:00015550       ??_C@_0CC@GHLBDLME@http?3?1?1ns?4adobe?4com?1bwf?1bext?11?4@ 00000001800cd550     RIFF_Handler.obj
 0002:00015578       ??_C@_0L@LNFLHOFG@originator@ 00000001800cd578     RIFF_Handler.obj
 0002:00015588       ??_C@_0BE@MFNBGAAE@originatorReference@ 00000001800cd588     RIFF_Handler.obj
 0002:000155a0       ??_C@_0BA@JKDCFHEC@originationDate@ 00000001800cd5a0     RIFF_Handler.obj
 0002:000155b0       ??_C@_0BA@CMJBHANA@originationTime@ 00000001800cd5b0     RIFF_Handler.obj
 0002:000155c0       ??_C@_0O@DJFKFLPA@timeReference@ 00000001800cd5c0     RIFF_Handler.obj
 0002:000155d0       ??_C@_07CPCPJPKL@version@  00000001800cd5d0     RIFF_Handler.obj
 0002:000155d8       ??_C@_04IHDEBGIP@umid@     00000001800cd5d8     RIFF_Handler.obj
 0002:000155e0       ??_C@_0O@KPOFHEBP@codingHistory@ 00000001800cd5e0     RIFF_Handler.obj
 0002:000155f0       ??_C@_06OEKOLKIL@source@   00000001800cd5f0     RIFF_Handler.obj
 0002:000155f8       ??_C@_0M@CKHADGBK@altTimecode@ 00000001800cd5f8     RIFF_Handler.obj
 0002:00015604       ??_C@_04EPCGJKAP@RIFF@     00000001800cd604     RIFF_Handler.obj
 0002:0001560c       ??_C@_04FIOHLLII@AVI?5@    00000001800cd60c     RIFF_Handler.obj
 0002:00015614       ??_C@_04HFHJMNCD@WAVE@     00000001800cd614     RIFF_Handler.obj
 0002:00015620       ??_C@_0EE@MFHOJHPG@RIFF_MetaHandler?3?3CacheFileData@ 00000001800cd620     RIFF_Handler.obj
 0002:00015668       ??_C@_0CB@LKMCDPEJ@Excessive?5garbage?5at?5end?5of?5fil@ 00000001800cd668     RIFF_Handler.obj
 0002:00015690       ??_C@_0HM@HDLHJINE@kXMPErr_InternalFailure?5?$CCRIFF_M@ 00000001800cd690     RIFF_Handler.obj
 0002:00015710       ??_C@_0DP@DMMAMPJ@kXMPErr_InternalFailure?5?$CCnothin@ 00000001800cd710     RIFF_Handler.obj
 0002:00015750       ??_C@_0IH@IMBILMBM@XMP_Enforce?5failed?3?5?$CIrc?9?$DOsize?$CI?$CJ@ 00000001800cd750     RIFF_Handler.obj
 0002:000157e0       ??_C@_0IG@IKJNOKKI@XMP_Enforce?5failed?3?5?$CImainChunk?5@ 00000001800cd7e0     RIFF_Handler.obj
 0002:00015870       ??_C@_0FJ@BCAFBPLL@kXMPErr_Unimplemented?5?$CCChunk?5gr@ 00000001800cd870     RIFF_Handler.obj
 0002:000158d0       ??_C@_0GG@NMCHBACA@kXMPErr_Unimplemented?5?$CCcompatib@ 00000001800cd8d0     RIFF_Handler.obj
 0002:00015940       ??_C@_0GH@CAJPLBEC@kXMPErr_Unimplemented?5?$CCcompatib@ 00000001800cd940     RIFF_Handler.obj
 0002:000159b0       ??_C@_0EE@CJIFIDNL@kXMPErr_InternalFailure?5?$CCWAV?5mu@ 00000001800cd9b0     RIFF_Handler.obj
 0002:00015a00       ??_C@_0FJ@HIHLDPHA@kXMPErr_Unimplemented?5?$CCWAV?5abov@ 00000001800cda00     RIFF_Handler.obj
 0002:00015a60       ??_C@_0P@JBFKBJMG@unknown?5format@ 00000001800cda60     RIFF_Handler.obj
 0002:00015a70       ??_C@_0IH@LCLAFDOE@XMP_Enforce?5failed?3?5?$CImainGrowth@ 00000001800cda70     RIFF_Handler.obj
 0002:00015b00       ??_C@_0FM@OBOCFJDA@kXMPErr_InternalFailure?5?$CCmainCh@ 00000001800cdb00     RIFF_Handler.obj
 0002:00015b60       ??_C@_0JE@OBPKOJI@XMP_Enforce?5failed?3?5?$CIcur?9?$DOoldSi@ 00000001800cdb60     RIFF_Handler.obj
 0002:00015c00       ??_C@_0EL@MKPOKHHM@RIFF_MetaHandler?3?3WriteTempFile@ 00000001800cdc00     RIFF_Handler.obj
 0002:00015c58       ??_7RIFF_MetaHandler@@6B@  00000001800cdc58     RIFF_Handler.obj
 0002:00015cc0       ??_C@_0HP@GMJNGMDE@XMP_Enforce?5failed?3?5?$CIerr?5?$DN?$DN?50?$CJ?5@ 00000001800cdcc0     SVG_Handler.obj
 0002:00015d40       ??_C@_0IC@KLLJKNJP@XMP_Enforce?5failed?3?5?$CIioCount?5?$DO?5@ 00000001800cdd40     SVG_Handler.obj
 0002:00015dd0       ??_C@_0JD@GGFMINIP@XMP_Enforce?5failed?3?5?$CI?$CI?5err?5?$DN?$DN?50@ 00000001800cddd0     SVG_Handler.obj
 0002:00015e70       ??_C@_0KG@IPPKCCPO@XMP_Enforce?5failed?3?5?$CI?$CI?5err?5?$DN?$DN?50@ 00000001800cde70     SVG_Handler.obj
 0002:00015f20       ??_C@_0HP@HNCELCN@XMP_Enforce?5failed?3?5?$CIerr?5?$DN?$DN?50?$CJ?5@ 00000001800cdf20     SVG_Handler.obj
 0002:00015fa0       ??_C@_0HP@EJFBLHNN@XMP_Enforce?5failed?3?5?$CIerr?5?$DN?$DN?50?$CJ?5@ 00000001800cdfa0     SVG_Handler.obj
 0002:00016020       ??_C@_0HP@BKEEAGNO@XMP_Enforce?5failed?3?5?$CIerr?5?$DN?$DN?50?$CJ?5@ 00000001800ce020     SVG_Handler.obj
 0002:000160a0       ??_C@_0JD@LMDAKIGJ@XMP_Enforce?5failed?3?5?$CI?$CI?5err?5?$DN?$DN?50@ 00000001800ce0a0     SVG_Handler.obj
 0002:00016140       ??_C@_0HP@BCJMJFIN@XMP_Enforce?5failed?3?5?$CIerr?5?$DN?$DN?50?$CJ?5@ 00000001800ce140     SVG_Handler.obj
 0002:000161c0       ??_C@_0HP@OKLAFPKA@XMP_Enforce?5failed?3?5?$CIerr?5?$DN?$DN?50?$CJ?5@ 00000001800ce1c0     SVG_Handler.obj
 0002:00016240       ??_C@_0IC@DEIPKPEK@XMP_Enforce?5failed?3?5?$CIioCount?5?$DO?5@ 00000001800ce240     SVG_Handler.obj
 0002:000162d0       ??_C@_0HP@KGHFBNAJ@XMP_Enforce?5failed?3?5?$CIerr?5?$DN?$DN?50?$CJ?5@ 00000001800ce2d0     SVG_Handler.obj
 0002:00016350       ??_C@_0JD@CMCFEIKB@XMP_Enforce?5failed?3?5?$CI?$CI?5err?5?$DN?$DN?50@ 00000001800ce350     SVG_Handler.obj
 0002:000163e8       ??_C@_0BL@HBKCMHHO@http?3?1?1www?4w3?4org?12000?1svg@ 00000001800ce3e8     SVG_Handler.obj
 0002:00016408       ??_C@_0BB@PPDIHJOB@Invalid?5SVG?5file@ 00000001800ce408     SVG_Handler.obj
 0002:00016420       ??_C@_0CK@JLIKNHGP@SVG_MetaHandler?3?5Can?8t?5create?5S@ 00000001800ce420     SVG_Handler.obj
 0002:00016450       ??_C@_07PNFCGOMB@xpacket@  00000001800ce450     SVG_Handler.obj
 0002:00016458       ??_C@_08DHGINADL@metadata@ 00000001800ce458     SVG_Handler.obj
 0002:00016468       ??_C@_07EGGPKEPA@xmpmeta@  00000001800ce468     SVG_Handler.obj
 0002:00016470       ??_C@_03GOAPCKFF@RDF@      00000001800ce470     SVG_Handler.obj
 0002:00016474       ??_C@_04EBPADADD@desc@     00000001800ce474     SVG_Handler.obj
 0002:00016480       ??_C@_0BF@MIAIMKHP@Not?5a?5valid?5SVG?5File@ 00000001800ce480     SVG_Handler.obj
 0002:00016498       ??_C@_0CA@NHEJLOBC@Not?5able?5to?5parse?5such?5SVG?5File@ 00000001800ce498     SVG_Handler.obj
 0002:000164b8       ??_C@_0P@BFKBMLAH@adobe?3ns?3meta?1@ 00000001800ce4b8     SVG_Handler.obj
 0002:000164c8       ??_C@_0N@NJBFGFPD@?$DM?1x?3xmpmeta?$DO@ 00000001800ce4c8     SVG_Handler.obj
 0002:000164d8       ??_C@_0CM@DHLAPHHK@http?3?1?1www?4w3?4org?11999?102?122?9rd@ 00000001800ce4d8     SVG_Handler.obj
 0002:00016508       ??_C@_0L@KMFKGOFN@?$DM?1rdf?3RDF?$DO@ 00000001800ce508     SVG_Handler.obj
 0002:00016514       ??_C@_06CHDEJGCJ@title?$DO@ 00000001800ce514     SVG_Handler.obj
 0002:0001651c       ??_C@_01MNNFJEPP@?$DM@     00000001800ce51c     SVG_Handler.obj
 0002:00016520       ??_C@_07LIHKEEHA@title?$DO?6@ 00000001800ce520     SVG_Handler.obj
 0002:00016528       ??_C@_05POFEIKFL@desc?$DO@ 00000001800ce528     SVG_Handler.obj
 0002:00016530       ??_C@_06GKIDEHM@desc?$DO?6@ 00000001800ce530     SVG_Handler.obj
 0002:00016538       ??_C@_09PAPJJKIJ@metadata?$DO@ 00000001800ce538     SVG_Handler.obj
 0002:00016548       ??_C@_0L@GOHLCKJE@metadata?$DO?6@ 00000001800ce548     SVG_Handler.obj
 0002:00016558       ??_C@_0CA@MGAIMECB@SVG?5URI?5not?5present?5in?5svg?5file@ 00000001800ce558     SVG_Handler.obj
 0002:00016580       ??_C@_0KM@IMLIABMB@XMP_Enforce?5failed?3?5?$CIisTitleWri@ 00000001800ce580     SVG_Handler.obj
 0002:00016638       ??_7SVG_MetaHandler@@6B@   00000001800ce638     SVG_Handler.obj
 0002:000166a0       ??_C@_0JM@CLEHBEND@XMP_Enforce?5failed?3?5?$CIfileLength@ 00000001800ce6a0     SWF_Handler.obj
 0002:00016740       ??_C@_0DH@EFLIGHCL@SWF_MetaHandler?3?3UpdateFile?3?5Sa@ 00000001800ce740     SWF_Handler.obj
 0002:00016778       ??_C@_0BN@KIGCJLGF@SWF?5is?5broken?0?5can?8t?5update?4@ 00000001800ce778     SWF_Handler.obj
 0002:00016798       ??_C@_0CL@PHMPGKDE@Index?5not?5valid?4Invalid?5SWF?0?5ca@ 00000001800ce798     SWF_Handler.obj
 0002:000167c8       ??_C@_0DE@FEGJMMFP@SWF_MetaHandler?3?3WriteTempFile?5@ 00000001800ce7c8     SWF_Handler.obj
 0002:00016808       ??_7SWF_MetaHandler@@6B@   00000001800ce808     SWF_Handler.obj
 0002:00016868       ??_C@_08NJHGCJCJ@Manifest@ 00000001800ce868     Scanner_Handler.obj
 0002:00016878       ??_C@_0CA@KHFFGJDD@http?3?1?1ns?4adobe?4com?1xap?11?40?1mm?1@ 00000001800ce878     Scanner_Handler.obj
 0002:00016898       ??_C@_0DE@JOHIJDJL@GetMainPacket?1PickMainPacket?3?5R@ 00000001800ce898     Scanner_Handler.obj
 0002:000168d0       ??_C@_0N@GJNPHEEE@MetadataDate@ 00000001800ce8d0     Scanner_Handler.obj
 0002:000168e0       ??_C@_0CM@JDGFAHLD@Scanner_MetaHandler?3?3LocateXMP?5@ 00000001800ce8e0     Scanner_Handler.obj
 0002:00016910       ??_C@_0CN@OFEAPKM@Scanner_MetaHandler?3?3LocateXMP?3@ 00000001800ce910     Scanner_Handler.obj
 0002:00016940       ??_C@_0BG@EOMJEIFA@vector?$DMbool?$DO?5too?5long@ 00000001800ce940     Scanner_Handler.obj
 0002:00016960       ??_7Scanner_MetaHandler@@6B@ 00000001800ce960     Scanner_Handler.obj
 0002:000169c0       ??_C@_0CA@EIMMMDGP@No?5memory?5for?5SonyHDV?5clip?5info@ 00000001800ce9c0     SonyHDV_Handler.obj
 0002:000169e0       ??_C@_0BM@DLFHPCLP@?$CF02d?9?$CF02d?9?$CF02d_?$CF02d?$CF02d?$CF02d@ 00000001800ce9e0     SonyHDV_Handler.obj
 0002:000169fc       ??_C@_03GGIICLPI@4?13@     00000001800ce9fc     SonyHDV_Handler.obj
 0002:00016a00       ??_C@_05LCKIIOJE@?$CFd?1?$CFd@ 00000001800cea00     SonyHDV_Handler.obj
 0002:00016a08       ??_C@_0BH@FFKIABHB@?$CF02d?$CFc?$CF02d?$CFc?$CF02d?$CFc?$CF02d@ 00000001800cea08     SonyHDV_Handler.obj
 0002:00016a20       ??_C@_08KBDHOFKB@Timecode@ 00000001800cea20     SonyHDV_Handler.obj
 0002:00016a2c       ??_C@_05MEBFOPOH@23976@    00000001800cea2c     SonyHDV_Handler.obj
 0002:00016a34       ??_C@_04NEKCCKAE@2997@     00000001800cea34     SonyHDV_Handler.obj
 0002:00016a40       ??_C@_0N@MIGKLELN@DropTimecode@ 00000001800cea40     SonyHDV_Handler.obj
 0002:00016a50       ??_C@_0BA@HEKJOFOM@NonDropTimecode@ 00000001800cea50     SonyHDV_Handler.obj
 0002:00016a60       ??_C@_0BO@LMKFHOPO@?$CF4d?9?$CF02d?9?$CF02dT?$CF02d?3?$CF02d?3?$CF02dZ@ 00000001800cea60     SonyHDV_Handler.obj
 0002:00016a80       ??_C@_04KEMBHMHA@?4IDX@    00000001800cea80     SonyHDV_Handler.obj
 0002:00016a88       ??_C@_04NHGKLAMJ@?4M2T@    00000001800cea88     SonyHDV_Handler.obj
 0002:00016a90       ??_C@_04CNAOAAJB@?4AVI@    00000001800cea90     SonyHDV_Handler.obj
 0002:00016a98       ??_C@_03FCECHCA@?4DV@      00000001800cea98     SonyHDV_Handler.obj
 0002:00016aa0       ??_C@_0L@PBLHIDNM@tracks?4dat@ 00000001800ceaa0     SonyHDV_Handler.obj
 0002:00016ab0       ??_C@_0CP@POONODAF@SonyHDV?5cannot?5be?5used?5with?5cli@ 00000001800ceab0     SonyHDV_Handler.obj
 0002:00016ae0       ??_C@_0BO@DMKOMJJO@SonyHDV?5XMP?5file?5open?5failure@ 00000001800ceae0     SonyHDV_Handler.obj
 0002:00016b00       ??_C@_0CC@IHCIFLNL@SonyHDV?5XMP?5is?5outrageously?5lar@ 00000001800ceb00     SonyHDV_Handler.obj
 0002:00016b28       ??_C@_07DPGEKLDH@SonyHDV@  00000001800ceb28     SonyHDV_Handler.obj
 0002:00016b30       ??_C@_0CB@CFFNNKH@Failure?5opening?5SonyHDV?5XMP?5fil@ 00000001800ceb30     SonyHDV_Handler.obj
 0002:00016b58       ??_C@_0DI@LOONIIAL@SonyHDV_MetaHandler?3?3WriteTempF@ 00000001800ceb58     SonyHDV_Handler.obj
 0002:00016b98       ??_7SonyHDV_MetaHandler@@6B@ 00000001800ceb98     SonyHDV_Handler.obj
 0002:00016bf8       ??_C@_04LPPIOGFL@II?$CK?$AA@ 00000001800cebf8     TIFF_Handler.obj
 0002:00016c00       ??_C@_04JPKLNINC@MM?$AA?$CK@ 00000001800cec00     TIFF_Handler.obj
 0002:00016c08       ??_C@_0CN@GLHKNLAD@TIFF_MetaHandler?3?3CacheFileData@ 00000001800cec08     TIFF_Handler.obj
 0002:00016c38       ??_C@_0BH@NCNJOMAB@DNG?5version?5beyond?51?4x@ 00000001800cec38     TIFF_Handler.obj
 0002:00016c50       ??_C@_0BL@EJCCOMA@TIFF?5fles?5can?8t?5exceed?54GB@ 00000001800cec50     TIFF_Handler.obj
 0002:00016c78       ??_7TIFF_MetaHandler@@6B@  00000001800cec78     TIFF_Handler.obj
 0002:00016cd8       ??_C@_0DC@BBHDCNML@Trivial_MetaHandler?3?3WriteTempF@ 00000001800cecd8     Trivial_Handler.obj
 0002:00016d10       ??_C@_0FK@DKEOMEIP@kXMPErr_BadFileFormat?5?$CCinvalid?5@ 00000001800ced10     UCF_Handler.obj
 0002:00016d70       ??_C@_0DF@FDLFBKOL@kXMPErr_BadFileFormat?5?$CCinvalid?5@ 00000001800ced70     UCF_Handler.obj
 0002:00016db0       ??_C@_0GH@NJHNAKCF@kXMPErr_BadFileFormat?5?$CCinvalid?5@ 00000001800cedb0     UCF_Handler.obj
 0002:00016e20       ??_C@_0JP@HPFOCOKI@XMP_Enforce?5failed?3?5?$CI?$CIfilenameL@ 00000001800cee20     UCF_Handler.obj
 0002:00016ec0       ??_C@_0BG@OODFNNFH@META?9INF?1metadata?4xml@ 00000001800ceec0     UCF_Handler.obj
 0002:00016ee0       ??_C@_0GA@DKKPFLIN@kXMPErr_BadFileFormat?5?$CCinvalid?5@ 00000001800ceee0     UCF_Handler.obj
 0002:00016f40       ??_C@_0FL@DNCFIFLF@kXMPErr_BadFileFormat?5?$CCneed?54?5b@ 00000001800cef40     UCF_Handler.obj
 0002:00016fa0       ??_C@_0FM@DCIDHAIM@kXMPErr_BadFileFormat?5?$CCactual?5f@ 00000001800cefa0     UCF_Handler.obj
 0002:00017000       ??_C@_0EG@DNJLGPIC@kXMPErr_BadFileFormat?5?$CCextra?5fi@ 00000001800cf000     UCF_Handler.obj
 0002:00017050       ??_C@_0KO@JABKMLKB@XMP_Enforce?5failed?3?5?$CISIG?5?$DN?$DN?5Get@ 00000001800cf050     UCF_Handler.obj
 0002:00017100       ??_C@_0FI@MOIAFDLN@kXMPErr_BadFileFormat?5?$CCinvalid?5@ 00000001800cf100     UCF_Handler.obj
 0002:00017160       ??_C@_0KG@DFCJDJFN@XMP_Enforce?5failed?3?5?$CIthis?9?$DOSIG?5@ 00000001800cf160     UCF_Handler.obj
 0002:00017208       ??_C@_04CLPBGDEI@PK?$AD?$AE@ 00000001800cf208     UCF_Handler.obj
 0002:00017210       ??_C@_08JPDINLFF@mimetype@ 00000001800cf210     UCF_Handler.obj
 0002:00017220       ??_C@_0GP@BGFJMIKP@kXMPErr_BadFileFormat?5?$CCmimetype@ 00000001800cf220     UCF_Handler.obj
 0002:00017290       ??_C@_0DJ@FLBOAEKI@kXMPErr_BadFileFormat?5?$CC0?9byte?5m@ 00000001800cf290     UCF_Handler.obj
 0002:000172d0       ??_C@_0BK@HBMIJLOE@application?1vnd?4adobe?4xfl@ 00000001800cf2d0     UCF_Handler.obj
 0002:000172f0       ??_C@_0BO@FGNAEKCG@application?1vnd?4adobe?4xfl?$CLzip@ 00000001800cf2f0     UCF_Handler.obj
 0002:00017310       ??_C@_0BN@CBODLECM@application?1vnd?4adobe?4x?9mars@ 00000001800cf310     UCF_Handler.obj
 0002:00017330       ??_C@_0BN@LKLKGCDI@application?1vnd?4adobe?4pdfxml@ 00000001800cf330     UCF_Handler.obj
 0002:00017350       ??_C@_0BB@MMFMMGPP@vnd?4adobe?4x?9asnd@ 00000001800cf350     UCF_Handler.obj
 0002:00017368       ??_C@_0CM@CBMCIEDM@application?1vnd?4adobe?4indesign?9@ 00000001800cf368     UCF_Handler.obj
 0002:00017398       ??_C@_0CF@MOGPEJKF@application?1vnd?4adobe?4incopy?9pa@ 00000001800cf398     UCF_Handler.obj
 0002:000173c0       ??_C@_0CH@BFLONLPL@application?1vnd?4adobe?4indesign?9@ 00000001800cf3c0     UCF_Handler.obj
 0002:000173e8       ??_C@_0BO@LCHJLNFB@application?1vnd?4adobe?4collage@ 00000001800cf3e8     UCF_Handler.obj
 0002:00017408       ??_C@_0BM@NPIKELBK@application?1vnd?4adobe?4ideas@ 00000001800cf408     UCF_Handler.obj
 0002:00017428       ??_C@_0BM@IHNEKGMJ@application?1vnd?4adobe?4proto@ 00000001800cf428     UCF_Handler.obj
 0002:00017448       ??_C@_0CO@GKBBFGJM@application?1vnd?4adobe?4sparkler?4@ 00000001800cf448     UCF_Handler.obj
 0002:00017478       ??_C@_0BH@HALPHPIO@3d?1vnd?4adobe?4dn?$CLdcxucf@ 00000001800cf478     UCF_Handler.obj
 0002:00017490       ??_C@_0CF@KPBMCKPD@file?5too?5short?0?5can?8t?5be?5correc@ 00000001800cf490     UCF_Handler.obj
 0002:000174b8       ??_C@_0CH@ODAOPHLB@zip?5broken?5near?5end?5or?5invalid?5@ 00000001800cf4b8     UCF_Handler.obj
 0002:000174e0       ??_C@_0DB@IDLEBCDD@directory?5header?5id?5not?5found?4?5@ 00000001800cf4e0     UCF_Handler.obj
 0002:00017518       ??_C@_0BP@OJGKLJNF@UCF?5must?5be?5?8first?8?5zip?5volume@ 00000001800cf518     UCF_Handler.obj
 0002:00017538       ??_C@_0BO@OCLIPINA@UCF?5must?5be?5single?9volume?5zip@ 00000001800cf538     UCF_Handler.obj
 0002:00017558       ??_C@_0CL@DKBGHIBP@per?5volume?5and?5total?5number?5of?5@ 00000001800cf558     UCF_Handler.obj
 0002:00017590       ??_C@_0EO@MCCFPGOI@kXMPErr_BadFileFormat?5?$CCzip64?5CD@ 00000001800cf590     UCF_Handler.obj
 0002:000175e0       ??_C@_0EH@FNCKGHFJ@kXMPErr_BadFileFormat?5?$CCfile?5in?5@ 00000001800cf5e0     UCF_Handler.obj
 0002:00017630       ??_C@_0GJ@BIDOIBNM@kXMPErr_BadFileFormat?5?$CCzip64?5to@ 00000001800cf630     UCF_Handler.obj
 0002:000176a0       ??_C@_0GI@LDOPKENE@kXMPErr_BadFileFormat?5?$CCinvalid?5@ 00000001800cf6a0     UCF_Handler.obj
 0002:00017710       ??_C@_0FC@KJKJGCKJ@kXMPErr_BadFileFormat?5?$CCnum?5of?5c@ 00000001800cf710     UCF_Handler.obj
 0002:00017770       ??_C@_0FC@GAACPGD@kXMPErr_BadFileFormat?5?$CCnum?5of?5c@ 00000001800cf770     UCF_Handler.obj
 0002:000177d0       ??_C@_0EB@HFFHPHP@kXMPErr_BadFileFormat?5?$CCCD?5lengt@ 00000001800cf7d0     UCF_Handler.obj
 0002:00017818       ??_C@_0BF@CDPMOLMG@?$CGinvalid?5file?5header@ 00000001800cf818     UCF_Handler.obj
 0002:00017830       ??_C@_0IH@CNAKDMJE@kXMPErr_BadFileFormat?5?$CCcontent?5@ 00000001800cf830     UCF_Handler.obj
 0002:000178c0       ??_C@_0HF@DEEEOOKB@kXMPErr_BadFileFormat?5?$CCillegal?5@ 00000001800cf8c0     UCF_Handler.obj
 0002:00017940       ??_C@_0EK@POBJLHF@kXMPErr_BadFileFormat?5?$CCfilename@ 00000001800cf940     UCF_Handler.obj
 0002:00017990       ??_C@_0JC@NMIJAMCO@XMP_Enforce?5failed?3?5?$CIxmpFileHea@ 00000001800cf990     UCF_Handler.obj
 0002:00017a30       ??_C@_0JI@HMDENKEM@kXMPErr_BadFileFormat?5?$CCfilename@ 00000001800cfa30     UCF_Handler.obj
 0002:00017ac8       ??_C@_0CC@GBMONFKM@data?5descriptor?5must?5mean?53x?5ze@ 00000001800cfac8     UCF_Handler.obj
 0002:00017af0       ??_C@_0BM@MIFDGNKO@invalid?5content?5file?5header@ 00000001800cfaf0     UCF_Handler.obj
 0002:00017b10       ??_C@_0BK@JGCJJJIN@compression?5contradiction@ 00000001800cfb10     UCF_Handler.obj
 0002:00017b30       ??_C@_0CD@DOMFGLPH@contradicting?5uncompressed?5leng@ 00000001800cfb30     UCF_Handler.obj
 0002:00017b58       ??_C@_0CB@JEEGOIOG@contradicting?5compressed?5length@ 00000001800cfb58     UCF_Handler.obj
 0002:00017b80       ??_C@_0BJ@HBMIOHGP@0?9byte?5uncompressed?5size@ 00000001800cfb80     UCF_Handler.obj
 0002:00017ba0       ??_C@_0M@LEKLDNK@zlib?5error?5@ 00000001800cfba0     UCF_Handler.obj
 0002:00017bb0       ??_C@_0BI@JOCNOOFL@zlib?5error?3?5Z_NEED_DICT@ 00000001800cfbb0     UCF_Handler.obj
 0002:00017bc8       ??_C@_0BJ@EIAPDDLB@zlib?5error?3?5Z_DATA_ERROR@ 00000001800cfbc8     UCF_Handler.obj
 0002:00017be8       ??_C@_0BI@FGJDELHK@zlib?5error?3?5Z_MEM_ERROR@ 00000001800cfbe8     UCF_Handler.obj
 0002:00017c00       ??_C@_0BC@GEBKPGBB@UCF?5Bad?5XMP?5block@ 00000001800cfc00     UCF_Handler.obj
 0002:00017c20       ??_C@_0KL@ILOJBFAJ@XMP_Enforce?5failed?3?5?$CIfile?9?$DORead@ 00000001800cfc20     UCF_Handler.obj
 0002:00017cd0       ??_C@_0IJ@PECFLCHB@XMP_Enforce?5failed?3?5?$CI?$CIx?$CB?$DN0?$CJ?5?$DN?$DN?5@ 00000001800cfcd0     UCF_Handler.obj
 0002:00017d60       ??_C@_0DH@JFHNPAPD@UCF_MetaHandler?3?3UpdateFile?3?5Sa@ 00000001800cfd60     UCF_Handler.obj
 0002:00017da0       ??_C@_0IC@FIBCMBOJ@XMP_Enforce?5failed?3?5?$CIret?5?$CB?$DN?5?$CI?92@ 00000001800cfda0     UCF_Handler.obj
 0002:00017e28       ??_C@_0BI@KHKIJBDM@zlib?5stream?5incomplete?5@ 00000001800cfe28     UCF_Handler.obj
 0002:00017e40       ??_C@_0IJ@OILNLOFE@XMP_Enforce?5failed?3?5?$CIstrm?4avail@ 00000001800cfe40     UCF_Handler.obj
 0002:00017ed0       ??_C@_0HK@LGEDOABF@XMP_Enforce?5failed?3?5?$CI?$CBz2?$CJ?5in?5C?3@ 00000001800cfed0     UCF_Handler.obj
 0002:00017f50       ??_C@_0IB@IADHCNEF@XMP_Enforce?5failed?3?5?$CIh?$CLhl?5?$DN?$DN?5fl@ 00000001800cff50     UCF_Handler.obj
 0002:00017fd8       ??_C@_0DF@CDPFPEGF@kXMPErr_BadFileFormat?5?$CCno?5conte@ 00000001800cffd8     UCF_Handler.obj
 0002:00018010       ??_C@_0EP@NGINPDKO@kXMPErr_BadFileFormat?5?$CCmax?5numb@ 00000001800d0010     UCF_Handler.obj
 0002:00018060       ??_C@_0IJ@IHECCHFB@XMP_Enforce?5failed?3?5?$CIcd2l?5?$DM?$DN?50x@ 00000001800d0060     UCF_Handler.obj
 0002:000180f0       ??_C@_0DC@HMFCFCCB@UCF_MetaHandler?3?3WriteTempFile?3@ 00000001800d00f0     UCF_Handler.obj
 0002:00018130       ??_7UCF_MetaHandler@@6B@   00000001800d0130     UCF_Handler.obj
 0002:00018190       ??_C@_0EP@EFFOGOIC@kXMPErr_BadFileFormat?5?$CCFile?5is?5@ 00000001800d0190     WAVE_Handler.obj
 0002:000181e0       ??_C@_0DI@FGGDIIGF@WAVE_MetaHandler?3?3UpdateFile?3?5S@ 00000001800d01e0     WAVE_Handler.obj
 0002:00018218       ??_C@_0DE@BAAHJOD@WAVE_MetaHandler?3?3WriteTempFile@ 00000001800d0218     WAVE_Handler.obj
 0002:00018258       ??_7WAVEBehavior@IFF_RIFF@@6B@ 00000001800d0258     WAVE_Handler.obj
 0002:000182b0       ??_7WAVEReconcile@IFF_RIFF@@6B@ 00000001800d02b0     WAVE_Handler.obj
 0002:000182d0       ??_7WAVE_MetaHandler@@6B@  00000001800d02d0     WAVE_Handler.obj
 0002:00018330       ??_C@_04CDKEADEG@TAKR@     00000001800d0330     XDCAMEX_Handler.obj
 0002:00018338       ??_C@_03FOPKGKHA@SMI@      00000001800d0338     XDCAMEX_Handler.obj
 0002:00018340       ??_C@_0CA@IDGNKGGF@No?5memory?5for?5XDCAMEX?5clip?5info@ 00000001800d0340     XDCAMEX_Handler.obj
 0002:00018360       ??_C@_07BLMGCOEC@M01?4XML@ 00000001800d0360     XDCAMEX_Handler.obj
 0002:00018368       ??_C@_07PNLBHDBP@M01?4XMP@ 00000001800d0368     XDCAMEX_Handler.obj
 0002:00018370       ??_C@_05MKHPAFKK@?4MP4$@   00000001800d0370     XDCAMEX_Handler.obj
 0002:00018378       ??_C@_0L@JHJMINFA@M?2d?2d?4XMP$@ 00000001800d0378     XDCAMEX_Handler.obj
 0002:00018388       ??_C@_0L@ICKANHEE@M?2d?2d?4XML$@ 00000001800d0388     XDCAMEX_Handler.obj
 0002:00018398       ??_C@_0L@KDPOLECL@I?2d?2d?4PPN$@ 00000001800d0398     XDCAMEX_Handler.obj
 0002:000183a8       ??_C@_0L@BLFOJFAK@R?2d?2d?4BIM$@ 00000001800d03a8     XDCAMEX_Handler.obj
 0002:000183b4       ??_C@_05OLPFFIAI@?4SMI$@   00000001800d03b4     XDCAMEX_Handler.obj
 0002:000183c0       ??_C@_0N@OPHPNKDG@MEDIAPRO?4BUP@ 00000001800d03c0     XDCAMEX_Handler.obj
 0002:000183d0       ??_C@_09BJOFIFMP@CUEUP?4XML@ 00000001800d03d0     XDCAMEX_Handler.obj
 0002:000183e0       ??_C@_09NCADJNKB@CUEUP?4BUP@ 00000001800d03e0     XDCAMEX_Handler.obj
 0002:000183ec       ??_C@_06JPBNJCJO@_?2d?2d$@ 00000001800d03ec     XDCAMEX_Handler.obj
 0002:000183f8       ??_C@_0L@OHIOABDA@U?2d?2d?4SMI$@ 00000001800d03f8     XDCAMEX_Handler.obj
 0002:00018408       ??_C@_0CP@LHKOALIG@XDCAMEX?5cannot?5be?5used?5with?5cli@ 00000001800d0408     XDCAMEX_Handler.obj
 0002:00018438       ??_C@_0BO@ILBCOHPP@XDCAMEX?5XMP?5file?5open?5failure@ 00000001800d0438     XDCAMEX_Handler.obj
 0002:00018458       ??_C@_0CC@CLBEGHMM@XDCAMEX?5XMP?5is?5outrageously?5lar@ 00000001800d0458     XDCAMEX_Handler.obj
 0002:00018480       ??_C@_0BA@BOCJMFIN@NonRealTimeMeta@ 00000001800d0480     XDCAMEX_Handler.obj
 0002:00018490       ??_C@_08DEOOAPOB@Duration@ 00000001800d0490     XDCAMEX_Handler.obj
 0002:000184a0       ??_C@_0N@OCFEBENO@MediaProfile@ 00000001800d04a0     XDCAMEX_Handler.obj
 0002:000184b0       ??_C@_08GBNJIMFP@Contents@ 00000001800d04b0     XDCAMEX_Handler.obj
 0002:000184c0       ??_C@_08CPBFELGP@Material@ 00000001800d04c0     XDCAMEX_Handler.obj
 0002:000184cc       ??_C@_03GBBABMJN@uri@      00000001800d04cc     XDCAMEX_Handler.obj
 0002:000184d0       ??_C@_09JHOGCJFE@Component@ 00000001800d04d0     XDCAMEX_Handler.obj
 0002:000184e0       ??_C@_0DA@EHGKOJAJ@XDCAMEX_MetaHandler?3?5Can?8t?5crea@ 00000001800d04e0     XDCAMEX_Handler.obj
 0002:00018510       ??_C@_07CNEIIICD@XDCAMEX@  00000001800d0510     XDCAMEX_Handler.obj
 0002:00018518       ??_C@_04MHGNNDBE@?4SMI@    00000001800d0518     XDCAMEX_Handler.obj
 0002:00018520       ??_C@_0CB@MCIDFLBH@Failure?5opening?5XDCAMEX?5XMP?5fil@ 00000001800d0520     XDCAMEX_Handler.obj
 0002:00018548       ??_C@_0CI@HAHOMCCJ@Failure?5opening?5XDCAMEX?5legacy?5@ 00000001800d0548     XDCAMEX_Handler.obj
 0002:00018570       ??_C@_0DI@OMLELOBF@XDCAMEX_MetaHandler?3?3WriteTempF@ 00000001800d0570     XDCAMEX_Handler.obj
 0002:000185b0       ??_7XDCAMEX_MetaHandler@@6B@ 00000001800d05b0     XDCAMEX_Handler.obj
 0002:00018610       ??_C@_0N@LNFMFMKB@DISCMETA?4XML@ 00000001800d0610     XDCAMFAM_Handler.obj
 0002:00018620       ??_C@_04CLNMEKKM@Take@     00000001800d0620     XDCAMFAM_Handler.obj
 0002:00018628       ??_C@_05IEALKJIG@Local@    00000001800d0628     XDCAMFAM_Handler.obj
 0002:00018630       ??_C@_09GHHFNHJH@INDEX?4XML@ 00000001800d0630     XDCAMFAM_Handler.obj
 0002:00018640       ??_C@_09FPNJHOOE@ALIAS?4XML@ 00000001800d0640     XDCAMFAM_Handler.obj
 0002:0001864c       ??_C@_04OHCFEDJA@?4mxf@    00000001800d064c     XDCAMFAM_Handler.obj
 0002:00018654       ??_C@_03CPCCDDB@Sub@       00000001800d0654     XDCAMFAM_Handler.obj
 0002:00018658       ??_C@_0BM@EAJMBGBE@Clip?5MXF?5file?5must?5be?5exist@ 00000001800d0658     XDCAMFAM_Handler.obj
 0002:00018678       ??_C@_0CA@LCKOEODN@Clip?5NRT?5XML?5file?5must?5be?5exist@ 00000001800d0678     XDCAMFAM_Handler.obj
 0002:00018698       ??_C@_08JNHPECBG@UserData@ 00000001800d0698     XDCAMFAM_Handler.obj
 0002:000186a8       ??_C@_07PAEKLOGD@M01?4xmp@ 00000001800d06a8     XDCAMFAM_Handler.obj
 0002:000186b0       ??_C@_05FILOJBHL@?4MXF$@   00000001800d06b0     XDCAMFAM_Handler.obj
 0002:000186b8       ??_C@_0L@MONHLNF@M?2d?2d?4KLV$@ 00000001800d06b8     XDCAMFAM_Handler.obj
 0002:000186c8       ??_C@_0L@LMHAACAA@S?2d?2d?4MXF$@ 00000001800d06c8     XDCAMFAM_Handler.obj
 0002:000186d8       ??_C@_0L@KBMNAPLI@C?2d?2d?4SMI$@ 00000001800d06d8     XDCAMFAM_Handler.obj
 0002:000186e4       ??_C@_04BBNPPDNC@Edit@     00000001800d06e4     XDCAMFAM_Handler.obj
 0002:000186f0       ??_C@_08PLAGFMEH@Planning@ 00000001800d06f0     XDCAMFAM_Handler.obj
 0002:00018700       ??_C@_07ECEMPDJM@General@  00000001800d0700     XDCAMFAM_Handler.obj
 0002:00018708       ??_C@_07NIIBHOBP@S01?4SMI@ 00000001800d0708     XDCAMFAM_Handler.obj
 0002:00018710       ??_C@_04GAOAGNCM@?4xml@    00000001800d0710     XDCAMFAM_Handler.obj
 0002:00018718       ??_C@_0BB@ICPPHDKP@PlanningMetadata@ 00000001800d0718     XDCAMFAM_Handler.obj
 0002:00018730       ??_C@_0O@NAIJNLDF@MaterialGroup@ 00000001800d0730     XDCAMFAM_Handler.obj
 0002:00018740       ??_C@_04POIGMEJN@clip@     00000001800d0740     XDCAMFAM_Handler.obj
 0002:00018748       ??_C@_07MLPKBPJL@umidRef@  00000001800d0748     XDCAMFAM_Handler.obj
 0002:00018750       ??_C@_04MAKNGJCH@smil@     00000001800d0750     XDCAMFAM_Handler.obj
 0002:00018758       ??_C@_0P@FDLLOAPI@TargetMaterial@ 00000001800d0758     XDCAMFAM_Handler.obj
 0002:00018770       ??_7XDCAMFAM_MetaHandler@@6B@ 00000001800d0770     XDCAMFAM_Handler.obj
 0002:000187f0       ??_C@_0N@HHJBPNGM@DISCINFO?4XML@ 00000001800d07f0     XDCAMSAM_Handler.obj
 0002:00018800       ??_C@_09KMJDMPPJ@INDEX?4BUP@ 00000001800d0800     XDCAMSAM_Handler.obj
 0002:00018810       ??_C@_0N@LMHHOFAC@DISCINFO?4BUP@ 00000001800d0810     XDCAMSAM_Handler.obj
 0002:00018820       ??_C@_0L@MNCHKOEC@V?2d?2d?4MXF$@ 00000001800d0820     XDCAMSAM_Handler.obj
 0002:00018830       ??_C@_0L@EKOKHPAK@A?2d?2d?4MXF$@ 00000001800d0830     XDCAMSAM_Handler.obj
 0002:00018840       ??_C@_07KEDKEPDE@C01?4SMI@ 00000001800d0840     XDCAMSAM_Handler.obj
 0002:00018850       ??_7XDCAMSAM_MetaHandler@@6B@ 00000001800d0850     XDCAMSAM_Handler.obj
 0002:000188d0       ??_C@_0CO@IIGOFNDD@XDCAM_MetaHandler?3?5Can?8t?5create@ 00000001800d08d0     XDCAM_Handler.obj
 0002:00018900       ??_C@_04IEJGKNJ@body@      00000001800d0900     XDCAM_Handler.obj
 0002:00018908       ??_C@_03OBJIDKBM@par@      00000001800d0908     XDCAM_Handler.obj
 0002:0001890c       ??_C@_03GCDGINBO@ref@      00000001800d090c     XDCAM_Handler.obj
 0002:00018910       ??_C@_03LOJEKLML@src@      00000001800d0910     XDCAM_Handler.obj
 0002:00018918       ??_C@_0CN@JIPKILA@XDCAM?5cannot?5be?5used?5with?5clien@ 00000001800d0918     XDCAM_Handler.obj
 0002:00018948       ??_C@_0BM@GHADFGEH@XDCAM?5XMP?5file?5open?5failure@ 00000001800d0948     XDCAM_Handler.obj
 0002:00018968       ??_C@_0CA@MNCLBINN@XDCAM?5XMP?5is?5outrageously?5large@ 00000001800d0968     XDCAM_Handler.obj
 0002:00018988       ??_C@_05LOLNALCD@XDCAM@    00000001800d0988     XDCAM_Handler.obj
 0002:00018990       ??_C@_0BP@KMBJAABG@Failure?5opening?5XDCAM?5XMP?5file@ 00000001800d0990     XDCAM_Handler.obj
 0002:000189b0       ??_C@_0BP@MGHPGKM@Failure?5opening?5XDCAM?5XML?5file@ 00000001800d09b0     XDCAM_Handler.obj
 0002:000189d0       ??_C@_0DG@NMFHKHAP@XDCAM_MetaHandler?3?3WriteTempFil@ 00000001800d09d0     XDCAM_Handler.obj
 0002:00018a10       ??_7XDCAM_MetaHandler@@6B@ 00000001800d0a10     XDCAM_Handler.obj
 0002:00018a90       ??_C@_0BD@CLCNBEIH@Unknown?5size?5value@ 00000001800d0a90     AIFFBehavior.obj
 0002:00018ab0       ??_C@_0GI@LNENABP@kXMPErr_BadFileFormat?5?$CCAIFF?5fil@ 00000001800d0ab0     AIFFBehavior.obj
 0002:00018b20       ??_C@_0JI@ONOLPHFE@kXMPErr_BadFileFormat?5?$CCInvalid?5@ 00000001800d0b20     AIFFBehavior.obj
 0002:00018bc0       ??_C@_0GE@JLJEPLDJ@kXMPErr_InternalFailure?5?$CCModifi@ 00000001800d0bc0     AIFFBehavior.obj
 0002:00018c30       ??_C@_0GL@GEDJKCGP@kXMPErr_InternalFailure?5?$CCInvali@ 00000001800d0c30     AIFFBehavior.obj
 0002:00018ca0       ??_C@_0FB@LADMGKG@kXMPErr_InternalFailure?5?$CCCan?8t?5@ 00000001800d0ca0     AIFFBehavior.obj
 0002:00018d00       ??_C@_0FM@JKPJDKCC@kXMPErr_InternalFailure?5?$CCCant?8?5@ 00000001800d0d00     AIFFBehavior.obj
 0002:00018d60       ??_C@_0EO@CEIJMLLA@kXMPErr_InternalFailure?5?$CCInvali@ 00000001800d0d60     AIFFBehavior.obj
 0002:00018db8       ??_7AIFFMetadata@IFF_RIFF@@6B@ 00000001800d0db8     AIFFMetadata.obj
 0002:00018e28       ??_C@_0BG@MOHBBLKH@Invalid?5data?5pointer?4@ 00000001800d0e28     Chunk.obj
 0002:00018e40       ??_C@_0BK@FKKMHAFN@Data?5access?5out?5of?5bounds@ 00000001800d0e40     Chunk.obj
 0002:00018e60       ??_C@_0CC@KFJBGDNG@A?5chunk?5node?5cannot?5contain?5dat@ 00000001800d0e60     Chunk.obj
 0002:00018e84       ??_C@_01GPOEFGEJ@?7@       00000001800d0e84     Chunk.obj
 0002:00018e88       ??_C@_0DH@OJEJDFMA@?$CF?44s?5?9?9?5size?3?50x?$CF?48llX?0?5?5type?3?5@ 00000001800d0e88     Chunk.obj
 0002:00018ec0       ??_C@_0CM@KBHMOKFP@readChunk?5must?5not?5be?5called?5mo@ 00000001800d0ec0     Chunk.obj
 0002:00018ef0       ??_C@_0DB@KBLODNMG@Chunk?3?3readChunk?3?5Must?5pass?5a?5v@ 00000001800d0ef0     Chunk.obj
 0002:00018f28       ??_C@_0CL@MDLJPFKP@chunk?5already?5has?5either?5data?5o@ 00000001800d0f28     Chunk.obj
 0002:00018f60       ??_C@_0HP@NPGEOLHN@XMP_Enforce?5failed?3?5?$CIfile?5?$CB?$DN?50?$CJ@ 00000001800d0f60     Chunk.obj
 0002:00018fe0       ??_C@_0DJ@IOJOIIMK@A?5chunk?5with?5mode?5unknown?5must?5@ 00000001800d0fe0     Chunk.obj
 0002:00019020       ??_C@_0DC@DNPCJHLC@Chunk?3?3writeChunk?3?5Must?5pass?5a?5@ 00000001800d1020     Chunk.obj
 0002:00019058       ??_C@_0CG@IDNNHANK@A?5chunk?5leaf?5cannot?5contain?5chi@ 00000001800d1058     Chunk.obj
 0002:00019080       ??_C@_0BO@CIMPEJP@Non?9existing?5child?5requested?4@ 00000001800d1080     Chunk.obj
 0002:000190a0       ??_C@_0BB@EPILECCF@Index?5not?5valid?4@ 00000001800d10a0     Chunk.obj
 0002:000190b8       ??_C@_0BM@PECJKEIH@Vector?5error?5in?5appendChild@ 00000001800d10b8     Chunk.obj
 0002:000190e0       ??_7IChunkData@IFF_RIFF@@6B@ 00000001800d10e0     Chunk.obj
 0002:00019178       ??_7Chunk@IFF_RIFF@@6BIChunkContainer@1@@ 00000001800d1178     Chunk.obj
 0002:000191c0       ??_7IChunkContainer@IFF_RIFF@@6B@ 00000001800d11c0     Chunk.obj
 0002:00019208       ??_7Chunk@IFF_RIFF@@6BIChunkData@1@@ 00000001800d1208     Chunk.obj
 0002:000192a0       ??_C@_0EM@EPLNKGDD@kXMPErr_InternalFailure?5?$CCERROR?5@ 00000001800d12a0     ChunkController.obj
 0002:000192f0       ??_C@_0BE@HNBOOAIJ@Bad?5RIFF?5chunk?5size@ 00000001800d12f0     ChunkController.obj
 0002:00019308       ??_C@_0P@PNMBLGPP@Bad?5RIFF?5chunk@ 00000001800d1308     ChunkController.obj
 0002:00019320       ??_C@_0GO@FPDDDHH@kXMPErr_AssertFailure?5?$CCExceeded@ 00000001800d1320     ChunkController.obj
 0002:00019390       ??_C@_0IB@PGEHAFBD@kXMPErr_InternalFailure?5?$CCERROR?3@ 00000001800d1390     ChunkController.obj
 0002:00019420       ??_C@_0EM@BGKHDKDC@kXMPErr_InternalFailure?5?$CCERROR?5@ 00000001800d1420     ChunkController.obj
 0002:00019470       ??_C@_0GB@LHFBPFCJ@kXMPErr_InternalFailure?5?$CCSource@ 00000001800d1470     IChunkBehavior.obj
 0002:000194e0       ??_C@_0HJ@LFJMKCHN@kXMPErr_InternalFailure?5?$CCMovabl@ 00000001800d14e0     IChunkBehavior.obj
 0002:00019560       ??_C@_0GG@MDKHPNBC@kXMPErr_InternalFailure?5?$CCThere?5@ 00000001800d1560     IChunkBehavior.obj
 0002:000195d0       ??_C@_0EH@MLLLCCBM@kXMPErr_InternalFailure?5?$CCInvali@ 00000001800d15d0     IChunkBehavior.obj
 0002:00019620       ??_C@_0EJ@PFHCFLPB@kXMPErr_Unimplemented?5?$CCNot?5enou@ 00000001800d1620     IChunkBehavior.obj
 0002:00019670       ??_C@_0EE@DEGPAJMM@kXMPErr_InternalFailure?5?$CCInvali@ 00000001800d1670     IChunkBehavior.obj
 0002:000196c0       ??_C@_0GO@IMPCOBCN@kXMPErr_InternalFailure?5?$CCInvali@ 00000001800d16c0     IChunkBehavior.obj
 0002:00019730       ??_C@_0GI@CONBHKA@kXMPErr_InternalFailure?5?$CCSource@ 00000001800d1730     IChunkBehavior.obj
 0002:00019798       ??_C@_0P@OJCMKJBF@Invalid?5buffer@ 00000001800d1798     BEXTMetadata.obj
 0002:000197a8       ??_C@_0BH@DLAEKBF@Not?5a?5valid?5BEXT?5chunk@ 00000001800d17a8     BEXTMetadata.obj
 0002:000197c8       ??_7?$TArrayObject@E@@6B@  00000001800d17c8     BEXTMetadata.obj
 0002:000197d8       ??_7BEXTMetadata@IFF_RIFF@@6B@ 00000001800d17d8     BEXTMetadata.obj
 0002:00019848       ??_C@_0BH@GKCBFMBE@Not?5a?5valid?5Cart?5chunk@ 00000001800d1848     CartMetadata.obj
 0002:00019868       ??_7CartMetadata@IFF_RIFF@@6B@ 00000001800d1868     CartMetadata.obj
 0002:000198e0       ??_7?$TArrayObject@UStoredCartTimer@CartMetadata@IFF_RIFF@@@@6B@ 00000001800d18e0     CartMetadata.obj
 0002:000198e8       ??_C@_0BH@PHCGPAPP@Not?5a?5valid?5DISP?5chunk@ 00000001800d18e8     DISPMetadata.obj
 0002:00019908       ??_7DISPMetadata@IFF_RIFF@@6B@ 00000001800d1908     DISPMetadata.obj
 0002:00019978       ??_C@_0BM@IDCFDCEP@Not?5a?5valid?5LIST?3INFO?5chunk@ 00000001800d1978     INFOMetadata.obj
 0002:000199a0       ??_C@_0EF@PJLDOOMA@kXMPErr_InternalFailure?5?$CCInvali@ 00000001800d19a0     INFOMetadata.obj
 0002:000199f0       ??_C@_0FO@NOCJGEPB@kXMPErr_InternalFailure?5?$CCERROR?5@ 00000001800d19f0     INFOMetadata.obj
 0002:00019a58       ??_7INFOMetadata@IFF_RIFF@@6B@ 00000001800d1a58     INFOMetadata.obj
 0002:00019ad0       ??_C@_0GI@EOKJPBNI@kXMPErr_BadFileFormat?5?$CCWAVE?5fil@ 00000001800d1ad0     WAVEBehavior.obj
 0002:00019b40       ??_C@_0FP@IBCCPNDF@kXMPErr_InternalFailure?5?$CCInvali@ 00000001800d1b40     WAVEBehavior.obj
 0002:00019ba0       ??_C@_0JH@LJPOMKEH@kXMPErr_BadFileFormat?5?$CCInvalid?5@ 00000001800d1ba0     WAVEBehavior.obj
 0002:00019c40       ??_C@_0FB@ECABIMEL@kXMPErr_InternalFailure?5?$CCCan?8t?5@ 00000001800d1c40     WAVEBehavior.obj
 0002:00019ca0       ??_C@_0GJ@CBNBAJBJ@kXMPErr_BadFileFormat?5?$CCInvalid?5@ 00000001800d1ca0     WAVEBehavior.obj
 0002:00019d10       ??_C@_0EB@DHFKIIHD@kXMPErr_InternalFailure?5?$CCMissin@ 00000001800d1d10     WAVEBehavior.obj
 0002:00019d60       ??_C@_0EO@LGALFIOK@kXMPErr_InternalFailure?5?$CCInvali@ 00000001800d1d60     WAVEBehavior.obj
 0002:00019db0       ??_C@_0HD@DPIHIDAK@kXMPErr_InternalFailure?5?$CCInvali@ 00000001800d1db0     WAVEBehavior.obj
 0002:00019e30       ??_C@_0EF@DDIEGIAE@kXMPErr_InternalFailure?5?$CCInvali@ 00000001800d1e30     WAVEBehavior.obj
 0002:00019e78       ??_C@_0BL@JIPHJPIP@Data?5chunk?5must?5not?5change@ 00000001800d1e78     WAVEBehavior.obj
 0002:00019ea0       ??_C@_0FK@ECPIDDJG@kXMPErr_InternalFailure?5?$CCMissin@ 00000001800d1ea0     WAVEBehavior.obj
 0002:00019f00       ??_C@_0FK@LLIPGJNG@kXMPErr_Unimplemented?5?$CCCan?8t?5up@ 00000001800d1f00     WAVEBehavior.obj
 0002:00019f60       ??_C@_0L@HGALODOH@shotNumber@ 00000001800d1f60     WAVEReconcile.obj
 0002:00019f70       ??_C@_0P@DPLIFKFF@timeSampleRate@ 00000001800d1f70     WAVEReconcile.obj
 0002:00019f80       ??_C@_09DPGHDHMG@trackList@ 00000001800d1f80     WAVEReconcile.obj
 0002:00019f90       ??_C@_0M@GBLFABDO@projectName@ 00000001800d1f90     WAVEReconcile.obj
 0002:00019fa0       ??_C@_0BA@PGBPININ@interleaveIndex@ 00000001800d1fa0     WAVEReconcile.obj
 0002:00019fb0       ??_C@_0N@GAMPLCLB@channelIndex@ 00000001800d1fb0     WAVEReconcile.obj
 0002:00019fc0       ??_C@_08HFFPPCHF@function@ 00000001800d1fc0     WAVEReconcile.obj
 0002:00019fcc       ??_C@_04MEMAJGDJ@name@     00000001800d1fcc     WAVEReconcile.obj
 0002:00019fd8       ??_C@_0BB@NENABPGF@archivalLocation@ 00000001800d1fd8     WAVEReconcile.obj
 0002:00019ff0       ??_C@_0BP@EKGNHED@http?3?1?1ns?4adobe?4com?1riff?1info?1@ 00000001800d1ff0     WAVEReconcile.obj
 0002:0001a010       ??_C@_07IFEJIFCD@product@  00000001800d2010     WAVEReconcile.obj
 0002:0001a018       ??_C@_0N@JFPFKAH@commissioned@ 00000001800d2018     WAVEReconcile.obj
 0002:0001a028       ??_C@_0BO@KELLPMCP@http?3?1?1ns?4adobe?4com?1aes?1cart?1@ 00000001800d2028     WAVEReconcile.obj
 0002:0001a048       ??_C@_0L@FFAIJNDJ@technician@ 00000001800d2048     WAVEReconcile.obj
 0002:0001a054       ??_C@_05PJMAECKE@CutID@    00000001800d2054     WAVEReconcile.obj
 0002:0001a060       ??_C@_07NGFJPNPN@Version@  00000001800d2060     WAVEReconcile.obj
 0002:0001a068       ??_C@_08EDGJCMOO@Category@ 00000001800d2068     WAVEReconcile.obj
 0002:0001a078       ??_C@_08BGLLDEBB@ClientID@ 00000001800d2078     WAVEReconcile.obj
 0002:0001a084       ??_C@_06EEHMDNOG@OutCue@   00000001800d2084     WAVEReconcile.obj
 0002:0001a090       ??_C@_0P@PEKDEFAE@Classification@ 00000001800d2090     WAVEReconcile.obj
 0002:0001a0a0       ??_C@_09MHCEAAPI@StartTime@ 00000001800d20a0     WAVEReconcile.obj
 0002:0001a0b0       ??_C@_09HBIHCHGK@StartDate@ 00000001800d20b0     WAVEReconcile.obj
 0002:0001a0c0       ??_C@_07GAHEIAPI@EndTime@  00000001800d20c0     WAVEReconcile.obj
 0002:0001a0c8       ??_C@_07NGNHKHGK@EndDate@  00000001800d20c8     WAVEReconcile.obj
 0002:0001a0d0       ??_C@_0BD@KMHEFOFI@ProducerAppVersion@ 00000001800d20d0     WAVEReconcile.obj
 0002:0001a0e8       ??_C@_0O@ECOJKLBN@ProducerAppID@ 00000001800d20e8     WAVEReconcile.obj
 0002:0001a0f8       ??_C@_03BBJMCFKE@URL@      00000001800d20f8     WAVEReconcile.obj
 0002:0001a100       ??_C@_07OIHNDAEE@UserDef@  00000001800d2100     WAVEReconcile.obj
 0002:0001a108       ??_C@_0P@KFLHBFMH@LevelReference@ 00000001800d2108     WAVEReconcile.obj
 0002:0001a118       ??_C@_07KDFLEODJ@TagText@  00000001800d2118     WAVEReconcile.obj
 0002:0001a120       ??_C@_0CB@LBLHJKEI@http?3?1?1ns?4adobe?4com?1xmp?1wav?11?40@ 00000001800d2120     WAVEReconcile.obj
 0002:0001a148       ??_C@_0N@NJBNNHCF@NativeDigest@ 00000001800d2148     WAVEReconcile.obj
 0002:0001a158       ??_C@_02GMHACPFF@?$CFu@    00000001800d2158     WAVEReconcile.obj
 0002:0001a160       ??_C@_09IFCHFPED@PostTimer@ 00000001800d2160     WAVEReconcile.obj
 0002:0001a16c       ??_C@_05LPIJGKJ@Value@     00000001800d216c     WAVEReconcile.obj
 0002:0001a174       ??_C@_05HKIEIPCG@Usage@    00000001800d2174     WAVEReconcile.obj
 0002:0001a17c       ??_C@_04EHIKLGMK@8Int@     00000001800d217c     WAVEReconcile.obj
 0002:0001a184       ??_C@_06PAFFIPBG@?$CFllu?$CFc@ 00000001800d2184     WAVEReconcile.obj
 0002:0001a190       ??_C@_07EKKDEJPO@32Float@  00000001800d2190     WAVEReconcile.obj
 0002:0001a198       ??_C@_05LMCIKLND@24Int@    00000001800d2198     WAVEReconcile.obj
 0002:0001a1a0       ??_C@_03HEMAMCHC@NDF@      00000001800d21a0     WAVEReconcile.obj
 0002:0001a1a4       ??_C@_04GIDJIKJN@24?11@    00000001800d21a4     WAVEReconcile.obj
 0002:0001a1b0       ??_C@_0L@DGDKOLJN@30000?11001@ 00000001800d21b0     WAVEReconcile.obj
 0002:0001a1bc       ??_C@_04NAIFONPI@25?11@    00000001800d21bc     WAVEReconcile.obj
 0002:0001a1c4       ??_C@_04NKDLDEHK@30?11@    00000001800d21c4     WAVEReconcile.obj
 0002:0001a1cc       ??_C@_02NBAOOLHC@DF@       00000001800d21cc     WAVEReconcile.obj
 0002:0001a1d0       ??_C@_0L@EHGNEHNP@60000?11001@ 00000001800d21d0     WAVEReconcile.obj
 0002:0001a1dc       ??_C@_04FFHLMBNK@50?11@    00000001800d21dc     WAVEReconcile.obj
 0002:0001a1e8       ??_C@_0L@POFPJECH@24000?11001@ 00000001800d21e8     WAVEReconcile.obj
 0002:0001a1f4       ??_C@_04BCNLLLAK@60?11@    00000001800d21f4     WAVEReconcile.obj
 0002:0001a200       ??_C@_0BO@EAPAMFNK@http?3?1?1ns?4adobe?4com?1ixml?11?40?1@ 00000001800d2200     WAVEReconcile.obj
 0002:0001a228       ??_7?$TArrayObject@VTrackListInfo@iXMLMetadata@IFF_RIFF@@@@6B@ 00000001800d2228     WAVEReconcile.obj
 0002:0001a230       ??_C@_04CGCHIHNA@TAKE@     00000001800d2230     iXMLMetadata.obj
 0002:0001a238       ??_C@_04DGFEMLEB@TAPE@     00000001800d2238     iXMLMetadata.obj
 0002:0001a240       ??_C@_04PLNCJLIN@NOTE@     00000001800d2240     iXMLMetadata.obj
 0002:0001a248       ??_C@_05IALELFBJ@SCENE@    00000001800d2248     iXMLMetadata.obj
 0002:0001a250       ??_C@_07CPCGMDDF@NO_GOOD@  00000001800d2250     iXMLMetadata.obj
 0002:0001a258       ??_C@_07JHDNNAFJ@PROJECT@  00000001800d2258     iXMLMetadata.obj
 0002:0001a260       ??_C@_0BA@JFLNLOJB@AUDIO_BIT_DEPTH@ 00000001800d2260     iXMLMetadata.obj
 0002:0001a270       ??_C@_0BB@MKFKHOP@FILE_SAMPLE_RATE@ 00000001800d2270     iXMLMetadata.obj
 0002:0001a288       ??_C@_0BA@ONGIPDJP@BWF_DESCRIPTION@ 00000001800d2288     iXMLMetadata.obj
 0002:0001a298       ??_C@_07IBMPHMPI@CIRCLED@  00000001800d2298     iXMLMetadata.obj
 0002:0001a2a0       ??_C@_0BJ@DGCCKECJ@BWF_ORIGINATOR_REFERENCE@ 00000001800d22a0     iXMLMetadata.obj
 0002:0001a2c0       ??_C@_0P@MEFOFOMH@BWF_ORIGINATOR@ 00000001800d22c0     iXMLMetadata.obj
 0002:0001a2d0       ??_C@_0BF@JFDBCLLC@BWF_ORIGINATION_TIME@ 00000001800d22d0     iXMLMetadata.obj
 0002:0001a2e8       ??_C@_0BF@CDJCAMCA@BWF_ORIGINATION_DATE@ 00000001800d22e8     iXMLMetadata.obj
 0002:0001a300       ??_C@_0BI@KDDNOIEJ@BWF_TIME_REFERENCE_HIGH@ 00000001800d2300     iXMLMetadata.obj
 0002:0001a318       ??_C@_0BH@DIMCANHE@BWF_TIME_REFERENCE_LOW@ 00000001800d2318     iXMLMetadata.obj
 0002:0001a330       ??_C@_08BOKBDMHL@BWF_UMID@ 00000001800d2330     iXMLMetadata.obj
 0002:0001a340       ??_C@_0M@HPBHCCKB@BWF_VERSION@ 00000001800d2340     iXMLMetadata.obj
 0002:0001a350       ??_C@_0O@NJKDHCIJ@TIMECODE_FLAG@ 00000001800d2350     iXMLMetadata.obj
 0002:0001a360       ??_C@_0BD@DHDIKNDH@BWF_CODING_HISTORY@ 00000001800d2360     iXMLMetadata.obj
 0002:0001a378       ??_C@_0BG@HJKFPDAC@TIMESTAMP_SAMPLE_RATE@ 00000001800d2378     iXMLMetadata.obj
 0002:0001a390       ??_C@_0O@JGHCJIAP@TIMECODE_RATE@ 00000001800d2390     iXMLMetadata.obj
 0002:0001a3a0       ??_C@_0CE@FEEKBFAP@TIMESTAMP_SAMPLES_SINCE_MIDNIGH@ 00000001800d23a0     iXMLMetadata.obj
 0002:0001a3c8       ??_C@_0CE@FBJBKFF@TIMESTAMP_SAMPLES_SINCE_MIDNIGH@ 00000001800d23c8     iXMLMetadata.obj
 0002:0001a3ec       ??_C@_06FNAIOIKA@BWFXML@   00000001800d23ec     iXMLMetadata.obj
 0002:0001a3f8       ??_C@_0L@PPODFFGN@TRACK_LIST@ 00000001800d23f8     iXMLMetadata.obj
 0002:0001a404       ??_C@_04LFMEMJM@BEXT@      00000001800d2404     iXMLMetadata.obj
 0002:0001a40c       ??_C@_05LCLKIGOL@SPEED@    00000001800d240c     iXMLMetadata.obj
 0002:0001a414       ??_C@_05NJAIBCBJ@TRACK@    00000001800d2414     iXMLMetadata.obj
 0002:0001a420       ??_C@_0M@KHOHFIOP@TRACK_COUNT@ 00000001800d2420     iXMLMetadata.obj
 0002:0001a430       ??_C@_0BB@CFECNBDF@INTERLEAVE_INDEX@ 00000001800d2430     iXMLMetadata.obj
 0002:0001a448       ??_C@_0O@LLOCAKJE@CHANNEL_INDEX@ 00000001800d2448     iXMLMetadata.obj
 0002:0001a458       ??_C@_08KPDMMFC@FUNCTION@  00000001800d2458     iXMLMetadata.obj
 0002:0001a464       ??_C@_04IPKHEEB@NAME@      00000001800d2464     iXMLMetadata.obj
 0002:0001a470       ??_C@_0CJ@NDJOKHOJ@iXMLMetadata?3?5Can?8t?5create?5Expa@ 00000001800d2470     iXMLMetadata.obj
 0002:0001a4a0       ??_C@_0EE@IKDFDOHF@iXML?5Metadata?5reconciliation?5fa@ 00000001800d24a0     iXMLMetadata.obj
 0002:0001a4f0       ??_C@_0FE@EFPBLLCK@iXML?5Metadata?5reconciliation?5fa@ 00000001800d24f0     iXMLMetadata.obj
 0002:0001a550       ??_C@_0EM@BDMNDHBA@iXML?5Metadata?5reconciliation?5fa@ 00000001800d2550     iXMLMetadata.obj
 0002:0001a5a0       ??_C@_0DO@DEKKHBKE@iXML?5Metadata?5reconciliation?5fa@ 00000001800d25a0     iXMLMetadata.obj
 0002:0001a5e0       ??_C@_0DN@IKKJDHDP@iXML?5Metadata?5reconciliation?5fa@ 00000001800d25e0     iXMLMetadata.obj
 0002:0001a620       ??_C@_05MABAJDOH@?5?7?6?$AN?$AL@ 00000001800d2620     iXMLMetadata.obj
 0002:0001a628       ??_C@_0DN@EOFHAEHL@iXML?5Metadata?5reconciliation?5fa@ 00000001800d2628     iXMLMetadata.obj
 0002:0001a670       ??_C@_0EN@GNJCLOID@iXML?5Metadata?5reconciliation?5fa@ 00000001800d2670     iXMLMetadata.obj
 0002:0001a6c0       ??_C@_0BH@LNLOJGFH@Invalid?5integer?5string@ 00000001800d26c0     iXMLMetadata.obj
 0002:0001a6d8       ??_C@_05MAJJAKPI@FALSE@    00000001800d26d8     iXMLMetadata.obj
 0002:0001a6e0       ??_C@_04HCDDPBNL@TRUE@     00000001800d26e0     iXMLMetadata.obj
 0002:0001a6f0       ??_C@_0EO@JKNLAGBA@iXML?5Metadata?5reconciliation?5fa@ 00000001800d26f0     iXMLMetadata.obj
 0002:0001a740       ??_C@_0EE@JALCFJEF@iXML?5Metadata?5reconciliation?5fa@ 00000001800d2740     iXMLMetadata.obj
 0002:0001a790       ??_C@_0EK@COEPEDGP@iXML?5Metadata?5reconciliation?5fa@ 00000001800d2790     iXMLMetadata.obj
 0002:0001a7e0       ??_C@_0BN@OHFDCLKA@Unable?5to?5create?5new?5objects@ 00000001800d27e0     iXMLMetadata.obj
 0002:0001a800       ??_C@_0EM@JIBNDOIA@iXML?5Metadata?5reconciliation?5fa@ 00000001800d2800     iXMLMetadata.obj
 0002:0001a850       ??_C@_0FB@NJFNKEJH@iXML?5Metadata?5reconciliation?5fa@ 00000001800d2850     iXMLMetadata.obj
 0002:0001a8b0       ??_C@_0EN@MBDPEJC@iXML?5Metadata?5reconciliation?5fa@ 00000001800d28b0     iXMLMetadata.obj
 0002:0001a900       ??_C@_0EP@KIECOEOJ@iXML?5Metadata?5reconciliation?5fa@ 00000001800d2900     iXMLMetadata.obj
 0002:0001a950       ??_C@_0DM@IONHEJBP@iXML?5Metadata?5reconciliation?5fa@ 00000001800d2950     iXMLMetadata.obj
 0002:0001a990       ??_C@_0EN@PLGECNHM@iXML?5Metadata?5reconciliation?5fa@ 00000001800d2990     iXMLMetadata.obj
 0002:0001a9e0       ??_C@_0EO@IEKAJPCF@iXML?5Metadata?5reconciliation?5fa@ 00000001800d29e0     iXMLMetadata.obj
 0002:0001aa30       ??_C@_0EO@JBCOCMLB@iXML?5Metadata?5reconciliation?5fa@ 00000001800d2a30     iXMLMetadata.obj
 0002:0001aa80       ??_C@_0DK@GJHGIFOO@iXML?5Metadata?5reconciliation?5fa@ 00000001800d2a80     iXMLMetadata.obj
 0002:0001aac0       ??_C@_0DP@BGKPOGOB@iXML?5Metadata?5reconciliation?5fa@ 00000001800d2ac0     iXMLMetadata.obj
 0002:0001ab00       ??_C@_0DP@PPFMIEKC@iXML?5Metadata?5reconciliation?5fa@ 00000001800d2b00     iXMLMetadata.obj
 0002:0001ab40       ??_C@_0EC@BEIAPJJK@iXML?5Metadata?5reconciliation?5fa@ 00000001800d2b40     iXMLMetadata.obj
 0002:0001ab88       ??_C@_0DH@BDCCJNAO@iXML?5Metadata?5reconciliation?5fa@ 00000001800d2b88     iXMLMetadata.obj
 0002:0001abc0       ??_C@_0FA@KANLGBDP@iXML?5Metadata?5reconciliation?5fa@ 00000001800d2bc0     iXMLMetadata.obj
 0002:0001ac10       ??_C@_0FL@MPBMPNBF@iXML?5Metadata?5reconciliation?5fa@ 00000001800d2c10     iXMLMetadata.obj
 0002:0001ac6c       ??_C@_01KMDKNFGN@?1@       00000001800d2c6c     iXMLMetadata.obj
 0002:0001ac78       ??_7iXMLMetadata@IFF_RIFF@@6B@ 00000001800d2c78     iXMLMetadata.obj
 0002:0001ace8       ??_C@_0CC@NKMNEPPL@Failure?5reading?5ASF?5header?5obje@ 00000001800d2ce8     ASF_Support.obj
 0002:0001ad10       ??_C@_0BN@OFCOPNAL@http?3?1?1ns?4adobe?4com?1asf?11?40?1@ 00000001800d2d10     ASF_Support.obj
 0002:0001ad30       ??_C@_03DPLIHHLN@?$CFd?0@  00000001800d2d30     ASF_Support.obj
 0002:0001ad40       ??_7ASF_Support@@6B@       00000001800d2d40     ASF_Support.obj
 0002:0001ad50       ??_7ASF_LegacyManager@@6B@ 00000001800d2d50     ASF_Support.obj
 0002:0001ad74       ??_C@_02BNOEALGP@RX@       00000001800d2d74     ID3_Support.obj
 0002:0001ad78       ??_C@_02PKOPCKKC@CR@       00000001800d2d78     ID3_Support.obj
 0002:0001ad7c       ??_C@_05DHAFCDBC@Remix@    00000001800d2d7c     ID3_Support.obj
 0002:0001ad84       ??_C@_05EGIABMCH@Blues@    00000001800d2d84     ID3_Support.obj
 0002:0001ad8c       ??_C@_05MBNCCLPN@Cover@    00000001800d2d8c     ID3_Support.obj
 0002:0001ad94       ??_C@_01FDFGLJHB@2@        00000001800d2d94     ID3_Support.obj
 0002:0001ad98       ??_C@_0N@HMGLJNH@Classic?5Rock@ 00000001800d2d98     ID3_Support.obj
 0002:0001ada8       ??_C@_01EKENIIDA@3@        00000001800d2da8     ID3_Support.obj
 0002:0001adb0       ??_C@_07HAAJMFIA@Country@  00000001800d2db0     ID3_Support.obj
 0002:0001adb8       ??_C@_01FAMBOPH@4@         00000001800d2db8     ID3_Support.obj
 0002:0001adbc       ??_C@_05PHEECCHA@Dance@    00000001800d2dbc     ID3_Support.obj
 0002:0001adc4       ??_C@_01BMBHCPLG@5@        00000001800d2dc4     ID3_Support.obj
 0002:0001adc8       ??_C@_05JPKIAOHJ@Disco@    00000001800d2dc8     ID3_Support.obj
 0002:0001add0       ??_C@_01DHDKHMHF@6@        00000001800d2dd0     ID3_Support.obj
 0002:0001add4       ??_C@_04HGMPKBOD@Funk@     00000001800d2dd4     ID3_Support.obj
 0002:0001addc       ??_C@_01COCBENDE@7@        00000001800d2ddc     ID3_Support.obj
 0002:0001ade0       ??_C@_06BKAMGKHE@Grunge@   00000001800d2de0     ID3_Support.obj
 0002:0001ade8       ??_C@_01KJLJFBPL@8@        00000001800d2de8     ID3_Support.obj
 0002:0001adf0       ??_C@_07HOOMJDLF@Hip?9Hop@ 00000001800d2df0     ID3_Support.obj
 0002:0001adf8       ??_C@_01LAKCGALK@9@        00000001800d2df8     ID3_Support.obj
 0002:0001adfc       ??_C@_04CELCKEJG@Jazz@     00000001800d2dfc     ID3_Support.obj
 0002:0001ae04       ??_C@_02PKFBJPLJ@10@       00000001800d2e04     ID3_Support.obj
 0002:0001ae08       ??_C@_05MICJANKE@Metal@    00000001800d2e08     ID3_Support.obj
 0002:0001ae10       ??_C@_02ODEKKOPI@11@       00000001800d2e10     ID3_Support.obj
 0002:0001ae18       ??_C@_07NOBIPMGJ@New?5Age@ 00000001800d2e18     ID3_Support.obj
 0002:0001ae20       ??_C@_02MIGHPNDL@12@       00000001800d2e20     ID3_Support.obj
 0002:0001ae24       ??_C@_06MPHEKAMK@Oldies@   00000001800d2e24     ID3_Support.obj
 0002:0001ae2c       ??_C@_02NBHMMMHK@13@       00000001800d2e2c     ID3_Support.obj
 0002:0001ae30       ??_C@_05BBOGGNLJ@Other@    00000001800d2e30     ID3_Support.obj
 0002:0001ae38       ??_C@_02JODNFKLN@14@       00000001800d2e38     ID3_Support.obj
 0002:0001ae3c       ??_C@_03HJACNKKK@Pop@      00000001800d2e3c     ID3_Support.obj
 0002:0001ae40       ??_C@_02IHCGGLPM@15@       00000001800d2e40     ID3_Support.obj
 0002:0001ae44       ??_C@_03EBDAPABP@R?$CGB@   00000001800d2e44     ID3_Support.obj
 0002:0001ae48       ??_C@_06FCJMBMOE@Reggae@   00000001800d2e48     ID3_Support.obj
 0002:0001ae50       ??_C@_03NJJFDPCL@Rap@      00000001800d2e50     ID3_Support.obj
 0002:0001ae54       ??_C@_04NENDLEAJ@Rock@     00000001800d2e54     ID3_Support.obj
 0002:0001ae5c       ??_C@_02LFBAAJHO@17@       00000001800d2e5c     ID3_Support.obj
 0002:0001ae60       ??_C@_06GNBMDAPP@Techno@   00000001800d2e60     ID3_Support.obj
 0002:0001ae68       ??_C@_02DCIIBFLB@18@       00000001800d2e68     ID3_Support.obj
 0002:0001ae70       ??_C@_0L@BLDOBJBN@Industrial@ 00000001800d2e70     ID3_Support.obj
 0002:0001ae7c       ??_C@_02CLJDCEPA@19@       00000001800d2e7c     ID3_Support.obj
 0002:0001ae80       ??_C@_0M@GIKKCPNF@Alternative@ 00000001800d2e80     ID3_Support.obj
 0002:0001ae8c       ??_C@_02PIBHCBOA@20@       00000001800d2e8c     ID3_Support.obj
 0002:0001ae90       ??_C@_03DPGHPOII@Ska@      00000001800d2e90     ID3_Support.obj
 0002:0001ae94       ??_C@_02OBAMBAKB@21@       00000001800d2e94     ID3_Support.obj
 0002:0001ae98       ??_C@_0M@EPABKDJI@Death?5Metal@ 00000001800d2e98     ID3_Support.obj
 0002:0001aea4       ??_C@_02MKCBEDGC@22@       00000001800d2ea4     ID3_Support.obj
 0002:0001aea8       ??_C@_06DIJHLFMF@Pranks@   00000001800d2ea8     ID3_Support.obj
 0002:0001aeb0       ??_C@_02NDDKHCCD@23@       00000001800d2eb0     ID3_Support.obj
 0002:0001aeb8       ??_C@_0M@LPAFHLOI@Euro?9Techno@ 00000001800d2eb8     ID3_Support.obj
 0002:0001aec8       ??_C@_0L@JMHFNCF@Soundtrack@ 00000001800d2ec8     ID3_Support.obj
 0002:0001aed8       ??_C@_07EBHHCJEE@Ambient@  00000001800d2ed8     ID3_Support.obj
 0002:0001aee0       ??_C@_02KOENIGGG@26@       00000001800d2ee0     ID3_Support.obj
 0002:0001aee8       ??_C@_08MGHEAHLN@Trip?9Hop@ 00000001800d2ee8     ID3_Support.obj
 0002:0001aef4       ??_C@_02LHFGLHCH@27@       00000001800d2ef4     ID3_Support.obj
 0002:0001aef8       ??_C@_05CGEGIIHL@Vocal@    00000001800d2ef8     ID3_Support.obj
 0002:0001af00       ??_C@_02DAMOKLOI@28@       00000001800d2f00     ID3_Support.obj
 0002:0001af08       ??_C@_09IJAEMLMO@Jazz?$CLFunk@ 00000001800d2f08     ID3_Support.obj
 0002:0001af14       ??_C@_02CJNFJKKJ@29@       00000001800d2f14     ID3_Support.obj
 0002:0001af18       ??_C@_06FOAOBEBC@Fusion@   00000001800d2f18     ID3_Support.obj
 0002:0001af20       ??_C@_02PJNFELNH@30@       00000001800d2f20     ID3_Support.obj
 0002:0001af24       ??_C@_06NOFDHFLJ@Trance@   00000001800d2f24     ID3_Support.obj
 0002:0001af2c       ??_C@_02OAMOHKJG@31@       00000001800d2f2c     ID3_Support.obj
 0002:0001af30       ??_C@_09KCDEIEAL@Classical@ 00000001800d2f30     ID3_Support.obj
 0002:0001af3c       ??_C@_02MLODCJFF@32@       00000001800d2f3c     ID3_Support.obj
 0002:0001af40       ??_C@_0N@FJCNDAAI@Instrumental@ 00000001800d2f40     ID3_Support.obj
 0002:0001af50       ??_C@_02NCPIBIBE@33@       00000001800d2f50     ID3_Support.obj
 0002:0001af54       ??_C@_04DDEKHPPK@Acid@     00000001800d2f54     ID3_Support.obj
 0002:0001af5c       ??_C@_02JNLJIOND@34@       00000001800d2f5c     ID3_Support.obj
 0002:0001af60       ??_C@_05KEIICPIE@House@    00000001800d2f60     ID3_Support.obj
 0002:0001af68       ??_C@_02IEKCLPJC@35@       00000001800d2f68     ID3_Support.obj
 0002:0001af6c       ??_C@_04IBBNLEM@Game@      00000001800d2f6c     ID3_Support.obj
 0002:0001af74       ??_C@_02KPIPOMFB@36@       00000001800d2f74     ID3_Support.obj
 0002:0001af78       ??_C@_0L@FEFCBAGD@Sound?5Clip@ 00000001800d2f78     ID3_Support.obj
 0002:0001af84       ??_C@_02LGJENNBA@37@       00000001800d2f84     ID3_Support.obj
 0002:0001af88       ??_C@_06EIIEMBBK@Gospel@   00000001800d2f88     ID3_Support.obj
 0002:0001af90       ??_C@_02DBAMMBNP@38@       00000001800d2f90     ID3_Support.obj
 0002:0001af94       ??_C@_05GIBOCELO@Noise@    00000001800d2f94     ID3_Support.obj
 0002:0001af9c       ??_C@_02CIBHPAJO@39@       00000001800d2f9c     ID3_Support.obj
 0002:0001afa0       ??_C@_0L@NJCGEDAH@AlternRock@ 00000001800d2fa0     ID3_Support.obj
 0002:0001afac       ??_C@_02PMJKFNFC@40@       00000001800d2fac     ID3_Support.obj
 0002:0001afb0       ??_C@_04MKNBGPJB@Bass@     00000001800d2fb0     ID3_Support.obj
 0002:0001afb8       ??_C@_02OFIBGMBD@41@       00000001800d2fb8     ID3_Support.obj
 0002:0001afbc       ??_C@_04LOFJNELM@Soul@     00000001800d2fbc     ID3_Support.obj
 0002:0001afc4       ??_C@_02MOKMDPNA@42@       00000001800d2fc4     ID3_Support.obj
 0002:0001afc8       ??_C@_04JJGPMDMB@Punk@     00000001800d2fc8     ID3_Support.obj
 0002:0001afd0       ??_C@_02NHLHAOJB@43@       00000001800d2fd0     ID3_Support.obj
 0002:0001afd4       ??_C@_05OMHELODH@Space@    00000001800d2fd4     ID3_Support.obj
 0002:0001afdc       ??_C@_02JIPGJIFG@44@       00000001800d2fdc     ID3_Support.obj
 0002:0001afe0       ??_C@_0L@KJEEODLG@Meditative@ 00000001800d2fe0     ID3_Support.obj
 0002:0001afec       ??_C@_02IBONKJBH@45@       00000001800d2fec     ID3_Support.obj
 0002:0001aff0       ??_C@_0BB@LFDKKLIN@Instrumental?5Pop@ 00000001800d2ff0     ID3_Support.obj
 0002:0001b004       ??_C@_02KKMAPKNE@46@       00000001800d3004     ID3_Support.obj
 0002:0001b008       ??_C@_0BC@HBBFDJBD@Instrumental?5Rock@ 00000001800d3008     ID3_Support.obj
 0002:0001b01c       ??_C@_02LDNLMLJF@47@       00000001800d301c     ID3_Support.obj
 0002:0001b020       ??_C@_06JPHOEBPP@Ethnic@   00000001800d3020     ID3_Support.obj
 0002:0001b028       ??_C@_02DEEDNHFK@48@       00000001800d3028     ID3_Support.obj
 0002:0001b02c       ??_C@_06OBILIHNB@Gothic@   00000001800d302c     ID3_Support.obj
 0002:0001b034       ??_C@_02CNFIOGBL@49@       00000001800d3034     ID3_Support.obj
 0002:0001b038       ??_C@_02OEEDAGCE@51@       00000001800d3038     ID3_Support.obj
 0002:0001b040       ??_C@_08BPJDAAFN@Darkwave@ 00000001800d3040     ID3_Support.obj
 0002:0001b04c       ??_C@_02MPGOFFOH@52@       00000001800d304c     ID3_Support.obj
 0002:0001b050       ??_C@_0BC@HKAKJIIF@Techno?9Industrial@ 00000001800d3050     ID3_Support.obj
 0002:0001b064       ??_C@_02NGHFGEKG@53@       00000001800d3064     ID3_Support.obj
 0002:0001b068       ??_C@_0L@CHKMIMGG@Electronic@ 00000001800d3068     ID3_Support.obj
 0002:0001b074       ??_C@_02JJDEPCGB@54@       00000001800d3074     ID3_Support.obj
 0002:0001b078       ??_C@_08EGAHBEGH@Pop?9Folk@ 00000001800d3078     ID3_Support.obj
 0002:0001b084       ??_C@_02IACPMDCA@55@       00000001800d3084     ID3_Support.obj
 0002:0001b088       ??_C@_09PDIMAOAM@Eurodance@ 00000001800d3088     ID3_Support.obj
 0002:0001b094       ??_C@_02KLACJAOD@56@       00000001800d3094     ID3_Support.obj
 0002:0001b098       ??_C@_05MMFIBGEF@Dream@    00000001800d3098     ID3_Support.obj
 0002:0001b0a0       ??_C@_02LCBJKBKC@57@       00000001800d30a0     ID3_Support.obj
 0002:0001b0a8       ??_C@_0O@KFCFCIGH@Southern?5Rock@ 00000001800d30a8     ID3_Support.obj
 0002:0001b0b8       ??_C@_02DFIBLNGN@58@       00000001800d30b8     ID3_Support.obj
 0002:0001b0bc       ??_C@_06DCKLOHGE@Comedy@   00000001800d30bc     ID3_Support.obj
 0002:0001b0c4       ??_C@_02CMJKIMCM@59@       00000001800d30c4     ID3_Support.obj
 0002:0001b0c8       ??_C@_04HAPBPEGD@Cult@     00000001800d30c8     ID3_Support.obj
 0002:0001b0d0       ??_C@_02PPBOIJDM@60@       00000001800d30d0     ID3_Support.obj
 0002:0001b0d8       ??_C@_07NLDMPMFM@Gangsta@  00000001800d30d8     ID3_Support.obj
 0002:0001b0e0       ??_C@_02OGAFLIHN@61@       00000001800d30e0     ID3_Support.obj
 0002:0001b0e4       ??_C@_06OJGPGEOE@Top?540@  00000001800d30e4     ID3_Support.obj
 0002:0001b0ec       ??_C@_02MNCIOLLO@62@       00000001800d30ec     ID3_Support.obj
 0002:0001b0f0       ??_C@_0O@CMBOEJC@Christian?5Rap@ 00000001800d30f0     ID3_Support.obj
 0002:0001b100       ??_C@_02NEDDNKPP@63@       00000001800d3100     ID3_Support.obj
 0002:0001b108       ??_C@_08DHOPNGPJ@Pop?1Funk@ 00000001800d3108     ID3_Support.obj
 0002:0001b114       ??_C@_02JLHCEMDI@64@       00000001800d3114     ID3_Support.obj
 0002:0001b118       ??_C@_06LDDNPE@Jungle@     00000001800d3118     ID3_Support.obj
 0002:0001b120       ??_C@_02ICGJHNHJ@65@       00000001800d3120     ID3_Support.obj
 0002:0001b128       ??_C@_0BA@CLMIBMOP@Native?5American@ 00000001800d3128     ID3_Support.obj
 0002:0001b138       ??_C@_02KJEECOLK@66@       00000001800d3138     ID3_Support.obj
 0002:0001b140       ??_C@_07DFBJIPEL@Cabaret@  00000001800d3140     ID3_Support.obj
 0002:0001b148       ??_C@_02LAFPBPPL@67@       00000001800d3148     ID3_Support.obj
 0002:0001b150       ??_C@_08PIJBHODF@New?5Wave@ 00000001800d3150     ID3_Support.obj
 0002:0001b15c       ??_C@_02DHMHADDE@68@       00000001800d315c     ID3_Support.obj
 0002:0001b160       ??_C@_0M@CEHNINAD@Psychadelic@ 00000001800d3160     ID3_Support.obj
 0002:0001b16c       ??_C@_02CONMDCHF@69@       00000001800d316c     ID3_Support.obj
 0002:0001b170       ??_C@_04LAGCIPCP@Rave@     00000001800d3170     ID3_Support.obj
 0002:0001b178       ??_C@_02PONMODAL@70@       00000001800d3178     ID3_Support.obj
 0002:0001b180       ??_C@_09LJJPFGGK@Showtunes@ 00000001800d3180     ID3_Support.obj
 0002:0001b18c       ??_C@_02OHMHNCEK@71@       00000001800d318c     ID3_Support.obj
 0002:0001b190       ??_C@_07EFCJIPGP@Trailer@  00000001800d3190     ID3_Support.obj
 0002:0001b198       ??_C@_02MMOKIBIJ@72@       00000001800d3198     ID3_Support.obj
 0002:0001b19c       ??_C@_05LPLFCCKI@Lo?9Fi@   00000001800d319c     ID3_Support.obj
 0002:0001b1a4       ??_C@_02NFPBLAMI@73@       00000001800d31a4     ID3_Support.obj
 0002:0001b1a8       ??_C@_06HGLDOOOH@Tribal@   00000001800d31a8     ID3_Support.obj
 0002:0001b1b0       ??_C@_02JKLACGAP@74@       00000001800d31b0     ID3_Support.obj
 0002:0001b1b8       ??_C@_09BPKAFLAF@Acid?5Punk@ 00000001800d31b8     ID3_Support.obj
 0002:0001b1c4       ??_C@_02IDKLBHEO@75@       00000001800d31c4     ID3_Support.obj
 0002:0001b1c8       ??_C@_09KCHNDMFC@Acid?5Jazz@ 00000001800d31c8     ID3_Support.obj
 0002:0001b1d4       ??_C@_02KIIGEEIN@76@       00000001800d31d4     ID3_Support.obj
 0002:0001b1d8       ??_C@_05BAEFIAKL@Polka@    00000001800d31d8     ID3_Support.obj
 0002:0001b1e0       ??_C@_02LBJNHFMM@77@       00000001800d31e0     ID3_Support.obj
 0002:0001b1e4       ??_C@_05POEPDAA@Retro@     00000001800d31e4     ID3_Support.obj
 0002:0001b1ec       ??_C@_02DGAFGJAD@78@       00000001800d31ec     ID3_Support.obj
 0002:0001b1f0       ??_C@_07CGEPLPCE@Musical@  00000001800d31f0     ID3_Support.obj
 0002:0001b1f8       ??_C@_02CPBOFIEC@79@       00000001800d31f8     ID3_Support.obj
 0002:0001b200       ??_C@_0M@IIAEDJCA@Rock?5?$CG?5Roll@ 00000001800d3200     ID3_Support.obj
 0002:0001b20c       ??_C@_02PFIAKEDG@80@       00000001800d320c     ID3_Support.obj
 0002:0001b210       ??_C@_09KBCOACPM@Hard?5Rock@ 00000001800d3210     ID3_Support.obj
 0002:0001b21c       ??_C@_02OMJLJFHH@81@       00000001800d321c     ID3_Support.obj
 0002:0001b220       ??_C@_04EKOPMCHG@Folk@     00000001800d3220     ID3_Support.obj
 0002:0001b228       ??_C@_02MHLGMGLE@82@       00000001800d3228     ID3_Support.obj
 0002:0001b230       ??_C@_09FEMCKJPD@Folk?9Rock@ 00000001800d3230     ID3_Support.obj
 0002:0001b23c       ??_C@_02NOKNPHPF@83@       00000001800d323c     ID3_Support.obj
 0002:0001b240       ??_C@_0O@OLFCHJHJ@National?5Folk@ 00000001800d3240     ID3_Support.obj
 0002:0001b250       ??_C@_02JBOMGBDC@84@       00000001800d3250     ID3_Support.obj
 0002:0001b254       ??_C@_05KBAOLLBJ@Swing@    00000001800d3254     ID3_Support.obj
 0002:0001b25c       ??_C@_02IIPHFAHD@85@       00000001800d325c     ID3_Support.obj
 0002:0001b260       ??_C@_0M@LPPEJIPP@Fast?5Fusion@ 00000001800d3260     ID3_Support.obj
 0002:0001b26c       ??_C@_02KDNKADLA@86@       00000001800d326c     ID3_Support.obj
 0002:0001b270       ??_C@_05NIBALHLG@Bebob@    00000001800d3270     ID3_Support.obj
 0002:0001b278       ??_C@_02LKMBDCPB@87@       00000001800d3278     ID3_Support.obj
 0002:0001b27c       ??_C@_05MKNAELPL@Latin@    00000001800d327c     ID3_Support.obj
 0002:0001b284       ??_C@_02DNFJCODO@88@       00000001800d3284     ID3_Support.obj
 0002:0001b288       ??_C@_07NDAADGHD@Revival@  00000001800d3288     ID3_Support.obj
 0002:0001b290       ??_C@_02CEECBPHP@89@       00000001800d3290     ID3_Support.obj
 0002:0001b294       ??_C@_06POAALEMA@Celtic@   00000001800d3294     ID3_Support.obj
 0002:0001b29c       ??_C@_02PEECMOAB@90@       00000001800d329c     ID3_Support.obj
 0002:0001b2a0       ??_C@_09EGIPCOAF@Bluegrass@ 00000001800d32a0     ID3_Support.obj
 0002:0001b2ac       ??_C@_02ONFJPPEA@91@       00000001800d32ac     ID3_Support.obj
 0002:0001b2b0       ??_C@_0L@MJHGFLKD@Avantgarde@ 00000001800d32b0     ID3_Support.obj
 0002:0001b2bc       ??_C@_02MGHEKMID@92@       00000001800d32bc     ID3_Support.obj
 0002:0001b2c0       ??_C@_0M@IELMFHHK@Gothic?5Rock@ 00000001800d32c0     ID3_Support.obj
 0002:0001b2cc       ??_C@_02NPGPJNMC@93@       00000001800d32cc     ID3_Support.obj
 0002:0001b2d0       ??_C@_0BB@GCFDGKOP@Progressive?5Rock@ 00000001800d32d0     ID3_Support.obj
 0002:0001b2e4       ??_C@_02JACOALAF@94@       00000001800d32e4     ID3_Support.obj
 0002:0001b2e8       ??_C@_0BB@BMPGIMDB@Psychedelic?5Rock@ 00000001800d32e8     ID3_Support.obj
 0002:0001b2fc       ??_C@_02IJDFDKEE@95@       00000001800d32fc     ID3_Support.obj
 0002:0001b300       ??_C@_0P@FPGGCDAB@Symphonic?5Rock@ 00000001800d3300     ID3_Support.obj
 0002:0001b310       ??_C@_02KCBIGJIH@96@       00000001800d3310     ID3_Support.obj
 0002:0001b318       ??_C@_09DOKHDNBN@Slow?5Rock@ 00000001800d3318     ID3_Support.obj
 0002:0001b324       ??_C@_02LLADFIMG@97@       00000001800d3324     ID3_Support.obj
 0002:0001b328       ??_C@_08INPKNPNL@Big?5Band@ 00000001800d3328     ID3_Support.obj
 0002:0001b334       ??_C@_02DMJLEEAJ@98@       00000001800d3334     ID3_Support.obj
 0002:0001b338       ??_C@_06HPKLMKFH@Chorus@   00000001800d3338     ID3_Support.obj
 0002:0001b340       ??_C@_02CFIAHFEI@99@       00000001800d3340     ID3_Support.obj
 0002:0001b348       ??_C@_0P@OGJNDFNF@Easy?5Listening@ 00000001800d3348     ID3_Support.obj
 0002:0001b358       ??_C@_06DEMGCIL@Humour@    00000001800d3358     ID3_Support.obj
 0002:0001b360       ??_C@_08PLJDJOCM@Acoustic@ 00000001800d3360     ID3_Support.obj
 0002:0001b36c       ??_C@_06MBBDLFLA@Speech@   00000001800d336c     ID3_Support.obj
 0002:0001b374       ??_C@_03HEBKFNAF@101@      00000001800d3374     ID3_Support.obj
 0002:0001b378       ??_C@_07KBEDDHIP@Chanson@  00000001800d3378     ID3_Support.obj
 0002:0001b380       ??_C@_03FPDHAOMG@102@      00000001800d3380     ID3_Support.obj
 0002:0001b384       ??_C@_05GOIKOHMD@Opera@    00000001800d3384     ID3_Support.obj
 0002:0001b38c       ??_C@_03EGCMDPIH@103@      00000001800d338c     ID3_Support.obj
 0002:0001b390       ??_C@_0O@HPFNKIBK@Chamber?5Music@ 00000001800d3390     ID3_Support.obj
 0002:0001b3a0       ??_C@_03JGNKJEA@104@       00000001800d33a0     ID3_Support.obj
 0002:0001b3a4       ??_C@_06DIKKNAE@Sonata@    00000001800d33a4     ID3_Support.obj
 0002:0001b3ac       ??_C@_03BAHGJIAB@105@      00000001800d33ac     ID3_Support.obj
 0002:0001b3b0       ??_C@_08HGMGMDPB@Symphony@ 00000001800d33b0     ID3_Support.obj
 0002:0001b3bc       ??_C@_03DLFLMLMC@106@      00000001800d33bc     ID3_Support.obj
 0002:0001b3c0       ??_C@_0L@BMCAJHGC@Booty?5Bass@ 00000001800d33c0     ID3_Support.obj
 0002:0001b3cc       ??_C@_03CCEAPKID@107@      00000001800d33cc     ID3_Support.obj
 0002:0001b3d0       ??_C@_06MOKNPJA@Primus@    00000001800d33d0     ID3_Support.obj
 0002:0001b3d8       ??_C@_03KFNIOGEM@108@      00000001800d33d8     ID3_Support.obj
 0002:0001b3e0       ??_C@_0M@BDIBAHFD@Porn?5Groove@ 00000001800d33e0     ID3_Support.obj
 0002:0001b3ec       ??_C@_03LMMDNHAN@109@      00000001800d33ec     ID3_Support.obj
 0002:0001b3f0       ??_C@_06LGIFNCAO@Satire@   00000001800d33f0     ID3_Support.obj
 0002:0001b3f8       ??_C@_03GMMDAGHD@110@      00000001800d33f8     ID3_Support.obj
 0002:0001b400       ??_C@_08BCJKABMD@Slow?5Jam@ 00000001800d3400     ID3_Support.obj
 0002:0001b40c       ??_C@_03HFNIDHDC@111@      00000001800d340c     ID3_Support.obj
 0002:0001b410       ??_C@_04FCIPMBFO@Club@     00000001800d3410     ID3_Support.obj
 0002:0001b418       ??_C@_03FOPFGEPB@112@      00000001800d3418     ID3_Support.obj
 0002:0001b41c       ??_C@_05JHEGALN@Tango@     00000001800d341c     ID3_Support.obj
 0002:0001b424       ??_C@_03EHOOFFLA@113@      00000001800d3424     ID3_Support.obj
 0002:0001b428       ??_C@_05JOIMBAIO@Samba@    00000001800d3428     ID3_Support.obj
 0002:0001b430       ??_C@_03IKPMDHH@114@       00000001800d3430     ID3_Support.obj
 0002:0001b438       ??_C@_08ODOIKEAG@Folklore@ 00000001800d3438     ID3_Support.obj
 0002:0001b444       ??_C@_03BBLEPCDG@115@      00000001800d3444     ID3_Support.obj
 0002:0001b448       ??_C@_06BHBJEFGN@Ballad@   00000001800d3448     ID3_Support.obj
 0002:0001b450       ??_C@_03DKJJKBPF@116@      00000001800d3450     ID3_Support.obj
 0002:0001b458       ??_C@_0N@BBLJBJNI@Power?5Ballad@ 00000001800d3458     ID3_Support.obj
 0002:0001b468       ??_C@_03CDICJALE@117@      00000001800d3468     ID3_Support.obj
 0002:0001b470       ??_C@_0O@NBAHAMNI@Rhythmic?5Soul@ 00000001800d3470     ID3_Support.obj
 0002:0001b480       ??_C@_03KEBKIMHL@118@      00000001800d3480     ID3_Support.obj
 0002:0001b488       ??_C@_09NOJFLNHA@Freestyle@ 00000001800d3488     ID3_Support.obj
 0002:0001b494       ??_C@_03LNABLNDK@119@      00000001800d3494     ID3_Support.obj
 0002:0001b498       ??_C@_04MNAABDPM@Duet@     00000001800d3498     ID3_Support.obj
 0002:0001b4a0       ??_C@_03GOIFLICK@120@      00000001800d34a0     ID3_Support.obj
 0002:0001b4a8       ??_C@_09LJCHIEBA@Punk?5Rock@ 00000001800d34a8     ID3_Support.obj
 0002:0001b4b4       ??_C@_03HHJOIJGL@121@      00000001800d34b4     ID3_Support.obj
 0002:0001b4b8       ??_C@_09ODFCHLIF@Drum?5Solo@ 00000001800d34b8     ID3_Support.obj
 0002:0001b4c4       ??_C@_03FMLDNKKI@122@      00000001800d34c4     ID3_Support.obj
 0002:0001b4c8       ??_C@_09IKHCEMFI@A?5capella@ 00000001800d34c8     ID3_Support.obj
 0002:0001b4d4       ??_C@_03EFKIOLOJ@123@      00000001800d34d4     ID3_Support.obj
 0002:0001b4d8       ??_C@_0L@LAEGMFKC@Euro?9House@ 00000001800d34d8     ID3_Support.obj
 0002:0001b4e4       ??_C@_03KOJHNCO@124@       00000001800d34e4     ID3_Support.obj
 0002:0001b4e8       ??_C@_0L@LLLHEFCL@Dance?5Hall@ 00000001800d34e8     ID3_Support.obj
 0002:0001b4f4       ??_C@_03BDPCEMGP@125@      00000001800d34f4     ID3_Support.obj
 0002:0001b500       ??_C@_0FC@GGKDLCAF@kXMPErr_BadFileFormat?5?$CCInvalid?5@ 00000001800d3500     ID3_Support.obj
 0002:0001b554       ??_C@_02LNAEAIDO@?$DL?5@   00000001800d3554     ID3_Support.obj
 0002:0001b558       ??_C@_01KHDNNMEB@?$AB@     00000001800d3558     ID3_Support.obj
 0002:0001b55c       ??_C@_01LOCGONAA@?$AA@     00000001800d355c     ID3_Support.obj
 0002:0001b560       ??_C@_02LOCGON@?$AA?$AA@   00000001800d3560     ID3_Support.obj
 0002:0001b564       ??_C@_04JFAAKOPK@?$PP?$PO?$AA?$AA@ 00000001800d3564     ID3_Support.obj
 0002:0001b570       ??_C@_0FH@BGMMDLJA@kXMPErr_BadFileFormat?5?$CCinvalid?5@ 00000001800d3570     ID3_Support.obj
 0002:0001b5d0       ??_C@_0GG@FNEJFBEO@kXMPErr_InternalFailure?5?$CCXMP?5Pr@ 00000001800d35d0     ID3_Support.obj
 0002:0001b640       ??_C@_0FG@DLDPIPNE@kXMPErr_BadFileFormat?5?$CCsingle?5f@ 00000001800d3640     ID3_Support.obj
 0002:0001b6a0       ??_C@_0EG@IHKFPAIO@kXMPErr_BadFileFormat?5?$CCnegative@ 00000001800d36a0     ID3_Support.obj
 0002:0001b6e8       ??_C@_0BG@HAHDDFBN@unknown?5text?5encoding@ 00000001800d36e8     ID3_Support.obj
 0002:0001b700       ??_C@_04EANEGJLJ@iTun@     00000001800d3700     ID3_Support.obj
 0002:0001b718       ??_C@_0CM@GGBCAPEO@http?3?1?1iptc?4org?1std?1Iptc4xmpCor@ 00000001800d3718     IPTC_Support.obj
 0002:0001b748       ??_C@_0CD@FNLEDAPC@http?3?1?1ns?4adobe?4com?1photoshop?11@ 00000001800d3748     IPTC_Support.obj
 0002:0001b770       ??_C@_0BC@BLKLCBBI@IntellectualGenre@ 00000001800d3770     IPTC_Support.obj
 0002:0001b788       ??_C@_0M@MFEBBOAI@SubjectCode@ 00000001800d3788     IPTC_Support.obj
 0002:0001b798       ??_C@_07NHFKOMBP@Urgency@  00000001800d3798     IPTC_Support.obj
 0002:0001b7a0       ??_C@_0N@DCKGNPEG@Instructions@ 00000001800d37a0     IPTC_Support.obj
 0002:0001b7b0       ??_C@_0BH@MMGMFPOD@SupplementalCategories@ 00000001800d37b0     IPTC_Support.obj
 0002:0001b7c8       ??_C@_0BA@JLCHPHKM@AuthorsPosition@ 00000001800d37c8     IPTC_Support.obj
 0002:0001b7d8       ??_C@_0M@EEBNEJFF@DateCreated@ 00000001800d37d8     IPTC_Support.obj
 0002:0001b7e4       ??_C@_05JNKNAC@State@      00000001800d37e4     IPTC_Support.obj
 0002:0001b7ec       ??_C@_04MNKFJAMB@City@     00000001800d37ec     IPTC_Support.obj
 0002:0001b7f8       ??_C@_0BG@BNDCGILJ@TransmissionReference@ 00000001800d37f8     IPTC_Support.obj
 0002:0001b810       ??_C@_0M@NALIBBDH@CountryCode@ 00000001800d3810     IPTC_Support.obj
 0002:0001b81c       ??_C@_06LIFJDHJL@Credit@   00000001800d381c     IPTC_Support.obj
 0002:0001b828       ??_C@_08BKDMLFIB@Headline@ 00000001800d3828     IPTC_Support.obj
 0002:0001b838       ??_C@_0O@ECPDGPLB@CaptionWriter@ 00000001800d3838     IPTC_Support.obj
 0002:0001b848       ??_C@_06CLBDIDBH@Source@   00000001800d3848     IPTC_Support.obj
 0002:0001b850       ??_C@_07EDIFFIJI@Current@  00000001800d3850     IPTC_Support.obj
 0002:0001b858       ??_C@_03MMKGDKGA@001@      00000001800d3858     IPTC_Support.obj
 0002:0001b860       ??_C@_08IJNFJBLK@Analysis@ 00000001800d3860     IPTC_Support.obj
 0002:0001b86c       ??_C@_03OHILGJKD@002@      00000001800d386c     IPTC_Support.obj
 0002:0001b870       ??_C@_0BB@MACMGHJP@Archive?5material@ 00000001800d3870     IPTC_Support.obj
 0002:0001b884       ??_C@_03POJAFIOC@003@      00000001800d3884     IPTC_Support.obj
 0002:0001b888       ??_C@_0L@MALGKGOF@Background@ 00000001800d3888     IPTC_Support.obj
 0002:0001b894       ??_C@_03LBNBMOCF@004@      00000001800d3894     IPTC_Support.obj
 0002:0001b898       ??_C@_07HAEFGBDM@Feature@  00000001800d3898     IPTC_Support.obj
 0002:0001b8a0       ??_C@_03KIMKPPGE@005@      00000001800d38a0     IPTC_Support.obj
 0002:0001b8a8       ??_C@_08NOJHILCA@Forecast@ 00000001800d38a8     IPTC_Support.obj
 0002:0001b8b4       ??_C@_03IDOHKMKH@006@      00000001800d38b4     IPTC_Support.obj
 0002:0001b8b8       ??_C@_07DFKCFAEM@History@  00000001800d38b8     IPTC_Support.obj
 0002:0001b8c0       ??_C@_03JKPMJNOG@007@      00000001800d38c0     IPTC_Support.obj
 0002:0001b8c8       ??_C@_08BPKOEHPI@Obituary@ 00000001800d38c8     IPTC_Support.obj
 0002:0001b8d4       ??_C@_03BNGEIBCJ@008@      00000001800d38d4     IPTC_Support.obj
 0002:0001b8d8       ??_C@_07HBCKMFPP@Opinion@  00000001800d38d8     IPTC_Support.obj
 0002:0001b8e0       ??_C@_03EHPLAGI@009@       00000001800d38e0     IPTC_Support.obj
 0002:0001b8e8       ??_C@_0BC@BBOAACED@Polls?5and?5surveys@ 00000001800d38e8     IPTC_Support.obj
 0002:0001b8fc       ??_C@_03NEHPGBBG@010@      00000001800d38fc     IPTC_Support.obj
 0002:0001b900       ??_C@_03MNGEFAFH@011@      00000001800d3900     IPTC_Support.obj
 0002:0001b908       ??_C@_0BA@OMHLGGCB@Polls?5?$CG?5Surveys@ 00000001800d3908     IPTC_Support.obj
 0002:0001b918       ??_C@_03OGEJADJE@012@      00000001800d3918     IPTC_Support.obj
 0002:0001b920       ??_C@_07EELFDIBP@Profile@  00000001800d3920     IPTC_Support.obj
 0002:0001b928       ??_C@_0BK@GPMCJIDP@Results?5Listings?5?$CG?5Tables@ 00000001800d3928     IPTC_Support.obj
 0002:0001b948       ??_C@_0CA@JJGLBIHE@Results?5listings?5and?5statistics@ 00000001800d3948     IPTC_Support.obj
 0002:0001b968       ??_C@_0CE@CNKGMNLL@Side?5bar?5and?5supporting?5informa@ 00000001800d3968     IPTC_Support.obj
 0002:0001b98c       ??_C@_03PPFCDCNF@013@      00000001800d398c     IPTC_Support.obj
 0002:0001b990       ??_C@_03LABDKEBC@014@      00000001800d3990     IPTC_Support.obj
 0002:0001b998       ??_C@_0CC@GAHCEAHE@Side?5bar?5?$CG?5Supporting?5informati@ 00000001800d3998     IPTC_Support.obj
 0002:0001b9bc       ??_C@_03KJAIJFFD@015@      00000001800d39bc     IPTC_Support.obj
 0002:0001b9c0       ??_C@_07POGKKA@Summary@    00000001800d39c0     IPTC_Support.obj
 0002:0001b9c8       ??_C@_0BG@KHPLEEGO@Transcript?5?$CG?5Verbatim@ 00000001800d39c8     IPTC_Support.obj
 0002:0001b9e0       ??_C@_0BI@MFFCCACO@Transcript?5and?5verbatim@ 00000001800d39e0     IPTC_Support.obj
 0002:0001b9f8       ??_C@_09EDNLPKCL@Interview@ 00000001800d39f8     IPTC_Support.obj
 0002:0001ba04       ??_C@_03ICCFMGJA@016@      00000001800d3a04     IPTC_Support.obj
 0002:0001ba08       ??_C@_0P@JIHOFEDD@From?5the?5scene@ 00000001800d3a08     IPTC_Support.obj
 0002:0001ba18       ??_C@_03JLDOPHNB@017@      00000001800d3a18     IPTC_Support.obj
 0002:0001ba1c       ??_C@_03BMKGOLBO@018@      00000001800d3a1c     IPTC_Support.obj
 0002:0001ba20       ??_C@_0P@JPNCFBAF@From?5the?5Scene@ 00000001800d3a20     IPTC_Support.obj
 0002:0001ba30       ??_C@_03FLNNKFP@019@       00000001800d3a30     IPTC_Support.obj
 0002:0001ba38       ??_C@_0O@GKAJOLLB@Retrospective@ 00000001800d3a38     IPTC_Support.obj
 0002:0001ba48       ??_C@_0L@HOODANMK@Statistics@ 00000001800d3a48     IPTC_Support.obj
 0002:0001ba58       ??_C@_08FBKDEJ@Synopsis@   00000001800d3a58     IPTC_Support.obj
 0002:0001ba64       ??_C@_06LMAGPFNF@Update@   00000001800d3a64     IPTC_Support.obj
 0002:0001ba6c       ??_C@_03NGDJNPEP@020@      00000001800d3a6c     IPTC_Support.obj
 0002:0001ba70       ??_C@_06HAGDHGFO@Wrapup@   00000001800d3a70     IPTC_Support.obj
 0002:0001ba78       ??_C@_03MPCCOOAO@021@      00000001800d3a78     IPTC_Support.obj
 0002:0001ba7c       ??_C@_03OEAPLNMN@022@      00000001800d3a7c     IPTC_Support.obj
 0002:0001ba80       ??_C@_07KLOOIDNF@Wrap?9up@ 00000001800d3a80     IPTC_Support.obj
 0002:0001ba88       ??_C@_0O@LGJHGONA@Press?5Release@ 00000001800d3a88     IPTC_Support.obj
 0002:0001ba98       ??_C@_0O@EPOBAMIG@Press?5release@ 00000001800d3a98     IPTC_Support.obj
 0002:0001baa8       ??_C@_05JAOKFCIK@Quote@    00000001800d3aa8     IPTC_Support.obj
 0002:0001bab0       ??_C@_03PNBEIMIM@023@      00000001800d3ab0     IPTC_Support.obj
 0002:0001bab8       ??_C@_0N@MMNMONOC@Press?9digest@ 00000001800d3ab8     IPTC_Support.obj
 0002:0001bac8       ??_C@_03LCFFBKEL@024@      00000001800d3ac8     IPTC_Support.obj
